TN:
SF:/home/apetrini/dev/src/zen/src/addrman.cpp
FN:11,_ZNK9CAddrInfo14GetTriedBucketERK7uint256
FN:18,_ZNK9CAddrInfo12GetNewBucketERK7uint256RK8CNetAddr
FN:26,_ZNK9CAddrInfo17GetBucketPositionERK7uint256bi
FN:32,_ZNK9CAddrInfo10IsTerribleEl
FN:52,_ZNK9CAddrInfo9GetChanceEl
FN:68,_ZN8CAddrMan4FindERK8CNetAddrPi
FN:81,_ZN8CAddrMan6CreateERK8CAddressRK8CNetAddrPi
FN:93,_ZN8CAddrMan10SwapRandomEjj
FN:113,_ZN8CAddrMan6DeleteEi
FN:127,_ZN8CAddrMan8ClearNewEii
FN:142,_ZN8CAddrMan9MakeTriedER9CAddrInfoi
FN:190,_ZN8CAddrMan5Good_ERK8CServicel
FN:239,_ZN8CAddrMan4Add_ERK8CAddressRK8CNetAddrl
FN:307,_ZN8CAddrMan8Attempt_ERK8CServicel
FN:326,_ZN8CAddrMan7Select_Eb
FN:468,_ZN8CAddrMan8GetAddr_ERSt6vectorI8CAddressSaIS1_EE
FN:489,_ZN8CAddrMan10Connected_ERK8CServicel
FN:509,_ZN8CAddrMan9RandomIntEi
FNDA:71,_ZN8CAddrMan10Connected_ERK8CServicel
FNDA:0,_ZN8CAddrMan4Add_ERK8CAddressRK8CNetAddrl
FNDA:51125,_ZN8CAddrMan7Select_Eb
FNDA:1293,_ZN8CAddrMan8Attempt_ERK8CServicel
FNDA:0,_ZN8CAddrMan10SwapRandomEjj
FNDA:0,_ZN8CAddrMan8ClearNewEii
FNDA:0,_ZNK9CAddrInfo9GetChanceEl
FNDA:0,_ZNK9CAddrInfo12GetNewBucketERK7uint256RK8CNetAddr
FNDA:0,_ZN8CAddrMan9MakeTriedER9CAddrInfoi
FNDA:0,_ZNK9CAddrInfo17GetBucketPositionERK7uint256bi
FNDA:2031,_ZN8CAddrMan4FindERK8CNetAddrPi
FNDA:0,_ZN8CAddrMan9RandomIntEi
FNDA:0,_ZN8CAddrMan6DeleteEi
FNDA:667,_ZN8CAddrMan5Good_ERK8CServicel
FNDA:0,_ZN8CAddrMan6CreateERK8CAddressRK8CNetAddrPi
FNDA:0,_ZNK9CAddrInfo10IsTerribleEl
FNDA:667,_ZN8CAddrMan8GetAddr_ERSt6vectorI8CAddressSaIS1_EE
FNDA:0,_ZNK9CAddrInfo14GetTriedBucketERK7uint256
FNF:18
FNH:6
DA:11,0
DA:13,0
DA:14,0
DA:15,0
DA:18,0
DA:20,0
DA:21,0
DA:22,0
DA:23,0
DA:24,0
DA:26,0
DA:28,0
DA:29,0
DA:32,0
DA:34,0
DA:37,0
DA:40,0
DA:43,0
DA:46,0
DA:47,0
DA:52,0
DA:54,0
DA:56,0
DA:59,0
DA:60,0
DA:63,0
DA:65,0
DA:68,2031
DA:70,2031
DA:71,2031
DA:73,0
DA:74,0
DA:75,0
DA:76,0
DA:77,0
DA:81,0
DA:83,0
DA:84,0
DA:85,0
DA:86,0
DA:87,0
DA:88,0
DA:89,0
DA:90,0
DA:93,0
DA:95,0
DA:96,0
DA:98,0
DA:100,0
DA:101,0
DA:103,0
DA:104,0
DA:106,0
DA:107,0
DA:109,0
DA:110,0
DA:113,0
DA:115,0
DA:116,0
DA:117,0
DA:118,0
DA:120,0
DA:121,0
DA:122,0
DA:123,0
DA:124,0
DA:125,0
DA:127,0
DA:130,0
DA:131,0
DA:132,0
DA:133,0
DA:134,0
DA:135,0
DA:136,0
DA:137,0
DA:140,0
DA:142,0
DA:145,0
DA:146,0
DA:147,0
DA:148,0
DA:149,0
DA:152,0
DA:154,0
DA:157,0
DA:158,0
DA:161,0
DA:163,0
DA:164,0
DA:165,0
DA:168,0
DA:169,0
DA:170,0
DA:173,0
DA:174,0
DA:175,0
DA:176,0
DA:179,0
DA:180,0
DA:181,0
DA:183,0
DA:185,0
DA:186,0
DA:187,0
DA:188,0
DA:190,667
DA:192,667
DA:193,667
DA:196,667
DA:197,667
DA:199,0
DA:202,0
DA:206,0
DA:207,0
DA:208,0
DA:213,0
DA:217,0
DA:218,0
DA:219,0
DA:220,0
DA:221,0
DA:222,0
DA:230,0
DA:233,0
DA:236,0
DA:239,0
DA:241,0
DA:244,0
DA:245,0
DA:246,0
DA:248,0
DA:250,0
DA:251,0
DA:252,0
DA:253,0
DA:256,0
DA:259,0
DA:263,0
DA:267,0
DA:272,0
DA:273,0
DA:274,0
DA:277,0
DA:278,0
DA:279,0
DA:280,0
DA:283,0
DA:284,0
DA:285,0
DA:286,0
DA:287,0
DA:288,0
DA:289,0
DA:294,0
DA:295,0
DA:296,0
DA:297,0
DA:299,0
DA:300,0
DA:307,1293
DA:309,1293
DA:312,1293
DA:315,0
DA:318,0
DA:322,0
DA:323,0
DA:326,51125
DA:328,51125
DA:329,51125
DA:332,0
DA:333,0
DA:334,0
DA:336,0
DA:337,0
DA:340,0
DA:341,0
DA:344,0
DA:345,0
DA:346,0
DA:347,0
DA:348,0
DA:349,0
DA:350,0
DA:351,0
DA:352,0
DA:353,0
DA:354,0
DA:356,0
DA:357,0
DA:358,0
DA:359,0
DA:360,0
DA:361,0
DA:362,0
DA:366,0
DA:367,0
DA:368,0
DA:369,0
DA:370,0
DA:371,0
DA:372,0
DA:373,0
DA:374,0
DA:375,0
DA:376,0
DA:378,0
DA:379,0
DA:380,0
DA:381,0
DA:382,0
DA:383,0
DA:384,0
DA:468,667
DA:470,667
DA:471,667
DA:475,667
DA:476,0
DA:479,0
DA:480,0
DA:481,0
DA:483,0
DA:484,0
DA:485,0
DA:487,667
DA:489,71
DA:491,71
DA:494,71
DA:497,0
DA:500,0
DA:504,0
DA:505,0
DA:506,0
DA:509,0
DA:510,0
LF:235
LH:22
end_of_record
TN:
SF:/home/apetrini/dev/src/zen/src/addrman.h
FN:57,_ZN9CAddrInfo15SerializationOpI15CBaseDataStreamISt6vectorIc25zero_after_free_allocatorIcEEE21CSerActionUnserializeEEvRT_T0_ii
FN:57,_ZN9CAddrInfo15SerializationOpI15CBaseDataStreamISt6vectorIc25zero_after_free_allocatorIcEEE19CSerActionSerializeEEvRT_T0_ii
FN:79,_ZN9CAddrInfoC2Ev
FN:282,_ZNK8CAddrMan9SerializeI15CBaseDataStreamISt6vectorIc25zero_after_free_allocatorIcEEEEEvRT_ii
FN:332,_ZN8CAddrMan11UnserializeI15CBaseDataStreamISt6vectorIc25zero_after_free_allocatorIcEEEEEvRT_ii
FN:442,_ZN8CAddrMan5ClearEv
FN:462,_ZN8CAddrManC2Ev
FN:467,_ZN8CAddrManD2Ev
FN:492,_ZN8CAddrMan3AddERK8CAddressRK8CNetAddrl
FN:507,_ZN8CAddrMan3AddERKSt6vectorI8CAddressSaIS1_EERK8CNetAddrl
FN:523,_ZN8CAddrMan4GoodERK8CServicel
FN:534,_ZN8CAddrMan7AttemptERK8CServicel
FN:547,_ZN8CAddrMan6SelectEb
FN:560,_ZN8CAddrMan7GetAddrEv
FN:573,_ZN8CAddrMan9ConnectedERK8CServicel
FNDA:0,_ZN8CAddrMan3AddERK8CAddressRK8CNetAddrl
FNDA:490,_ZN8CAddrManC2Ev
FNDA:51125,_ZN8CAddrMan6SelectEb
FNDA:102250,_ZN9CAddrInfoC2Ev
FNDA:606,_ZN8CAddrMan5ClearEv
FNDA:0,_ZN9CAddrInfo15SerializationOpI15CBaseDataStreamISt6vectorIc25zero_after_free_allocatorIcEEE19CSerActionSerializeEEvRT_T0_ii
FNDA:667,_ZN8CAddrMan4GoodERK8CServicel
FNDA:87,_ZN8CAddrMan3AddERKSt6vectorI8CAddressSaIS1_EERK8CNetAddrl
FNDA:667,_ZN8CAddrMan7GetAddrEv
FNDA:490,_ZNK8CAddrMan9SerializeI15CBaseDataStreamISt6vectorIc25zero_after_free_allocatorIcEEEEEvRT_ii
FNDA:0,_ZN9CAddrInfo15SerializationOpI15CBaseDataStreamISt6vectorIc25zero_after_free_allocatorIcEEE21CSerActionUnserializeEEvRT_T0_ii
FNDA:116,_ZN8CAddrMan11UnserializeI15CBaseDataStreamISt6vectorIc25zero_after_free_allocatorIcEEEEEvRT_ii
FNDA:71,_ZN8CAddrMan9ConnectedERK8CServicel
FNDA:490,_ZN8CAddrManD2Ev
FNDA:1293,_ZN8CAddrMan7AttemptERK8CServicel
FNF:15
FNH:12
DA:54,0
DA:57,0
DA:58,0
DA:59,0
DA:60,0
DA:61,0
DA:62,0
DA:64,102250
DA:66,102250
DA:67,102250
DA:68,102250
DA:69,102250
DA:70,102250
DA:71,102250
DA:74,0
DA:76,0
DA:79,102250
DA:81,102250
DA:82,102250
DA:91,0
DA:93,0
DA:282,490
DA:284,490
DA:286,490
DA:287,490
DA:288,490
DA:289,490
DA:290,490
DA:291,490
DA:293,490
DA:294,490
DA:295,490
DA:296,490
DA:297,490
DA:298,0
DA:299,0
DA:300,0
DA:301,0
DA:302,0
DA:303,0
DA:306,490
DA:307,490
DA:308,0
DA:309,0
DA:310,0
DA:311,0
DA:312,0
DA:315,502250
DA:317,32614400
DA:318,32112640
DA:319,0
DA:321,501760
DA:322,32614400
DA:323,32112640
DA:324,0
DA:325,0
DA:329,980
DA:332,116
DA:334,116
DA:336,116
DA:339,232
DA:341,116
DA:342,116
DA:343,116
DA:344,116
DA:345,116
DA:346,116
DA:347,116
DA:348,116
DA:349,116
DA:352,116
DA:353,0
DA:356,116
DA:357,0
DA:361,116
DA:362,0
DA:363,0
DA:364,0
DA:365,0
DA:366,0
DA:367,0
DA:370,0
DA:371,0
DA:372,0
DA:373,0
DA:374,0
DA:378,116
DA:381,116
DA:382,116
DA:383,0
DA:384,0
DA:385,0
DA:386,0
DA:387,0
DA:388,0
DA:389,0
DA:390,0
DA:391,0
DA:392,0
DA:393,0
DA:394,0
DA:396,0
DA:399,116
DA:402,118900
DA:403,118784
DA:404,118784
DA:405,118784
DA:406,0
DA:407,0
DA:408,0
DA:409,0
DA:410,0
DA:411,0
DA:412,0
DA:413,0
DA:420,116
DA:421,116
DA:422,0
DA:423,0
DA:424,0
DA:425,0
DA:427,116
DA:430,116
DA:431,0
DA:434,116
DA:435,116
DA:442,606
DA:444,606
DA:445,606
DA:446,621150
DA:447,40335360
DA:448,39714816
DA:451,155742
DA:452,10083840
DA:453,9928704
DA:457,606
DA:458,606
DA:459,606
DA:460,606
DA:462,490
DA:463,490
DA:464,490
DA:465,490
DA:467,490
DA:468,490
DA:469,490
DA:470,490
DA:473,103714
DA:475,103714
DA:492,0
DA:494,0
DA:495,0
DA:496,0
DA:497,0
DA:498,0
DA:499,0
DA:500,0
DA:501,0
DA:502,0
DA:503,0
DA:507,87
DA:509,87
DA:510,87
DA:511,87
DA:512,87
DA:513,87
DA:514,0
DA:515,87
DA:516,0
DA:517,87
DA:518,0
DA:519,87
DA:523,667
DA:525,667
DA:526,667
DA:527,667
DA:528,667
DA:529,667
DA:530,667
DA:531,667
DA:534,1293
DA:536,1293
DA:537,1293
DA:538,1293
DA:539,1293
DA:540,1293
DA:541,1293
DA:542,1293
DA:547,51125
DA:549,51125
DA:550,51125
DA:551,51125
DA:552,51125
DA:553,51125
DA:554,51125
DA:555,51125
DA:556,51125
DA:560,667
DA:562,667
DA:563,667
DA:564,667
DA:565,667
DA:566,667
DA:567,0
DA:568,667
DA:569,667
DA:570,0
DA:573,71
DA:575,71
DA:576,71
DA:577,71
DA:578,71
DA:579,71
DA:580,71
DA:581,71
LF:215
LH:135
end_of_record
TN:
SF:/home/apetrini/dev/src/zen/src/alert.cpp
FN:29,_ZN14CUnsignedAlert7SetNullEv
FN:47,_ZNK14CUnsignedAlert8ToStringB5cxx11Ev
FN:86,_ZN6CAlert7SetNullEv
FN:93,_ZNK6CAlert6IsNullEv
FN:98,_ZNK6CAlert7GetHashEv
FN:103,_ZNK6CAlert10IsInEffectEv
FN:108,_ZNK6CAlert7CancelsERKS_
FN:115,_ZNK6CAlert9AppliesToEiRKNSt7__cxx1112basic_stringIcSt11char_traitsIcESaIcEEE
FN:123,_ZNK6CAlert11AppliesToMeEv
FN:128,_ZNK6CAlert7RelayToEP5CNode
FN:149,_ZNK6CAlert14CheckSignatureERKSt6vectorIhSaIhEE
FN:161,_ZN6CAlert14getAlertByHashERK7uint256
FN:173,_ZN6CAlert12ProcessAlertERKSt6vectorIhSaIhEEb
FN:250,_ZN6CAlert6NotifyERKNSt7__cxx1112basic_stringIcSt11char_traitsIcESaIcEEEb
FNDA:25,_ZN6CAlert6NotifyERKNSt7__cxx1112basic_stringIcSt11char_traitsIcESaIcEEEb
FNDA:0,_ZNK6CAlert7RelayToEP5CNode
FNDA:0,_ZNK6CAlert11AppliesToMeEv
FNDA:0,_ZNK6CAlert7CancelsERKS_
FNDA:0,_ZNK6CAlert10IsInEffectEv
FNDA:0,_ZN6CAlert7SetNullEv
FNDA:0,_ZNK6CAlert9AppliesToEiRKNSt7__cxx1112basic_stringIcSt11char_traitsIcESaIcEEE
FNDA:0,_ZNK14CUnsignedAlert8ToStringB5cxx11Ev
FNDA:0,_ZNK6CAlert14CheckSignatureERKSt6vectorIhSaIhEE
FNDA:0,_ZNK6CAlert7GetHashEv
FNDA:0,_ZNK6CAlert6IsNullEv
FNDA:0,_ZN6CAlert14getAlertByHashERK7uint256
FNDA:0,_ZN6CAlert12ProcessAlertERKSt6vectorIhSaIhEEb
FNDA:0,_ZN14CUnsignedAlert7SetNullEv
FNF:14
FNH:1
DA:29,0
DA:31,0
DA:32,0
DA:33,0
DA:34,0
DA:35,0
DA:36,0
DA:37,0
DA:38,0
DA:39,0
DA:40,0
DA:42,0
DA:43,0
DA:44,0
DA:45,0
DA:47,0
DA:49,0
DA:50,0
DA:51,0
DA:52,0
DA:53,0
DA:54,0
DA:55,0
DA:71,0
DA:72,0
DA:73,0
DA:74,0
DA:75,0
DA:77,0
DA:78,0
DA:80,0
DA:81,0
DA:82,0
DA:83,0
DA:84,0
DA:86,0
DA:88,0
DA:89,0
DA:90,0
DA:91,0
DA:93,0
DA:95,0
DA:98,0
DA:100,0
DA:103,0
DA:105,0
DA:108,0
DA:110,0
DA:112,0
DA:115,0
DA:118,0
DA:119,0
DA:120,0
DA:123,0
DA:125,0
DA:128,0
DA:130,0
DA:133,0
DA:136,0
DA:138,0
DA:139,0
DA:140,0
DA:142,0
DA:143,0
DA:149,0
DA:151,0
DA:152,0
DA:153,0
DA:156,0
DA:157,0
DA:158,0
DA:159,0
DA:161,0
DA:163,0
DA:164,0
DA:165,0
DA:166,0
DA:167,0
DA:168,0
DA:169,0
DA:170,0
DA:171,0
DA:173,0
DA:175,0
DA:177,0
DA:187,0
DA:188,0
DA:190,0
DA:191,0
DA:192,0
DA:193,0
DA:194,0
DA:195,0
DA:196,0
DA:197,0
DA:199,0
DA:202,0
DA:203,0
DA:205,0
DA:207,0
DA:208,0
DA:210,0
DA:211,0
DA:212,0
DA:214,0
DA:216,0
DA:217,0
DA:218,0
DA:221,0
DA:225,0
DA:227,0
DA:228,0
DA:230,0
DA:231,0
DA:236,0
DA:238,0
DA:240,0
DA:241,0
DA:243,0
DA:245,0
DA:246,0
DA:250,25
DA:252,50
DA:253,25
DA:258,0
DA:259,0
DA:260,0
DA:261,0
DA:263,0
DA:264,0
DA:266,0
DA:267,25
LF:132
LH:4
end_of_record
TN:
SF:/home/apetrini/dev/src/zen/src/alert.h
FN:52,_ZN14CUnsignedAlert15SerializationOpI15CBaseDataStreamISt6vectorIc25zero_after_free_allocatorIcEEE21CSerActionUnserializeEEvRT_T0_ii
FN:52,_ZN14CUnsignedAlert15SerializationOpI15CBaseDataStreamISt6vectorIc25zero_after_free_allocatorIcEEE19CSerActionSerializeEEvRT_T0_ii
FN:82,_ZN6CAlertC2Ev
FN:90,_ZN6CAlert15SerializationOpI15CBaseDataStreamISt6vectorIc25zero_after_free_allocatorIcEEE21CSerActionUnserializeEEvRT_T0_ii
FN:90,_ZN6CAlert15SerializationOpI15CBaseDataStreamISt6vectorIc25zero_after_free_allocatorIcEEE19CSerActionSerializeEEvRT_T0_ii
FNDA:0,_ZN14CUnsignedAlert15SerializationOpI15CBaseDataStreamISt6vectorIc25zero_after_free_allocatorIcEEE19CSerActionSerializeEEvRT_T0_ii
FNDA:0,_ZN6CAlert15SerializationOpI15CBaseDataStreamISt6vectorIc25zero_after_free_allocatorIcEEE19CSerActionSerializeEEvRT_T0_ii
FNDA:0,_ZN6CAlert15SerializationOpI15CBaseDataStreamISt6vectorIc25zero_after_free_allocatorIcEEE21CSerActionUnserializeEEvRT_T0_ii
FNDA:0,_ZN6CAlertC2Ev
FNDA:0,_ZN14CUnsignedAlert15SerializationOpI15CBaseDataStreamISt6vectorIc25zero_after_free_allocatorIcEEE21CSerActionUnserializeEEvRT_T0_ii
FNF:5
FNH:0
DA:49,0
DA:52,0
DA:53,0
DA:54,0
DA:55,0
DA:56,0
DA:57,0
DA:58,0
DA:59,0
DA:60,0
DA:61,0
DA:62,0
DA:63,0
DA:65,0
DA:66,0
DA:67,0
DA:68,0
DA:82,0
DA:83,0
DA:84,0
DA:85,0
DA:87,0
DA:90,0
DA:91,0
DA:92,0
DA:93,0
LF:26
LH:0
end_of_record
TN:
SF:/home/apetrini/dev/src/zen/src/amount.cpp
FN:12,_ZN8CFeeRateC2ERKlm
FN:20,_ZNK8CFeeRate6GetFeeEm
FN:30,_ZNK8CFeeRate8ToStringB5cxx11Ev
FNDA:181799,_ZN8CFeeRateC2ERKlm
FNDA:221081,_ZNK8CFeeRate6GetFeeEm
FNDA:86914,_ZNK8CFeeRate8ToStringB5cxx11Ev
FNF:3
FNH:3
DA:12,181799
DA:14,181799
DA:15,181799
DA:17,0
DA:18,181799
DA:20,221081
DA:22,221081
DA:24,221081
DA:25,0
DA:27,221081
DA:30,86914
DA:32,86914
LF:12
LH:10
end_of_record
TN:
SF:/home/apetrini/dev/src/zen/src/amount.h
FNF:0
FNH:0
DA:31,227231089
DA:41,980
DA:42,262889
DA:44,627363
DA:47,52774
DA:49,477740
DA:50,0
DA:51,850333
DA:53,52127
LF:9
LH:8
end_of_record
TN:
SF:/home/apetrini/dev/src/zen/src/arith_uint256.cpp
FN:16,_ZN9base_uintILj256EEC2ERKNSt7__cxx1112basic_stringIcSt11char_traitsIcESaIcEEE
FN:22,_ZN9base_uintILj256EElSEj
FN:39,_ZN9base_uintILj256EErSEj
FN:56,_ZN9base_uintILj256EEmLEj
FN:68,_ZN9base_uintILj256EEmLERKS0_
FN:84,_ZN9base_uintILj256EEdVERKS0_
FN:110,_ZNK9base_uintILj256EE9CompareToERKS0_
FN:122,_ZNK9base_uintILj256EE7EqualToEm
FN:136,_ZNK9base_uintILj256EE9getdoubleEv
FN:148,_ZNK9base_uintILj256EE6GetHexB5cxx11Ev
FN:154,_ZN9base_uintILj256EE6SetHexEPKc
FN:160,_ZN9base_uintILj256EE6SetHexERKNSt7__cxx1112basic_stringIcSt11char_traitsIcESaIcEEE
FN:166,_ZNK9base_uintILj256EE8ToStringB5cxx11Ev
FN:172,_ZNK9base_uintILj256EE4bitsEv
FN:204,_ZN13arith_uint25610SetCompactEjPbS0_
FN:224,_ZNK13arith_uint25610GetCompactEb
FN:247,_Z14ArithToUint256RK13arith_uint256
FN:254,_Z14UintToArith256RK7uint256
FNDA:5335903,_ZN9base_uintILj256EElSEj
FNDA:1008,_ZN9base_uintILj256EEmLERKS0_
FNDA:91636457,_ZN9base_uintILj256EErSEj
FNDA:1616007,_ZNK9base_uintILj256EE7EqualToEm
FNDA:368964,_ZNK9base_uintILj256EE6GetHexB5cxx11Ev
FNDA:0,_ZN9base_uintILj256EEC2ERKNSt7__cxx1112basic_stringIcSt11char_traitsIcESaIcEEE
FNDA:1389990,_Z14ArithToUint256RK13arith_uint256
FNDA:4288274,_Z14UintToArith256RK7uint256
FNDA:1826764,_ZNK9base_uintILj256EE4bitsEv
FNDA:182982,_ZN9base_uintILj256EEmLEj
FNDA:742382,_ZNK13arith_uint25610GetCompactEb
FNDA:4755006,_ZN13arith_uint25610SetCompactEjPbS0_
FNDA:0,_ZN9base_uintILj256EE6SetHexEPKc
FNDA:0,_ZN9base_uintILj256EE6SetHexERKNSt7__cxx1112basic_stringIcSt11char_traitsIcESaIcEEE
FNDA:541687,_ZN9base_uintILj256EEdVERKS0_
FNDA:120150,_ZNK9base_uintILj256EE9getdoubleEv
FNDA:364900,_ZNK9base_uintILj256EE8ToStringB5cxx11Ev
FNDA:618182051,_ZNK9base_uintILj256EE9CompareToERKS0_
FNF:18
FNH:15
DA:16,0
DA:18,0
DA:19,0
DA:22,5335903
DA:24,48023127
DA:25,48023127
DA:26,42687224
DA:27,5335903
DA:28,5335903
DA:29,48023127
DA:30,42687224
DA:31,1237467
DA:32,42687224
DA:33,6808666
DA:35,5335903
DA:39,91636457
DA:41,824728113
DA:42,824728113
DA:43,733091656
DA:44,91636457
DA:45,91636457
DA:46,824728113
DA:47,733091656
DA:48,636258525
DA:49,733091656
DA:50,727894982
DA:52,91636457
DA:56,182982
DA:58,182982
DA:59,1646838
DA:60,1463856
DA:61,1463856
DA:62,1463856
DA:64,182982
DA:68,1008
DA:70,1008
DA:71,9072
DA:72,9072
DA:74,44352
DA:75,36288
DA:76,36288
DA:77,36288
DA:80,1008
DA:84,541687
DA:86,541687
DA:87,541687
DA:88,541687
DA:89,541687
DA:90,541687
DA:91,541687
DA:92,0
DA:93,541687
DA:95,541681
DA:96,541681
DA:97,91396540
DA:98,90854859
DA:99,40417243
DA:100,40417243
DA:102,90854859
DA:103,90854859
DA:110,618182051
DA:112,4601332750
DA:113,4598388403
DA:115,4200373458
DA:122,1616007
DA:124,1849065
DA:125,1810222
DA:128,38843
DA:130,38843
DA:131,34175
DA:136,120150
DA:138,120150
DA:139,120150
DA:140,1081350
DA:141,961200
DA:142,961200
DA:144,120150
DA:148,368964
DA:150,368964
DA:154,0
DA:156,0
DA:157,0
DA:160,0
DA:162,0
DA:163,0
DA:166,364900
DA:168,364900
DA:172,1826764
DA:174,4402244
DA:175,4402232
DA:176,14878176
DA:177,14878176
DA:178,1826752
DA:180,0
DA:204,4755006
DA:206,4755006
DA:207,4755006
DA:208,4755006
DA:209,0
DA:210,0
DA:212,47550060
DA:213,4755006
DA:215,4755006
DA:216,3154328
DA:217,4755006
DA:218,3154328
DA:219,1577164
DA:220,1577164
DA:221,4755006
DA:224,742382
DA:226,742382
DA:227,742382
DA:228,742382
DA:229,0
DA:231,742382
DA:232,742382
DA:236,742382
DA:237,0
DA:238,0
DA:240,742382
DA:241,742382
DA:242,742382
DA:243,742382
DA:244,742382
DA:247,1389990
DA:249,1389990
DA:250,12509910
DA:251,11119920
DA:252,1389990
DA:254,4288274
DA:256,4288274
DA:257,38594466
DA:258,34306192
DA:259,4288274
LF:134
LH:118
end_of_record
TN:
SF:/home/apetrini/dev/src/zen/src/arith_uint256.h
FN:69,_ZNK9base_uintILj256EEcoEv
FN:77,_ZNK9base_uintILj256EEngEv
FN:135,_ZN9base_uintILj256EEpLERKS0_
FN:147,_ZN9base_uintILj256EEmIERKS0_
FN:153,_ZN9base_uintILj256EEpLEm
FN:161,_ZN9base_uintILj256EEmIEm
FN:173,_ZN9base_uintILj256EEppEv
FN:190,_ZN9base_uintILj256EEmmEv
FN:210,_ZplRK9base_uintILj256EES2_
FN:211,_ZmiRK9base_uintILj256EES2_
FN:212,_ZmlRK9base_uintILj256EES2_
FN:213,_ZdvRK9base_uintILj256EES2_
FN:214,_ZorRK9base_uintILj256EES2_
FN:215,_ZanRK9base_uintILj256EES2_
FN:216,_ZeoRK9base_uintILj256EES2_
FN:217,_ZrsRK9base_uintILj256EEi
FN:218,_ZlsRK9base_uintILj256EEi
FN:219,_ZmlRK9base_uintILj256EEj
FNDA:40418261,_ZN9base_uintILj256EEppEv
FNDA:359237,_ZdvRK9base_uintILj256EES2_
FNDA:1018,_ZmiRK9base_uintILj256EES2_
FNDA:40418261,_ZN9base_uintILj256EEmIERKS0_
FNDA:1460474,_ZplRK9base_uintILj256EES2_
FNDA:38843,_ZanRK9base_uintILj256EES2_
FNDA:38843,_ZeoRK9base_uintILj256EES2_
FNDA:742382,_ZrsRK9base_uintILj256EEi
FNDA:0,_ZN9base_uintILj256EEmmEv
FNDA:0,_ZlsRK9base_uintILj256EEi
FNDA:172839,_ZNK9base_uintILj256EEcoEv
FNDA:40418261,_ZNK9base_uintILj256EEngEv
FNDA:1008,_ZmlRK9base_uintILj256EES2_
FNDA:0,_ZN9base_uintILj256EEpLEm
FNDA:45056479,_ZN9base_uintILj256EEpLERKS0_
FNDA:532,_ZmlRK9base_uintILj256EEj
FNDA:0,_ZorRK9base_uintILj256EES2_
FNDA:0,_ZN9base_uintILj256EEmIEm
FNF:18
FNH:13
DA:20,0
DA:32,50173238
DA:34,451559142
DA:35,401385904
DA:38,105318146
DA:40,1321014407
DA:41,851991928
DA:44,0
DA:46,46775214
DA:47,41577968
DA:51,6779256
DA:53,6779256
DA:54,6779256
DA:55,47281953
DA:56,40675536
DA:61,0
DA:63,0
DA:64,0
DA:69,172839
DA:71,1555551
DA:72,1555551
DA:73,1382712
DA:74,172839
DA:77,40418261
DA:79,363764349
DA:80,363764349
DA:81,323346088
DA:82,40418261
DA:83,40418261
DA:88,542695
DA:90,542695
DA:91,542695
DA:92,3798865
DA:93,3256170
DA:99,660331
DA:100,310744
DA:106,660331
DA:107,310744
DA:113,0
DA:114,0
DA:118,0
DA:120,0
DA:121,0
DA:125,0
DA:127,0
DA:128,0
DA:135,45056479
DA:137,45056479
DA:138,405508311
DA:140,360451832
DA:141,360451832
DA:142,360451832
DA:144,45056479
DA:147,40418261
DA:149,40418261
DA:150,40418261
DA:153,0
DA:155,0
DA:156,0
DA:157,0
DA:158,0
DA:161,0
DA:163,0
DA:164,0
DA:165,0
DA:166,0
DA:173,40418261
DA:176,40418261
DA:177,176288819
DA:178,135870558
DA:179,40418261
DA:185,40418261
DA:186,40418261
DA:190,0
DA:193,0
DA:194,0
DA:195,0
DA:196,0
DA:202,0
DA:203,0
DA:210,2920948
DA:211,2036
DA:212,2016
DA:213,718474
DA:214,0
DA:215,738017
DA:216,738017
DA:217,1484764
DA:218,0
DA:219,1064
DA:220,0
DA:221,0
DA:222,265361176
DA:223,174794625
DA:224,178026250
DA:225,0
DA:226,1577164
DA:227,38843
DA:245,743390
DA:248,743390
DA:253,1243403
DA:255,55621868
DA:256,5259664
DA:257,51283727
DA:258,0
LF:105
LH:69
end_of_record
TN:
SF:/home/apetrini/dev/src/zen/src/asyncrpcoperation.cpp
FN:30,_ZN17AsyncRPCOperationC2Ev
FN:38,_ZN17AsyncRPCOperationC2ERKS_
FN:46,_ZN17AsyncRPCOperationaSERKS_
FN:59,_ZN17AsyncRPCOperationD0Ev
FN:59,_ZN17AsyncRPCOperationD2Ev
FN:65,_ZN17AsyncRPCOperation6cancelEv
FN:74,_ZN17AsyncRPCOperation21start_execution_clockEv
FN:82,_ZN17AsyncRPCOperation20stop_execution_clockEv
FN:90,_ZN17AsyncRPCOperation4mainEv
FN:120,_ZNK17AsyncRPCOperation8getErrorEv
FN:136,_ZNK17AsyncRPCOperation9getResultEv
FN:152,_ZNK17AsyncRPCOperation9getStatusEv
FN:178,_ZNK17AsyncRPCOperation16getStateAsStringB5cxx11Ev
FNDA:29,_ZN17AsyncRPCOperationD2Ev
FNDA:0,_ZN17AsyncRPCOperationD0Ev
FNDA:20,_ZN17AsyncRPCOperation6cancelEv
FNDA:29,_ZN17AsyncRPCOperation21start_execution_clockEv
FNDA:29,_ZNK17AsyncRPCOperation16getStateAsStringB5cxx11Ev
FNDA:0,_ZN17AsyncRPCOperation4mainEv
FNDA:0,_ZN17AsyncRPCOperationaSERKS_
FNDA:29,_ZN17AsyncRPCOperationC2Ev
FNDA:29,_ZN17AsyncRPCOperation20stop_execution_clockEv
FNDA:2948,_ZNK17AsyncRPCOperation9getStatusEv
FNDA:0,_ZN17AsyncRPCOperationC2ERKS_
FNDA:2948,_ZNK17AsyncRPCOperation8getErrorEv
FNDA:2948,_ZNK17AsyncRPCOperation9getResultEv
FNF:13
FNH:9
DA:30,29
DA:32,29
DA:33,29
DA:34,29
DA:35,29
DA:36,29
DA:38,0
DA:39,0
DA:40,0
DA:41,0
DA:42,0
DA:44,0
DA:46,0
DA:47,0
DA:48,0
DA:49,0
DA:50,0
DA:51,0
DA:52,0
DA:53,0
DA:54,0
DA:55,0
DA:59,29
DA:60,29
DA:65,20
DA:66,20
DA:67,0
DA:69,20
DA:74,29
DA:75,29
DA:76,29
DA:77,29
DA:82,29
DA:83,29
DA:84,29
DA:85,29
DA:90,0
DA:91,0
DA:92,0
DA:95,0
DA:97,0
DA:101,0
DA:111,0
DA:112,0
DA:113,0
DA:114,0
DA:120,2948
DA:121,2948
DA:122,2945
DA:125,3
DA:126,3
DA:127,6
DA:128,6
DA:129,3
DA:130,2951
DA:136,2948
DA:137,2948
DA:138,2932
DA:141,16
DA:142,16
DA:143,2948
DA:152,2948
DA:153,2948
DA:154,2948
DA:155,5896
DA:156,5896
DA:157,5896
DA:159,2948
DA:160,2948
DA:161,6
DA:163,2948
DA:164,2948
DA:165,16
DA:168,16
DA:169,32
DA:172,2948
DA:173,2948
DA:178,29
DA:179,29
DA:180,29
LF:80
LH:53
end_of_record
TN:
SF:/home/apetrini/dev/src/zen/src/asyncrpcoperation.h
FN:79,_ZNK17AsyncRPCOperation15getErrorMessageB5cxx11Ev
FN:131,_ZN17AsyncRPCOperation17set_error_messageENSt7__cxx1112basic_stringIcSt11char_traitsIcESaIcEEE
FN:136,_ZN17AsyncRPCOperation10set_resultE8UniValue
FNDA:3,_ZN17AsyncRPCOperation17set_error_messageENSt7__cxx1112basic_stringIcSt11char_traitsIcESaIcEEE
FNDA:26,_ZN17AsyncRPCOperation10set_resultE8UniValue
FNDA:3,_ZNK17AsyncRPCOperation15getErrorMessageB5cxx11Ev
FNF:3
FNH:3
DA:53,8951
DA:54,3035
DA:57,358
DA:58,358
DA:61,0
DA:62,0
DA:79,3
DA:80,3
DA:81,3
DA:82,3
DA:84,58
DA:85,58
DA:88,0
DA:89,0
DA:92,20
DA:93,20
DA:96,2948
DA:97,2948
DA:100,2948
DA:101,2948
DA:122,62
DA:123,87
DA:124,29
DA:126,3
DA:127,3
DA:128,3
DA:129,3
DA:131,3
DA:132,3
DA:133,6
DA:134,3
DA:136,26
DA:137,26
DA:138,26
DA:139,26
LF:35
LH:31
end_of_record
TN:
SF:/home/apetrini/dev/src/zen/src/asyncrpcqueue.cpp
FN:12,_ZN13AsyncRPCQueue14sharedInstanceEv
FN:18,_ZN13AsyncRPCQueueC2Ev
FN:21,_ZN13AsyncRPCQueueD0Ev
FN:21,_ZN13AsyncRPCQueueD2Ev
FN:28,_ZN13AsyncRPCQueue3runEm
FN:84,_ZN13AsyncRPCQueue12addOperationERKSt10shared_ptrI17AsyncRPCOperationE
FN:101,_ZNK13AsyncRPCQueue17getOperationForIdENSt7__cxx1112basic_stringIcSt11char_traitsIcESaIcEEE
FN:115,_ZN13AsyncRPCQueue17popOperationForIdENSt7__cxx1112basic_stringIcSt11char_traitsIcESaIcEEE
FN:129,_ZNK13AsyncRPCQueue8isClosedEv
FN:136,_ZN13AsyncRPCQueue5closeEv
FN:144,_ZNK13AsyncRPCQueue11isFinishingEv
FN:151,_ZN13AsyncRPCQueue6finishEv
FN:158,_ZN13AsyncRPCQueue19cancelAllOperationsEv
FN:169,_ZNK13AsyncRPCQueue17getOperationCountEv
FN:177,_ZN13AsyncRPCQueue9addWorkerEv
FN:185,_ZNK13AsyncRPCQueue18getNumberOfWorkersEv
FN:193,_ZNK13AsyncRPCQueue18getAllOperationIdsB5cxx11Ev
FN:205,_ZN13AsyncRPCQueue12closeAndWaitEv
FN:213,_ZN13AsyncRPCQueue13finishAndWaitEv
FN:221,_ZN13AsyncRPCQueue23wait_for_worker_threadsEv
FNDA:490,_ZN13AsyncRPCQueueD2Ev
FNDA:2948,_ZNK13AsyncRPCQueue18getAllOperationIdsB5cxx11Ev
FNDA:490,_ZN13AsyncRPCQueue9addWorkerEv
FNDA:0,_ZN13AsyncRPCQueue6finishEv
FNDA:980,_ZN13AsyncRPCQueue5closeEv
FNDA:980,_ZN13AsyncRPCQueue23wait_for_worker_threadsEv
FNDA:980,_ZN13AsyncRPCQueue19cancelAllOperationsEv
FNDA:19,_ZN13AsyncRPCQueue17popOperationForIdENSt7__cxx1112basic_stringIcSt11char_traitsIcESaIcEEE
FNDA:29,_ZN13AsyncRPCQueue12addOperationERKSt10shared_ptrI17AsyncRPCOperationE
FNDA:0,_ZNK13AsyncRPCQueue18getNumberOfWorkersEv
FNDA:980,_ZN13AsyncRPCQueue12closeAndWaitEv
FNDA:0,_ZNK13AsyncRPCQueue17getOperationCountEv
FNDA:1057,_ZNK13AsyncRPCQueue11isFinishingEv
FNDA:0,_ZN13AsyncRPCQueue13finishAndWaitEv
FNDA:1547,_ZNK13AsyncRPCQueue8isClosedEv
FNDA:3957,_ZN13AsyncRPCQueue14sharedInstanceEv
FNDA:2967,_ZNK13AsyncRPCQueue17getOperationForIdENSt7__cxx1112basic_stringIcSt11char_traitsIcESaIcEEE
FNDA:490,_ZN13AsyncRPCQueue3runEm
FNDA:0,_ZN13AsyncRPCQueueD0Ev
FNDA:490,_ZN13AsyncRPCQueueC2Ev
FNF:20
FNH:15
DA:12,3957
DA:14,4447
DA:15,7914
DA:18,490
DA:19,490
DA:21,490
DA:22,490
DA:23,490
DA:28,490
DA:30,519
DA:31,519
DA:32,519
DA:33,519
DA:34,519
DA:35,1028
DA:36,509
DA:40,519
DA:45,519
DA:46,490
DA:47,490
DA:53,29
DA:54,29
DA:57,29
DA:58,29
DA:59,58
DA:61,490
DA:63,29
DA:65,29
DA:68,29
DA:70,519
DA:71,490
DA:84,29
DA:85,29
DA:88,29
DA:89,0
DA:92,29
DA:93,29
DA:94,29
DA:95,29
DA:96,29
DA:101,2967
DA:102,2967
DA:104,2967
DA:105,2967
DA:106,2967
DA:107,2967
DA:109,2967
DA:110,2967
DA:115,19
DA:116,19
DA:117,19
DA:118,19
DA:121,19
DA:122,19
DA:123,19
DA:124,0
DA:129,1547
DA:130,1547
DA:136,980
DA:137,980
DA:138,980
DA:139,980
DA:144,1057
DA:145,1057
DA:151,0
DA:152,0
DA:153,0
DA:158,980
DA:159,980
DA:160,1000
DA:161,20
DA:162,20
DA:163,980
DA:164,980
DA:169,0
DA:170,0
DA:171,0
DA:172,0
DA:177,490
DA:178,490
DA:179,980
DA:180,490
DA:185,0
DA:186,0
DA:187,0
DA:188,0
DA:193,2948
DA:194,2948
DA:195,2948
DA:196,5896
DA:197,2948
DA:199,2948
DA:200,2948
DA:205,980
DA:206,980
DA:207,980
DA:208,980
DA:213,0
DA:214,0
DA:215,0
DA:216,0
DA:221,980
DA:223,980
DA:224,980
DA:225,980
DA:226,980
DA:228,1960
DA:229,980
DA:230,490
DA:233,980
LF:110
LH:93
end_of_record
TN:
SF:/home/apetrini/dev/src/zen/src/base58.cpp
FN:19,_ZN11CBase58DataC2Ev
FN:25,_ZN11CBase58Data7SetDataERKSt6vectorIhSaIhEEPKvm
FN:33,_ZN11CBase58Data7SetDataERKSt6vectorIhSaIhEEPKhS6_
FN:38,_ZN11CBase58Data9SetStringEPKcj
FN:55,_ZN11CBase58Data9SetStringERKNSt7__cxx1112basic_stringIcSt11char_traitsIcESaIcEEEj
FN:60,_ZNK11CBase58Data8ToStringB5cxx11Ev
FN:67,_ZNK11CBase58Data9CompareToERKS_
FN:97,_ZN15CBitcoinAddress3SetERK6CKeyID
FN:105,_ZN15CBitcoinAddress3SetERK9CScriptID
FN:113,_ZN15CBitcoinAddress3SetERKN5boost7variantI14CNoDestinationJ6CKeyID9CScriptIDEEE
FN:118,_ZNK15CBitcoinAddress7IsValidEv
FN:123,_ZNK15CBitcoinAddress7IsValidERK12CChainParams
FN:133,_ZN15CBitcoinAddress9SetStringEPKc
FN:138,_ZN15CBitcoinAddress9SetStringERKNSt7__cxx1112basic_stringIcSt11char_traitsIcESaIcEEE
FN:143,_ZNK15CBitcoinAddress3GetEv
FN:159,_ZNK15CBitcoinAddress11GetIndexKeyER7uint160R11AddressType
FN:182,_ZNK15CBitcoinAddress8GetKeyIDER6CKeyID
FN:192,_ZNK15CBitcoinAddress8IsPubKeyEv
FN:199,_ZNK15CBitcoinAddress8IsScriptEv
FN:206,_ZN14CBitcoinSecret6SetKeyERK4CKey
FN:214,_ZN14CBitcoinSecret6GetKeyEv
FN:222,_ZNK14CBitcoinSecret7IsValidEv
FN:229,_ZN14CBitcoinSecret9SetStringEPKc
FN:234,_ZN14CBitcoinSecret9SetStringERKNSt7__cxx1112basic_stringIcSt11char_traitsIcESaIcEEE
FN:240,_ZN11CZCEncodingIN8libzcash10ViewingKeyELN12CChainParams10Base58TypeE9ELm64EE3SetERKS1_
FN:240,_ZN11CZCEncodingIN8libzcash14PaymentAddressELN12CChainParams10Base58TypeE7ELm64EE3SetERKS1_
FN:240,_ZN11CZCEncodingIN8libzcash11SpendingKeyELN12CChainParams10Base58TypeE8ELm32EE3SetERKS1_
FN:251,_ZNK11CZCEncodingIN8libzcash14PaymentAddressELN12CChainParams10Base58TypeE7ELm64EE3GetEv
FN:251,_ZNK11CZCEncodingIN8libzcash10ViewingKeyELN12CChainParams10Base58TypeE9ELm64EE3GetEv
FN:251,_ZNK11CZCEncodingIN8libzcash11SpendingKeyELN12CChainParams10Base58TypeE8ELm32EE3GetEv
FNDA:688,_ZN14CBitcoinSecret6SetKeyERK4CKey
FNDA:264,_ZNK11CZCEncodingIN8libzcash11SpendingKeyELN12CChainParams10Base58TypeE8ELm32EE3GetEv
FNDA:692,_ZNK14CBitcoinSecret7IsValidEv
FNDA:1978109,_ZN15CBitcoinAddress9SetStringEPKc
FNDA:5802266,_ZNK15CBitcoinAddress7IsValidERK12CChainParams
FNDA:692,_ZN14CBitcoinSecret9SetStringEPKc
FNDA:3574,_ZNK11CBase58Data9CompareToERKS_
FNDA:0,_ZN11CBase58Data9SetStringERKNSt7__cxx1112basic_stringIcSt11char_traitsIcESaIcEEEj
FNDA:2,_ZNK11CZCEncodingIN8libzcash10ViewingKeyELN12CChainParams10Base58TypeE9ELm64EE3GetEv
FNDA:0,_ZN11CBase58Data7SetDataERKSt6vectorIhSaIhEEPKhS6_
FNDA:2019313,_ZN11CBase58DataC2Ev
FNDA:5802266,_ZNK15CBitcoinAddress7IsValidEv
FNDA:529,_ZNK15CBitcoinAddress8IsPubKeyEv
FNDA:33200,_ZN15CBitcoinAddress3SetERK6CKeyID
FNDA:224,_ZN11CZCEncodingIN8libzcash14PaymentAddressELN12CChainParams10Base58TypeE7ELm64EE3SetERKS1_
FNDA:5,_ZN11CZCEncodingIN8libzcash11SpendingKeyELN12CChainParams10Base58TypeE8ELm32EE3SetERKS1_
FNDA:692,_ZN14CBitcoinSecret9SetStringERKNSt7__cxx1112basic_stringIcSt11char_traitsIcESaIcEEE
FNDA:4440,_ZN15CBitcoinAddress3SetERK9CScriptID
FNDA:1929801,_ZNK15CBitcoinAddress8IsScriptEv
FNDA:48383,_ZN15CBitcoinAddress9SetStringERKNSt7__cxx1112basic_stringIcSt11char_traitsIcESaIcEEE
FNDA:203,_ZNK15CBitcoinAddress8GetKeyIDER6CKeyID
FNDA:692,_ZN14CBitcoinSecret6GetKeyEv
FNDA:37663,_ZN15CBitcoinAddress3SetERKN5boost7variantI14CNoDestinationJ6CKeyID9CScriptIDEEE
FNDA:1979332,_ZN11CBase58Data9SetStringEPKcj
FNDA:1933371,_ZNK15CBitcoinAddress3GetEv
FNDA:0,_ZNK15CBitcoinAddress11GetIndexKeyER7uint160R11AddressType
FNDA:37325,_ZNK11CBase58Data8ToStringB5cxx11Ev
FNDA:4,_ZN11CZCEncodingIN8libzcash10ViewingKeyELN12CChainParams10Base58TypeE9ELm64EE3SetERKS1_
FNDA:265,_ZNK11CZCEncodingIN8libzcash14PaymentAddressELN12CChainParams10Base58TypeE7ELm64EE3GetEv
FNDA:38561,_ZN11CBase58Data7SetDataERKSt6vectorIhSaIhEEPKvm
FNF:30
FNH:27
DA:19,2019313
DA:21,2019313
DA:22,2019313
DA:23,2019313
DA:25,38561
DA:27,38561
DA:28,38561
DA:29,38561
DA:30,38561
DA:31,38561
DA:33,0
DA:35,0
DA:36,0
DA:38,1979332
DA:40,1979332
DA:41,1979332
DA:42,1979332
DA:43,39231
DA:44,39231
DA:45,39231
DA:47,1940101
DA:48,1940101
DA:49,1940101
DA:50,1940101
DA:51,1940101
DA:53,1979332
DA:55,0
DA:57,0
DA:60,37325
DA:62,37325
DA:63,37325
DA:64,37325
DA:65,37325
DA:67,3574
DA:69,3574
DA:71,3574
DA:73,3565
DA:75,3006
DA:76,435
DA:88,37663
DA:90,33200
DA:91,4440
DA:97,33200
DA:101,33200
DA:102,33200
DA:105,4440
DA:109,4440
DA:110,4440
DA:113,37663
DA:115,37663
DA:118,5802266
DA:120,5802266
DA:123,5802266
DA:125,5802266
DA:126,5802266
DA:127,5789651
DA:128,5802713
DA:129,443
DA:130,5802266
DA:133,1978109
DA:135,1978109
DA:138,48383
DA:140,48383
DA:143,1933371
DA:145,1933371
DA:146,0
DA:147,1933371
DA:148,1933371
DA:149,1933371
DA:150,1933371
DA:151,3629
DA:152,1929742
DA:153,1929742
DA:154,1929742
DA:156,0
DA:159,0
DA:161,0
DA:165,0
DA:166,0
DA:167,0
DA:168,0
DA:169,0
DA:172,0
DA:173,0
DA:174,0
DA:175,0
DA:176,0
DA:182,203
DA:184,203
DA:186,203
DA:187,203
DA:188,203
DA:189,203
DA:192,529
DA:194,1058
DA:195,529
DA:196,0
DA:199,1929801
DA:201,3859602
DA:202,1929801
DA:203,75
DA:206,688
DA:208,688
DA:209,688
DA:210,688
DA:211,688
DA:212,688
DA:214,692
DA:216,692
DA:217,692
DA:218,692
DA:219,692
DA:220,0
DA:222,692
DA:224,692
DA:225,692
DA:226,692
DA:229,692
DA:231,692
DA:234,692
DA:236,692
DA:240,233
DA:242,233
DA:243,233
DA:244,233
DA:245,233
DA:246,233
DA:247,233
DA:248,233
DA:251,531
DA:253,531
DA:254,0
DA:255,0
DA:259,531
DA:260,466
DA:261,233
DA:265,298
DA:267,298
DA:268,298
DA:269,298
DA:270,298
DA:271,298
LF:142
LH:119
end_of_record
TN:
SF:/home/apetrini/dev/src/zen/src/base58.h
FN:113,_ZNK17CZCPaymentAddress11PrependNameERKNSt7__cxx1112basic_stringIcSt11char_traitsIcESaIcEEE
FN:118,_ZN17CZCPaymentAddressC2ERKNSt7__cxx1112basic_stringIcSt11char_traitsIcESaIcEEE
FN:119,_ZN17CZCPaymentAddressC2ERKN8libzcash14PaymentAddressE
FN:124,_ZNK13CZCViewingKey11PrependNameERKNSt7__cxx1112basic_stringIcSt11char_traitsIcESaIcEEE
FN:129,_ZN13CZCViewingKeyC2ERKNSt7__cxx1112basic_stringIcSt11char_traitsIcESaIcEEE
FN:130,_ZN13CZCViewingKeyC2ERKN8libzcash10ViewingKeyE
FN:135,_ZNK14CZCSpendingKey11PrependNameERKNSt7__cxx1112basic_stringIcSt11char_traitsIcESaIcEEE
FN:140,_ZN14CZCSpendingKeyC2ERKNSt7__cxx1112basic_stringIcSt11char_traitsIcESaIcEEE
FN:141,_ZN14CZCSpendingKeyC2ERKN8libzcash11SpendingKeyE
FN:161,_ZN15CBitcoinAddressC2ERKN5boost7variantI14CNoDestinationJ6CKeyID9CScriptIDEEE
FN:162,_ZN15CBitcoinAddressC2ERKNSt7__cxx1112basic_stringIcSt11char_traitsIcESaIcEEE
FN:163,_ZN15CBitcoinAddressC2EPKc
FN:184,_ZN14CBitcoinSecretC2ERK4CKey
FN:191,_ZN18CBitcoinExtKeyBaseI10CExtPubKeyLi74ELN12CChainParams10Base58TypeE5EE6SetKeyERKS0_
FN:191,_ZN18CBitcoinExtKeyBaseI7CExtKeyLi74ELN12CChainParams10Base58TypeE6EE6SetKeyERKS0_
FN:197,_ZN18CBitcoinExtKeyBaseI10CExtPubKeyLi74ELN12CChainParams10Base58TypeE5EE6GetKeyEv
FN:197,_ZN18CBitcoinExtKeyBaseI7CExtKeyLi74ELN12CChainParams10Base58TypeE6EE6GetKeyEv
FN:210,_ZN18CBitcoinExtKeyBaseI10CExtPubKeyLi74ELN12CChainParams10Base58TypeE5EEC2ERKNSt7__cxx1112basic_stringIcSt11char_traitsIcESaIcEEE
FN:210,_ZN18CBitcoinExtKeyBaseI7CExtKeyLi74ELN12CChainParams10Base58TypeE6EEC2ERKNSt7__cxx1112basic_stringIcSt11char_traitsIcESaIcEEE
FNDA:224,_ZN17CZCPaymentAddressC2ERKN8libzcash14PaymentAddressE
FNDA:2,_ZN13CZCViewingKeyC2ERKNSt7__cxx1112basic_stringIcSt11char_traitsIcESaIcEEE
FNDA:0,_ZNK17CZCPaymentAddress11PrependNameERKNSt7__cxx1112basic_stringIcSt11char_traitsIcESaIcEEE
FNDA:0,_ZN18CBitcoinExtKeyBaseI10CExtPubKeyLi74ELN12CChainParams10Base58TypeE5EEC2ERKNSt7__cxx1112basic_stringIcSt11char_traitsIcESaIcEEE
FNDA:688,_ZN14CBitcoinSecretC2ERK4CKey
FNDA:233,_ZNK14CZCSpendingKey11PrependNameERKNSt7__cxx1112basic_stringIcSt11char_traitsIcESaIcEEE
FNDA:0,_ZN18CBitcoinExtKeyBaseI7CExtKeyLi74ELN12CChainParams10Base58TypeE6EEC2ERKNSt7__cxx1112basic_stringIcSt11char_traitsIcESaIcEEE
FNDA:265,_ZN17CZCPaymentAddressC2ERKNSt7__cxx1112basic_stringIcSt11char_traitsIcESaIcEEE
FNDA:5,_ZN14CZCSpendingKeyC2ERKN8libzcash11SpendingKeyE
FNDA:0,_ZNK13CZCViewingKey11PrependNameERKNSt7__cxx1112basic_stringIcSt11char_traitsIcESaIcEEE
FNDA:0,_ZN18CBitcoinExtKeyBaseI10CExtPubKeyLi74ELN12CChainParams10Base58TypeE5EE6GetKeyEv
FNDA:4,_ZN13CZCViewingKeyC2ERKN8libzcash10ViewingKeyE
FNDA:1929726,_ZN15CBitcoinAddressC2EPKc
FNDA:264,_ZN14CZCSpendingKeyC2ERKNSt7__cxx1112basic_stringIcSt11char_traitsIcESaIcEEE
FNDA:0,_ZN18CBitcoinExtKeyBaseI10CExtPubKeyLi74ELN12CChainParams10Base58TypeE5EE6SetKeyERKS0_
FNDA:9164,_ZN15CBitcoinAddressC2ERKNSt7__cxx1112basic_stringIcSt11char_traitsIcESaIcEEE
FNDA:0,_ZN18CBitcoinExtKeyBaseI7CExtKeyLi74ELN12CChainParams10Base58TypeE6EE6SetKeyERKS0_
FNDA:37097,_ZN15CBitcoinAddressC2ERKN5boost7variantI14CNoDestinationJ6CKeyID9CScriptIDEEE
FNDA:0,_ZN18CBitcoinExtKeyBaseI7CExtKeyLi74ELN12CChainParams10Base58TypeE6EE6GetKeyEv
FNF:19
FNH:11
DA:73,2020098
DA:93,697
DA:96,2877
DA:101,764
DA:111,489
DA:113,0
DA:116,0
DA:118,265
DA:119,224
DA:122,6
DA:124,0
DA:129,2
DA:130,4
DA:133,269
DA:135,233
DA:140,264
DA:141,5
DA:150,4037901
DA:160,41119
DA:161,37097
DA:162,9164
DA:163,1929726
DA:175,2760
DA:184,688
DA:185,692
DA:188,0
DA:191,0
DA:193,0
DA:194,0
DA:195,0
DA:197,0
DA:198,0
DA:199,0
DA:201,0
DA:203,0
DA:204,0
DA:210,0
DA:211,0
DA:212,0
DA:214,0
LF:40
LH:22
end_of_record
TN:
SF:/home/apetrini/dev/src/zen/src/base58_codec.cpp
FN:18,_Z12DecodeBase58PKcRSt6vectorIhSaIhEE
FN:64,_Z12EncodeBase58B5cxx11PKhS0_
FN:99,_Z12EncodeBase58B5cxx11RKSt6vectorIhSaIhEE
FN:104,_Z12DecodeBase58RKNSt7__cxx1112basic_stringIcSt11char_traitsIcESaIcEEERSt6vectorIhSaIhEE
FN:109,_Z17EncodeBase58CheckB5cxx11RKSt6vectorIhSaIhEE
FN:118,_Z17DecodeBase58CheckPKcRSt6vectorIhSaIhEE
FN:135,_Z17DecodeBase58CheckRKNSt7__cxx1112basic_stringIcSt11char_traitsIcESaIcEEERSt6vectorIhSaIhEE
FNDA:0,_Z12DecodeBase58RKNSt7__cxx1112basic_stringIcSt11char_traitsIcESaIcEEERSt6vectorIhSaIhEE
FNDA:1979552,_Z12DecodeBase58PKcRSt6vectorIhSaIhEE
FNDA:37325,_Z12EncodeBase58B5cxx11RKSt6vectorIhSaIhEE
FNDA:0,_Z17DecodeBase58CheckRKNSt7__cxx1112basic_stringIcSt11char_traitsIcESaIcEEERSt6vectorIhSaIhEE
FNDA:1979332,_Z17DecodeBase58CheckPKcRSt6vectorIhSaIhEE
FNDA:37325,_Z12EncodeBase58B5cxx11PKhS0_
FNDA:37325,_Z17EncodeBase58CheckB5cxx11RKSt6vectorIhSaIhEE
FNF:7
FNH:5
DA:18,1979552
DA:21,1979552
DA:22,0
DA:25,1979553
DA:26,1
DA:27,1
DA:30,1979552
DA:32,69934941
DA:34,67955404
DA:35,67955404
DA:38,67955389
DA:39,1837385990
DA:40,1769430601
DA:41,1769430601
DA:42,1769430601
DA:44,67955389
DA:45,67955389
DA:48,1979537
DA:49,0
DA:50,1979537
DA:53,1979537
DA:54,3960033
DA:55,2019712
DA:57,1979537
DA:58,1979537
DA:59,52459815
DA:60,50480278
DA:62,1979552
DA:64,37325
DA:67,37325
DA:68,37325
DA:69,0
DA:70,0
DA:73,37325
DA:75,1026127
DA:76,988802
DA:78,38007440
DA:79,37018638
DA:80,37018638
DA:81,37018638
DA:83,988802
DA:84,988802
DA:87,37325
DA:88,112199
DA:89,74874
DA:91,37325
DA:92,37325
DA:93,37325
DA:94,1369169
DA:95,1369169
DA:96,37325
DA:97,37325
DA:99,37325
DA:101,37325
DA:104,0
DA:106,0
DA:109,37325
DA:112,37325
DA:113,37325
DA:114,37325
DA:115,37325
DA:116,37325
DA:118,1979332
DA:120,1979332
DA:121,1979317
DA:122,39231
DA:123,39231
DA:126,1940101
DA:127,1940101
DA:128,0
DA:129,0
DA:131,1940101
DA:135,0
DA:137,0
LF:74
LH:64
end_of_record
TN:
SF:/home/apetrini/dev/src/zen/src/bitcoin-cli.cpp
FN:26,_Z14HelpMessageCliB5cxx11v
FN:65,_ZL10AppInitRPCiPPc
FN:121,_Z16http_errorstringi
FN:143,_ZL17http_request_doneP14evhttp_requestPv
FN:169,_ZL13http_error_cb20evhttp_request_errorPv
FN:176,_Z7CallRPCRKNSt7__cxx1112basic_stringIcSt11char_traitsIcESaIcEEERK8UniValue
FN:251,_Z14CommandLineRPCiPPc
FN:335,main
FNDA:491,main
FNDA:2041,_Z7CallRPCRKNSt7__cxx1112basic_stringIcSt11char_traitsIcESaIcEEERK8UniValue
FNDA:1491,_Z16http_errorstringi
FNDA:491,_ZL10AppInitRPCiPPc
FNDA:0,_ZL13http_error_cb20evhttp_request_errorPv
FNDA:2041,_ZL17http_request_doneP14evhttp_requestPv
FNDA:0,_Z14HelpMessageCliB5cxx11v
FNDA:491,_Z14CommandLineRPCiPPc
FNF:8
FNH:6
DA:26,0
DA:28,0
DA:29,0
DA:30,0
DA:31,0
DA:32,0
DA:33,0
DA:34,0
DA:35,0
DA:36,0
DA:37,0
DA:38,0
DA:39,0
DA:40,0
DA:41,0
DA:43,0
DA:44,0
DA:59,1550
DA:60,1550
DA:65,491
DA:70,491
DA:71,4419
DA:72,0
DA:73,0
DA:74,0
DA:75,0
DA:76,0
DA:77,0
DA:79,0
DA:81,0
DA:84,0
DA:85,0
DA:86,0
DA:87,491
DA:88,0
DA:89,0
DA:91,491
DA:92,491
DA:93,0
DA:94,0
DA:95,0
DA:96,0
DA:98,491
DA:99,0
DA:100,0
DA:102,491
DA:104,0
DA:105,0
DA:112,1491
DA:114,2041
DA:121,1491
DA:123,1491
DA:127,0
DA:128,0
DA:129,0
DA:130,0
DA:131,0
DA:132,0
DA:133,0
DA:134,0
DA:135,0
DA:136,0
DA:138,1491
DA:139,1491
DA:143,2041
DA:145,2041
DA:147,2041
DA:151,0
DA:152,0
DA:155,2041
DA:157,2041
DA:158,2041
DA:160,2041
DA:161,2041
DA:162,2041
DA:163,550
DA:164,2041
DA:169,0
DA:171,0
DA:172,0
DA:173,0
DA:176,2041
DA:178,4082
DA:179,3532
DA:182,2041
DA:185,3532
DA:186,3532
DA:188,2041
DA:189,2041
DA:190,2041
DA:191,0
DA:193,2041
DA:197,2041
DA:198,2041
DA:200,0
DA:201,0
DA:202,0
DA:204,0
DA:208,2041
DA:211,2041
DA:212,2041
DA:213,2041
DA:214,2041
DA:215,4082
DA:218,3532
DA:219,2041
DA:220,2041
DA:221,2041
DA:223,2041
DA:224,2041
DA:225,2041
DA:226,0
DA:229,2041
DA:231,2041
DA:232,2982
DA:233,550
DA:234,0
DA:235,550
DA:236,0
DA:237,550
DA:238,0
DA:241,2041
DA:242,550
DA:243,0
DA:244,550
DA:245,550
DA:246,0
DA:248,550
DA:249,10596
DA:251,491
DA:253,491
DA:254,491
DA:255,491
DA:257,1483
DA:258,992
DA:259,992
DA:263,491
DA:264,0
DA:265,491
DA:268,491
DA:269,491
DA:272,491
DA:273,2041
DA:274,2041
DA:275,2041
DA:278,550
DA:279,550
DA:281,550
DA:283,59
DA:284,59
DA:285,118
DA:286,0
DA:287,0
DA:288,0
DA:290,0
DA:291,0
DA:292,0
DA:294,0
DA:295,0
DA:296,0
DA:299,491
DA:300,0
DA:301,491
DA:302,0
DA:304,491
DA:307,491
DA:308,550
DA:309,1550
DA:310,1550
DA:311,1550
DA:313,0
DA:314,1550
DA:316,491
DA:317,0
DA:318,0
DA:319,0
DA:320,0
DA:321,0
DA:322,0
DA:323,0
DA:324,0
DA:325,0
DA:326,0
DA:327,0
DA:329,491
DA:330,491
DA:332,491
DA:333,491
DA:335,491
DA:337,491
DA:338,491
DA:339,0
DA:340,0
DA:343,491
DA:344,491
DA:347,0
DA:348,0
DA:349,0
DA:350,0
DA:351,0
DA:352,0
DA:353,0
DA:355,491
DA:356,491
DA:357,491
DA:359,0
DA:360,0
DA:361,0
DA:362,0
DA:363,0
LF:210
LH:107
end_of_record
TN:
SF:/home/apetrini/dev/src/zen/src/bitcoin-tx.cpp
FN:29,_ZL12AppInitRawTxiPPc
FN:90,_ZL15RegisterSetJsonRKNSt7__cxx1112basic_stringIcSt11char_traitsIcESaIcEEES6_
FN:101,_ZL11RegisterSetRKNSt7__cxx1112basic_stringIcSt11char_traitsIcESaIcEEE
FN:116,_ZL12RegisterLoadRKNSt7__cxx1112basic_stringIcSt11char_traitsIcESaIcEEE
FN:157,_ZL15MutateTxVersionR19CMutableTransactionRKNSt7__cxx1112basic_stringIcSt11char_traitsIcESaIcEEE
FN:167,_ZL16MutateTxLocktimeR19CMutableTransactionRKNSt7__cxx1112basic_stringIcSt11char_traitsIcESaIcEEE
FN:176,_ZL16MutateTxAddInputR19CMutableTransactionRKNSt7__cxx1112basic_stringIcSt11char_traitsIcESaIcEEE
FN:205,_ZL18MutateTxAddOutAddrR19CMutableTransactionRKNSt7__cxx1112basic_stringIcSt11char_traitsIcESaIcEEE
FN:233,_ZL20MutateTxAddOutScriptR19CMutableTransactionRKNSt7__cxx1112basic_stringIcSt11char_traitsIcESaIcEEE
FN:255,_ZL16MutateTxDelInputR19CMutableTransactionRKNSt7__cxx1112basic_stringIcSt11char_traitsIcESaIcEEE
FN:268,_ZL17MutateTxDelOutputR19CMutableTransactionRKNSt7__cxx1112basic_stringIcSt11char_traitsIcESaIcEEE
FN:294,_ZL16findSighashFlagsRiRKNSt7__cxx1112basic_stringIcSt11char_traitsIcESaIcEEE
FN:308,_Z11ParseHashUORSt3mapINSt7__cxx1112basic_stringIcSt11char_traitsIcESaIcEEE8UniValueSt4lessIS5_ESaISt4pairIKS5_S6_EEES5_
FN:315,_Z10ParseHexUORSt3mapINSt7__cxx1112basic_stringIcSt11char_traitsIcESaIcEEE8UniValueSt4lessIS5_ESaISt4pairIKS5_S6_EEES5_
FN:324,_ZL12MutateTxSignR19CMutableTransactionRKNSt7__cxx1112basic_stringIcSt11char_traitsIcESaIcEEE
FN:487,_ZN13Secp256k1InitC2Ev
FN:496,_ZL8MutateTxR19CMutableTransactionRKNSt7__cxx1112basic_stringIcSt11char_traitsIcESaIcEEES8_
FN:533,_ZL12OutputTxJSONRK12CTransaction
FN:542,_ZL12OutputTxHashRK12CTransaction
FN:549,_ZL11OutputTxHexRK12CTransaction
FN:556,_ZL8OutputTxRK12CTransaction
FN:566,_ZL9readStdinv
FN:586,_ZL16CommandLineRawTxiPPc
FN:655,main
FNDA:0,_ZL16MutateTxDelInputR19CMutableTransactionRKNSt7__cxx1112basic_stringIcSt11char_traitsIcESaIcEEE
FNDA:0,_Z10ParseHexUORSt3mapINSt7__cxx1112basic_stringIcSt11char_traitsIcESaIcEEE8UniValueSt4lessIS5_ESaISt4pairIKS5_S6_EEES5_
FNDA:0,_ZL18MutateTxAddOutAddrR19CMutableTransactionRKNSt7__cxx1112basic_stringIcSt11char_traitsIcESaIcEEE
FNDA:0,_ZL11RegisterSetRKNSt7__cxx1112basic_stringIcSt11char_traitsIcESaIcEEE
FNDA:0,_Z11ParseHashUORSt3mapINSt7__cxx1112basic_stringIcSt11char_traitsIcESaIcEEE8UniValueSt4lessIS5_ESaISt4pairIKS5_S6_EEES5_
FNDA:0,_ZL12AppInitRawTxiPPc
FNDA:0,_ZL8MutateTxR19CMutableTransactionRKNSt7__cxx1112basic_stringIcSt11char_traitsIcESaIcEEES8_
FNDA:0,_ZL16MutateTxAddInputR19CMutableTransactionRKNSt7__cxx1112basic_stringIcSt11char_traitsIcESaIcEEE
FNDA:0,_ZL8OutputTxRK12CTransaction
FNDA:0,_ZL15RegisterSetJsonRKNSt7__cxx1112basic_stringIcSt11char_traitsIcESaIcEEES6_
FNDA:0,_ZL16MutateTxLocktimeR19CMutableTransactionRKNSt7__cxx1112basic_stringIcSt11char_traitsIcESaIcEEE
FNDA:0,_ZN13Secp256k1InitC2Ev
FNDA:0,_ZL17MutateTxDelOutputR19CMutableTransactionRKNSt7__cxx1112basic_stringIcSt11char_traitsIcESaIcEEE
FNDA:0,_ZL12MutateTxSignR19CMutableTransactionRKNSt7__cxx1112basic_stringIcSt11char_traitsIcESaIcEEE
FNDA:0,_ZL15MutateTxVersionR19CMutableTransactionRKNSt7__cxx1112basic_stringIcSt11char_traitsIcESaIcEEE
FNDA:0,_ZL16CommandLineRawTxiPPc
FNDA:0,main
FNDA:0,_ZL12OutputTxHashRK12CTransaction
FNDA:0,_ZL9readStdinv
FNDA:0,_ZL20MutateTxAddOutScriptR19CMutableTransactionRKNSt7__cxx1112basic_stringIcSt11char_traitsIcESaIcEEE
FNDA:0,_ZL11OutputTxHexRK12CTransaction
FNDA:0,_ZL12RegisterLoadRKNSt7__cxx1112basic_stringIcSt11char_traitsIcESaIcEEE
FNDA:0,_ZL16findSighashFlagsRiRKNSt7__cxx1112basic_stringIcSt11char_traitsIcESaIcEEE
FNDA:0,_ZL12OutputTxJSONRK12CTransaction
FNF:24
FNH:0
DA:29,0
DA:34,0
DA:37,0
DA:38,0
DA:39,0
DA:42,0
DA:44,0
DA:47,0
DA:48,0
DA:49,0
DA:50,0
DA:51,0
DA:53,0
DA:55,0
DA:56,0
DA:57,0
DA:58,0
DA:59,0
DA:60,0
DA:61,0
DA:63,0
DA:65,0
DA:66,0
DA:67,0
DA:68,0
DA:69,0
DA:70,0
DA:71,0
DA:72,0
DA:73,0
DA:74,0
DA:75,0
DA:76,0
DA:77,0
DA:78,0
DA:80,0
DA:81,0
DA:82,0
DA:83,0
DA:85,0
DA:86,0
DA:90,0
DA:92,0
DA:93,0
DA:94,0
DA:95,0
DA:96,0
DA:98,0
DA:99,0
DA:101,0
DA:104,0
DA:105,0
DA:106,0
DA:107,0
DA:108,0
DA:110,0
DA:111,0
DA:113,0
DA:114,0
DA:116,0
DA:119,0
DA:120,0
DA:121,0
DA:122,0
DA:123,0
DA:125,0
DA:126,0
DA:128,0
DA:129,0
DA:130,0
DA:131,0
DA:132,0
DA:135,0
DA:136,0
DA:137,0
DA:138,0
DA:139,0
DA:142,0
DA:145,0
DA:146,0
DA:148,0
DA:149,0
DA:150,0
DA:151,0
DA:154,0
DA:155,0
DA:157,0
DA:159,0
DA:161,0
DA:162,0
DA:164,0
DA:165,0
DA:167,0
DA:169,0
DA:170,0
DA:171,0
DA:173,0
DA:174,0
DA:176,0
DA:179,0
DA:180,0
DA:181,0
DA:182,0
DA:183,0
DA:186,0
DA:187,0
DA:188,0
DA:189,0
DA:191,0
DA:192,0
DA:195,0
DA:196,0
DA:197,0
DA:198,0
DA:201,0
DA:202,0
DA:203,0
DA:205,0
DA:208,0
DA:209,0
DA:210,0
DA:211,0
DA:212,0
DA:215,0
DA:216,0
DA:217,0
DA:218,0
DA:221,0
DA:222,0
DA:223,0
DA:224,0
DA:227,0
DA:230,0
DA:231,0
DA:233,0
DA:236,0
DA:237,0
DA:239,0
DA:242,0
DA:243,0
DA:244,0
DA:245,0
DA:248,0
DA:249,0
DA:252,0
DA:253,0
DA:255,0
DA:258,0
DA:259,0
DA:260,0
DA:261,0
DA:262,0
DA:265,0
DA:266,0
DA:268,0
DA:271,0
DA:272,0
DA:273,0
DA:274,0
DA:275,0
DA:278,0
DA:279,0
DA:294,0
DA:296,0
DA:298,0
DA:299,0
DA:300,0
DA:301,0
DA:308,0
DA:310,0
DA:311,0
DA:312,0
DA:315,0
DA:317,0
DA:318,0
DA:319,0
DA:320,0
DA:321,0
DA:324,0
DA:326,0
DA:328,0
DA:329,0
DA:330,0
DA:332,0
DA:333,0
DA:337,0
DA:338,0
DA:339,0
DA:340,0
DA:342,0
DA:343,0
DA:344,0
DA:345,0
DA:346,0
DA:347,0
DA:349,0
DA:350,0
DA:351,0
DA:352,0
DA:353,0
DA:354,0
DA:355,0
DA:357,0
DA:358,0
DA:359,0
DA:362,0
DA:363,0
DA:364,0
DA:365,0
DA:366,0
DA:367,0
DA:368,0
DA:369,0
DA:371,0
DA:372,0
DA:373,0
DA:375,0
DA:377,0
DA:378,0
DA:379,0
DA:381,0
DA:382,0
DA:384,0
DA:385,0
DA:386,0
DA:387,0
DA:388,0
DA:389,0
DA:390,0
DA:391,0
DA:392,0
DA:393,0
DA:394,0
DA:395,0
DA:396,0
DA:400,0
DA:401,0
DA:402,0
DA:403,0
DA:404,0
DA:405,0
DA:406,0
DA:407,0
DA:410,0
DA:412,0
DA:415,0
DA:416,0
DA:417,0
DA:418,0
DA:419,0
DA:420,0
DA:422,0
DA:424,0
DA:426,0
DA:427,0
DA:430,0
DA:431,0
DA:433,0
DA:434,0
DA:474,0
DA:479,0
DA:480,0
DA:487,0
DA:488,0
DA:489,0
DA:490,0
DA:491,0
DA:492,0
DA:496,0
DA:499,0
DA:501,0
DA:502,0
DA:503,0
DA:504,0
DA:506,0
DA:507,0
DA:508,0
DA:509,0
DA:511,0
DA:512,0
DA:513,0
DA:514,0
DA:515,0
DA:516,0
DA:518,0
DA:519,0
DA:520,0
DA:523,0
DA:524,0
DA:526,0
DA:527,0
DA:530,0
DA:531,0
DA:533,0
DA:535,0
DA:536,0
DA:538,0
DA:539,0
DA:540,0
DA:542,0
DA:544,0
DA:546,0
DA:547,0
DA:549,0
DA:551,0
DA:553,0
DA:554,0
DA:556,0
DA:558,0
DA:559,0
DA:560,0
DA:561,0
DA:563,0
DA:564,0
DA:566,0
DA:568,0
DA:569,0
DA:571,0
DA:572,0
DA:573,0
DA:574,0
DA:578,0
DA:579,0
DA:581,0
DA:583,0
DA:584,0
DA:586,0
DA:588,0
DA:589,0
DA:590,0
DA:592,0
DA:593,0
DA:594,0
DA:595,0
DA:598,0
DA:599,0
DA:601,0
DA:603,0
DA:604,0
DA:607,0
DA:608,0
DA:609,0
DA:611,0
DA:612,0
DA:614,0
DA:615,0
DA:618,0
DA:620,0
DA:621,0
DA:622,0
DA:623,0
DA:624,0
DA:625,0
DA:627,0
DA:628,0
DA:631,0
DA:632,0
DA:634,0
DA:635,0
DA:637,0
DA:638,0
DA:639,0
DA:640,0
DA:641,0
DA:642,0
DA:643,0
DA:644,0
DA:645,0
DA:646,0
DA:647,0
DA:649,0
DA:650,0
DA:652,0
DA:653,0
DA:655,0
DA:657,0
DA:659,0
DA:660,0
DA:663,0
DA:664,0
DA:665,0
DA:666,0
DA:667,0
DA:668,0
DA:669,0
DA:671,0
DA:672,0
DA:673,0
DA:675,0
DA:676,0
DA:677,0
DA:678,0
DA:679,0
LF:393
LH:0
end_of_record
TN:
SF:/home/apetrini/dev/src/zen/src/bitcoind.cpp
FN:40,_Z15WaitForShutdownPN5boost12thread_groupE
FN:60,_Z7AppInitiPPc
FN:265,main
FNDA:490,_Z15WaitForShutdownPN5boost12thread_groupE
FNDA:490,_Z7AppInitiPPc
FNDA:490,main
FNF:3
FNH:3
DA:40,490
DA:42,490
DA:44,129892
DA:46,128912
DA:47,128912
DA:49,490
DA:51,490
DA:52,490
DA:54,490
DA:60,490
DA:62,490
DA:63,490
DA:65,490
DA:71,490
DA:74,3920
DA:76,0
DA:78,0
DA:80,0
DA:84,0
DA:85,0
DA:87,0
DA:90,0
DA:91,0
DA:92,0
DA:94,490
DA:96,490
DA:98,0
DA:99,0
DA:101,490
DA:103,490
DA:104,0
DA:105,0
DA:131,0
DA:157,0
DA:159,0
DA:161,0
DA:164,0
DA:166,0
DA:170,0
DA:171,0
DA:173,0
DA:174,0
DA:175,0
DA:176,0
DA:177,0
DA:193,0
DA:194,0
DA:195,0
DA:196,0
DA:197,0
DA:198,0
DA:199,0
DA:201,490
DA:202,0
DA:208,4840
DA:209,4350
DA:210,0
DA:212,490
DA:214,0
DA:215,0
DA:218,490
DA:219,490
DA:221,0
DA:224,0
DA:225,0
DA:227,0
DA:230,0
DA:236,0
DA:237,0
DA:238,0
DA:241,490
DA:243,490
DA:245,0
DA:246,0
DA:247,0
DA:248,0
DA:249,0
DA:251,490
DA:253,0
DA:258,490
DA:260,490
DA:263,490
DA:265,490
DA:267,490
DA:270,490
DA:272,490
LF:86
LH:35
end_of_record
TN:
SF:/home/apetrini/dev/src/zen/src/bloom.cpp
FN:24,_ZN12CBloomFilterC2Ejdjh
FN:45,_ZN12CBloomFilterC2Ejdj
FN:55,_ZNK12CBloomFilter4HashEjRKSt6vectorIhSaIhEE
FN:61,_ZN12CBloomFilter6insertERKSt6vectorIhSaIhEE
FN:74,_ZN12CBloomFilter6insertERK9COutPoint
FN:82,_ZN12CBloomFilter6insertERK7uint256
FN:88,_ZNK12CBloomFilter8containsERKSt6vectorIhSaIhEE
FN:104,_ZNK12CBloomFilter8containsERK9COutPoint
FN:112,_ZNK12CBloomFilter8containsERK7uint256
FN:118,_ZN12CBloomFilter5clearEv
FN:125,_ZN12CBloomFilter5resetEj
FN:131,_ZNK12CBloomFilter23IsWithinSizeConstraintsEv
FN:136,_ZN12CBloomFilter19IsRelevantAndUpdateERK16CTransactionBase
FN:207,_ZN12CBloomFilter15UpdateEmptyFullEv
FN:220,_ZN19CRollingBloomFilterC2Ejd
FN:233,_ZN19CRollingBloomFilter6insertERKSt6vectorIhSaIhEE
FN:247,_ZN19CRollingBloomFilter6insertERK7uint256
FN:253,_ZNK19CRollingBloomFilter8containsERKSt6vectorIhSaIhEE
FN:261,_ZNK19CRollingBloomFilter8containsERK7uint256
FN:267,_ZN19CRollingBloomFilter5resetEv
FNDA:9481,_ZN12CBloomFilter5clearEv
FNDA:0,_ZNK12CBloomFilter8containsERK9COutPoint
FNDA:0,_ZNK12CBloomFilter8containsERK7uint256
FNDA:87003,_ZNK19CRollingBloomFilter8containsERKSt6vectorIhSaIhEE
FNDA:69321,_ZN12CBloomFilter19IsRelevantAndUpdateERK16CTransactionBase
FNDA:0,_ZN12CBloomFilter6insertERK9COutPoint
FNDA:11,_ZN19CRollingBloomFilter6insertERK7uint256
FNDA:0,_ZNK12CBloomFilter23IsWithinSizeConstraintsEv
FNDA:3541,_ZN19CRollingBloomFilterC2Ejd
FNDA:0,_ZN12CBloomFilterC2Ejdjh
FNDA:22,_ZN12CBloomFilter6insertERKSt6vectorIhSaIhEE
FNDA:426,_ZNK12CBloomFilter4HashEjRKSt6vectorIhSaIhEE
FNDA:11,_ZN19CRollingBloomFilter6insertERKSt6vectorIhSaIhEE
FNDA:87003,_ZNK19CRollingBloomFilter8containsERK7uint256
FNDA:87003,_ZNK12CBloomFilter8containsERKSt6vectorIhSaIhEE
FNDA:9470,_ZN12CBloomFilter5resetEj
FNDA:7082,_ZN12CBloomFilterC2Ejdj
FNDA:0,_ZN12CBloomFilter6insertERK7uint256
FNDA:4735,_ZN19CRollingBloomFilter5resetEv
FNDA:0,_ZN12CBloomFilter15UpdateEmptyFullEv
FNF:20
FNH:13
DA:24,0
DA:30,0
DA:36,0
DA:37,0
DA:38,0
DA:39,0
DA:40,0
DA:42,0
DA:45,7082
DA:46,7082
DA:47,7082
DA:48,7082
DA:49,7082
DA:50,7082
DA:51,7082
DA:53,7082
DA:55,426
DA:58,426
DA:61,22
DA:63,22
DA:65,440
DA:67,418
DA:69,418
DA:71,22
DA:74,0
DA:76,0
DA:77,0
DA:78,0
DA:79,0
DA:80,0
DA:82,0
DA:84,0
DA:85,0
DA:86,0
DA:88,87003
DA:90,87003
DA:92,87003
DA:94,8
DA:96,8
DA:98,8
DA:104,0
DA:106,0
DA:107,0
DA:108,0
DA:109,0
DA:110,0
DA:112,0
DA:114,0
DA:115,0
DA:116,0
DA:118,9481
DA:120,9481
DA:121,9481
DA:122,9481
DA:123,9481
DA:125,9470
DA:127,9470
DA:128,9470
DA:129,9470
DA:131,0
DA:133,0
DA:136,69321
DA:138,69321
DA:141,69321
DA:143,0
DA:145,0
DA:146,0
DA:147,0
DA:149,0
DA:151,0
DA:156,0
DA:157,0
DA:158,0
DA:160,0
DA:161,0
DA:163,0
DA:165,0
DA:166,0
DA:167,0
DA:168,0
DA:170,0
DA:171,0
DA:172,0
DA:173,0
DA:174,0
DA:175,0
DA:179,0
DA:181,0
DA:184,0
DA:187,0
DA:188,0
DA:191,0
DA:192,0
DA:193,0
DA:195,0
DA:196,0
DA:198,0
DA:199,0
DA:201,0
DA:207,0
DA:209,0
DA:210,0
DA:211,0
DA:213,0
DA:214,0
DA:216,0
DA:217,0
DA:218,0
DA:220,3541
DA:221,3541
DA:227,3541
DA:228,3541
DA:230,3541
DA:231,3541
DA:233,11
DA:235,11
DA:236,11
DA:237,0
DA:238,0
DA:240,11
DA:241,11
DA:242,11
DA:243,0
DA:245,11
DA:247,11
DA:249,11
DA:250,11
DA:251,11
DA:253,87003
DA:255,87003
DA:256,87003
DA:258,0
DA:261,87003
DA:263,87003
DA:264,87003
DA:265,87003
DA:267,4735
DA:269,4735
DA:270,4735
DA:271,4735
DA:272,4735
DA:273,4735
LF:142
LH:64
end_of_record
TN:
SF:/home/apetrini/dev/src/zen/src/bloom.h
FN:76,_ZN12CBloomFilter15SerializationOpI11CDataStream19CSerActionSerializeEEvRT_T0_ii
FN:76,_ZN12CBloomFilter15SerializationOpI15CBaseDataStreamISt6vectorIc25zero_after_free_allocatorIcEEE21CSerActionUnserializeEEvRT_T0_ii
FNDA:0,_ZN12CBloomFilter15SerializationOpI11CDataStream19CSerActionSerializeEEvRT_T0_ii
FNDA:0,_ZN12CBloomFilter15SerializationOpI15CBaseDataStreamISt6vectorIc25zero_after_free_allocatorIcEEE21CSerActionUnserializeEEvRT_T0_ii
FNF:2
FNH:0
DA:44,3050
DA:71,3050
DA:73,0
DA:76,0
DA:77,0
DA:78,0
DA:79,0
DA:80,0
DA:81,0
DA:116,3541
LF:10
LH:3
end_of_record
TN:
SF:/home/apetrini/dev/src/zen/src/chain.cpp
FN:18,_ZNK6CChain10GetLocatorEPK11CBlockIndex
FN:46,_ZNK6CChain8FindForkEPK11CBlockIndex
FN:58,_ZL13GetSkipHeighti
FN:68,_ZN11CBlockIndex11GetAncestorEi
FN:93,_ZNK11CBlockIndex11GetAncestorEi
FN:98,_ZN11CBlockIndex9BuildSkipEv
FN:104,_ZN16CHistoricalChain9SetHeightEi
FN:112,_ZN16CHistoricalChain6SetTipEP11CBlockIndex
FNDA:170809,_ZN11CBlockIndex9BuildSkipEv
FNDA:1112466,_ZN11CBlockIndex11GetAncestorEi
FNDA:0,_ZN16CHistoricalChain9SetHeightEi
FNDA:0,_ZN16CHistoricalChain6SetTipEP11CBlockIndex
FNDA:74417,_ZNK6CChain10GetLocatorEPK11CBlockIndex
FNDA:112066,_ZNK6CChain8FindForkEPK11CBlockIndex
FNDA:2644197,_ZL13GetSkipHeighti
FNDA:164653,_ZNK11CBlockIndex11GetAncestorEi
FNF:8
FNH:6
DA:18,74417
DA:19,74417
DA:20,74417
DA:21,74417
DA:23,74417
DA:24,471
DA:25,1323001
DA:26,1323001
DA:28,1323001
DA:31,1248584
DA:32,1248584
DA:34,1195531
DA:37,53053
DA:39,1248584
DA:40,543721
DA:43,74417
DA:44,74417
DA:46,112066
DA:47,112066
DA:48,111600
DA:49,236413
DA:50,6296
DA:51,112066
DA:55,2632336
DA:58,2644197
DA:59,2644197
DA:65,2632336
DA:68,1112466
DA:70,1112466
DA:75,2198001
DA:76,1236694
DA:77,1236694
DA:78,1236694
DA:79,1095796
DA:80,264889
DA:86,858145
DA:87,858145
DA:93,164653
DA:95,164653
DA:98,170809
DA:100,170809
DA:101,170809
DA:102,170809
DA:104,0
DA:106,0
DA:107,0
DA:109,0
DA:110,0
DA:112,0
DA:114,0
LF:50
LH:43
end_of_record
TN:
SF:/home/apetrini/dev/src/zen/src/chain.h
FN:51,_ZN13CDiskBlockPos15SerializationOpI13CSizeComputer19CSerActionSerializeEEvRT_T0_ii
FN:51,_ZN13CDiskBlockPos15SerializationOpI15CBaseDataStreamISt6vectorIc25zero_after_free_allocatorIcEEE19CSerActionSerializeEEvRT_T0_ii
FN:51,_ZN13CDiskBlockPos15SerializationOpI15CBaseDataStreamISt6vectorIc25zero_after_free_allocatorIcEEE21CSerActionUnserializeEEvRT_T0_ii
FN:200,_ZN11CBlockIndex7SetNullEv
FN:231,_ZN11CBlockIndexC2Ev
FN:236,_ZN11CBlockIndexC2ERK12CBlockHeader
FN:267,_ZNK11CBlockIndex14GetBlockHeaderEv
FN:294,_ZNK11CBlockIndex17GetMedianTimePastEv
FN:308,_ZNK11CBlockIndex8ToStringB5cxx11Ev
FN:327,_ZN11CBlockIndex13RaiseValidityE11BlockStatus
FN:353,_ZN15CDiskBlockIndexC2Ev
FN:357,_ZN15CDiskBlockIndexC2EPK11CBlockIndex
FN:361,_ZNK15CDiskBlockIndex16GetSerializeSizeEii
FN:364,_ZN15CDiskBlockIndex15SerializationOpI13CSizeComputer19CSerActionSerializeEEvRT_T0_ii
FN:364,_ZN15CDiskBlockIndex15SerializationOpI15CBaseDataStreamISt6vectorIc25zero_after_free_allocatorIcEEE19CSerActionSerializeEEvRT_T0_ii
FN:364,_ZN15CDiskBlockIndex15SerializationOpI15CBaseDataStreamISt6vectorIc25zero_after_free_allocatorIcEEE21CSerActionUnserializeEEvRT_T0_ii
FN:400,_ZNK15CDiskBlockIndex12GetBlockHashEv
FN:438,_ZNK6CChain3TipEv
FN:444,_ZNK6CChainixEi
FN:462,_ZNK6CChain4NextEPK11CBlockIndex
FN:470,_ZNK6CChain6HeightEv
FN:475,_ZN6CChain6SetTipEP11CBlockIndex
FN:505,_ZNK16CHistoricalChainixEi
FN:512,_ZNK16CHistoricalChain6HeightEv
FNDA:268925,_ZN11CBlockIndex7SetNullEv
FNDA:0,_ZNK16CHistoricalChainixEi
FNDA:152145,_ZN11CBlockIndexC2ERK12CBlockHeader
FNDA:112912,_ZN15CDiskBlockIndex15SerializationOpI15CBaseDataStreamISt6vectorIc25zero_after_free_allocatorIcEEE19CSerActionSerializeEEvRT_T0_ii
FNDA:0,_ZNK16CHistoricalChain6HeightEv
FNDA:249143,_ZNK6CChain4NextEPK11CBlockIndex
FNDA:112912,_ZNK15CDiskBlockIndex16GetSerializeSizeEii
FNDA:58390,_ZN15CDiskBlockIndexC2Ev
FNDA:221592662,_ZNK6CChain6HeightEv
FNDA:112637,_ZN6CChain6SetTipEP11CBlockIndex
FNDA:7544,_ZN13CDiskBlockPos15SerializationOpI13CSizeComputer19CSerActionSerializeEEvRT_T0_ii
FNDA:7544,_ZN13CDiskBlockPos15SerializationOpI15CBaseDataStreamISt6vectorIc25zero_after_free_allocatorIcEEE19CSerActionSerializeEEvRT_T0_ii
FNDA:204230,_ZNK11CBlockIndex14GetBlockHeaderEv
FNDA:112912,_ZN15CDiskBlockIndex15SerializationOpI13CSizeComputer19CSerActionSerializeEEvRT_T0_ii
FNDA:112912,_ZN15CDiskBlockIndexC2EPK11CBlockIndex
FNDA:632457,_ZNK11CBlockIndex17GetMedianTimePastEv
FNDA:58390,_ZNK15CDiskBlockIndex12GetBlockHashEv
FNDA:34,_ZN13CDiskBlockPos15SerializationOpI15CBaseDataStreamISt6vectorIc25zero_after_free_allocatorIcEEE21CSerActionUnserializeEEvRT_T0_ii
FNDA:119910475,_ZNK6CChainixEi
FNDA:58390,_ZN15CDiskBlockIndex15SerializationOpI15CBaseDataStreamISt6vectorIc25zero_after_free_allocatorIcEEE21CSerActionUnserializeEEvRT_T0_ii
FNDA:0,_ZNK11CBlockIndex8ToStringB5cxx11Ev
FNDA:116780,_ZN11CBlockIndexC2Ev
FNDA:91452950,_ZNK6CChain3TipEv
FNDA:337007,_ZN11CBlockIndex13RaiseValidityE11BlockStatus
FNF:24
FNH:21
DA:48,15122
DA:51,15122
DA:52,15122
DA:53,15122
DA:54,15122
DA:56,1067034
DA:57,1067034
DA:60,151829
DA:61,151829
DA:62,151829
DA:73,426696
DA:74,492773
DA:76,2
DA:78,2
DA:126,381837
DA:200,268925
DA:202,268925
DA:203,268925
DA:204,268925
DA:205,268925
DA:206,268925
DA:207,268925
DA:208,268925
DA:209,2689250
DA:210,268925
DA:211,268925
DA:212,268925
DA:213,268925
DA:214,268925
DA:215,268925
DA:216,268925
DA:217,268925
DA:218,268925
DA:220,268925
DA:221,268925
DA:222,268925
DA:223,268925
DA:224,268925
DA:225,268925
DA:226,268925
DA:228,268925
DA:229,268925
DA:231,116780
DA:232,233560
DA:233,116780
DA:234,116780
DA:236,152145
DA:237,304290
DA:238,152145
DA:240,152145
DA:241,152145
DA:242,152145
DA:243,152145
DA:244,152145
DA:245,152145
DA:246,152145
DA:247,152145
DA:249,337483
DA:250,337483
DA:251,337483
DA:252,298264
DA:253,298264
DA:255,337483
DA:258,302855
DA:259,302855
DA:260,191251
DA:261,191251
DA:262,79647
DA:264,191251
DA:267,204230
DA:269,204230
DA:270,204230
DA:271,204230
DA:272,204230
DA:273,204230
DA:274,204230
DA:275,204230
DA:276,204230
DA:277,204230
DA:278,204230
DA:279,204230
DA:280,0
DA:282,12657569
DA:284,12541558
DA:287,7305773
DA:289,5249650
DA:294,632457
DA:296,632457
DA:297,632457
DA:298,632457
DA:300,632457
DA:301,7528240
DA:302,6895783
DA:304,632457
DA:305,632457
DA:308,0
DA:310,0
DA:311,0
DA:312,0
DA:313,0
DA:317,994932
DA:319,994932
DA:320,994932
DA:322,994642
DA:327,337007
DA:329,337007
DA:330,337007
DA:332,337007
DA:333,337007
DA:334,337007
DA:348,342604
DA:353,58390
DA:354,58390
DA:355,58390
DA:357,112912
DA:358,112912
DA:359,112912
DA:361,284214
DA:364,284214
DA:365,284214
DA:366,284214
DA:368,284214
DA:369,284214
DA:370,284214
DA:371,284214
DA:372,283380
DA:373,284214
DA:374,283380
DA:375,284214
DA:376,281420
DA:377,284214
DA:380,284214
DA:381,284214
DA:382,284214
DA:383,284214
DA:384,284214
DA:385,284214
DA:386,284214
DA:387,284214
DA:391,284214
DA:392,284214
DA:395,284214
DA:396,46246
DA:398,284214
DA:400,58390
DA:402,58390
DA:403,58390
DA:404,58390
DA:405,58390
DA:406,58390
DA:407,58390
DA:408,58390
DA:409,58390
DA:410,58390
DA:411,58390
DA:412,58390
DA:427,0
DA:433,304770
DA:434,304770
DA:438,91452950
DA:439,91452950
DA:440,91452950
DA:444,119910475
DA:445,119910475
DA:446,1257557
DA:448,118652918
DA:457,19754987
DA:458,19505844
DA:462,249143
DA:463,249143
DA:464,248854
DA:470,267296121
DA:471,45703633
DA:475,113127
DA:476,112637
DA:477,490
DA:478,490
DA:480,112637
DA:481,395575
DA:482,170301
DA:483,170301
DA:494,0
DA:501,0
DA:505,0
DA:506,0
DA:509,0
DA:512,0
DA:513,0
LF:188
LH:174
end_of_record
TN:
SF:/home/apetrini/dev/src/zen/src/chainparams.cpp
FN:37,_ZN11CMainParamsC2Ev
FN:180,_ZN14CTestNetParamsC2Ev
FN:287,_ZN14CRegTestParamsC2Ev
FN:357,_Z6Paramsv
FN:362,_Z6ParamsN16CBaseChainParams7NetworkE
FN:376,_Z12SelectParamsN16CBaseChainParams7NetworkE
FN:387,_Z27SelectParamsFromCommandLinev
FN:400,_ZNK12CChainParams31GetCommunityFundAddressAtHeightB5cxx11EiN3zen4Fork17CommunityFundTypeE
FN:405,_ZNK12CChainParams30GetCommunityFundScriptAtHeightEiN3zen4Fork17CommunityFundTypeE
FNDA:494,_Z6ParamsN16CBaseChainParams7NetworkE
FNDA:490,_ZN14CRegTestParamsC2Ev
FNDA:1929726,_ZNK12CChainParams30GetCommunityFundScriptAtHeightEiN3zen4Fork17CommunityFundTypeE
FNDA:490,_Z27SelectParamsFromCommandLinev
FNDA:980,_ZN14CTestNetParamsC2Ev
FNDA:1929726,_ZNK12CChainParams31GetCommunityFundAddressAtHeightB5cxx11EiN3zen4Fork17CommunityFundTypeE
FNDA:1470,_ZN11CMainParamsC2Ev
FNDA:490,_Z12SelectParamsN16CBaseChainParams7NetworkE
FNDA:40057144,_Z6Paramsv
FNF:9
FNH:9
DA:35,0
DA:37,1470
DA:38,1470
DA:39,1470
DA:40,1470
DA:41,1470
DA:42,1470
DA:43,1470
DA:44,1470
DA:45,1470
DA:46,1470
DA:47,1470
DA:48,4410
DA:49,1470
DA:50,1470
DA:51,1470
DA:57,1470
DA:58,1470
DA:59,1470
DA:60,1470
DA:61,1470
DA:62,1470
DA:64,1470
DA:65,1470
DA:66,1470
DA:67,1470
DA:68,1470
DA:69,1470
DA:79,1470
DA:80,1470
DA:81,1470
DA:82,1470
DA:83,1470
DA:84,1470
DA:85,1470
DA:86,1470
DA:87,1470
DA:88,1470
DA:89,1470
DA:90,1470
DA:91,1470
DA:92,1470
DA:93,1470
DA:94,1470
DA:96,1470
DA:97,1470
DA:98,1470
DA:100,1470
DA:101,1470
DA:102,4410
DA:103,4410
DA:104,4410
DA:105,4410
DA:106,4410
DA:110,1470
DA:111,1470
DA:114,1470
DA:115,1470
DA:117,1470
DA:119,1470
DA:120,1470
DA:122,1470
DA:124,1470
DA:126,1470
DA:128,1470
DA:129,1470
DA:130,1470
DA:131,1470
DA:132,1470
DA:134,1470
DA:135,1470
DA:136,1470
DA:137,1470
DA:138,1470
DA:139,1470
DA:140,1470
DA:142,4410
DA:144,1470
DA:145,1470
DA:146,1470
DA:147,1470
DA:148,1470
DA:149,1470
DA:150,1470
DA:151,1470
DA:152,1470
DA:153,1470
DA:154,1470
DA:155,1470
DA:156,1470
DA:157,1470
DA:158,1470
DA:159,1470
DA:160,1470
DA:161,2940
DA:167,1470
DA:171,1470
DA:178,0
DA:180,980
DA:181,980
DA:182,980
DA:183,980
DA:184,980
DA:185,980
DA:186,980
DA:187,980
DA:188,2940
DA:191,980
DA:192,980
DA:193,980
DA:194,980
DA:195,980
DA:196,980
DA:198,980
DA:200,980
DA:201,980
DA:202,980
DA:203,980
DA:204,980
DA:205,980
DA:207,980
DA:208,980
DA:209,2940
DA:210,2940
DA:211,2940
DA:212,2940
DA:213,2940
DA:217,980
DA:218,980
DA:221,980
DA:222,980
DA:224,980
DA:226,980
DA:227,980
DA:229,980
DA:231,980
DA:233,980
DA:235,980
DA:237,980
DA:238,980
DA:239,980
DA:240,980
DA:241,980
DA:243,980
DA:244,980
DA:245,980
DA:246,980
DA:247,980
DA:248,980
DA:249,980
DA:251,2940
DA:253,980
DA:254,980
DA:255,980
DA:256,980
DA:257,980
DA:258,980
DA:259,980
DA:260,980
DA:261,980
DA:262,980
DA:263,980
DA:264,980
DA:265,980
DA:266,980
DA:267,980
DA:268,980
DA:269,1960
DA:274,980
DA:278,980
DA:287,490
DA:288,490
DA:289,490
DA:290,490
DA:291,490
DA:292,490
DA:293,490
DA:294,490
DA:295,490
DA:296,490
DA:297,1470
DA:298,490
DA:299,490
DA:301,490
DA:302,490
DA:303,490
DA:304,490
DA:306,490
DA:307,490
DA:308,490
DA:309,490
DA:310,490
DA:311,490
DA:312,490
DA:313,490
DA:314,490
DA:315,490
DA:316,490
DA:317,490
DA:318,490
DA:319,490
DA:321,490
DA:323,490
DA:324,490
DA:326,490
DA:327,490
DA:329,490
DA:330,490
DA:331,490
DA:333,490
DA:334,490
DA:335,490
DA:336,490
DA:337,490
DA:338,490
DA:339,490
DA:341,490
DA:343,490
DA:347,490
DA:351,490
DA:357,40057144
DA:358,40057144
DA:359,40057144
DA:362,494
DA:363,494
DA:366,0
DA:367,0
DA:368,494
DA:369,494
DA:370,0
DA:371,0
DA:376,490
DA:377,490
DA:378,490
DA:381,1470
DA:382,11
DA:384,490
DA:385,490
DA:387,490
DA:389,490
DA:390,490
DA:393,490
DA:394,490
DA:400,1929726
DA:401,1929726
DA:405,1929726
DA:406,1929726
DA:408,1929726
DA:409,1929726
DA:410,1929726
DA:411,3859452
DA:412,3859452
DA:413,1929726
DA:414,1929726
LF:254
LH:248
end_of_record
TN:
SF:/home/apetrini/dev/src/zen/src/chainparams.h
FN:23,_ZN12CDNSSeedDataC2ERKNSt7__cxx1112basic_stringIcSt11char_traitsIcESaIcEEES7_
FN:100,_ZN12CChainParamsC2Ev
FNDA:1470,_ZN12CChainParamsC2Ev
FNDA:12250,_ZN12CDNSSeedDataC2ERKNSt7__cxx1112basic_stringIcSt11char_traitsIcESaIcEEES7_
FNF:2
FNH:2
DA:21,34790
DA:23,12250
DA:58,20435698
DA:59,1778994
DA:60,0
DA:61,5413
DA:63,310
DA:65,0
DA:67,980
DA:69,311
DA:70,293
DA:71,339
DA:72,415
DA:73,582
DA:74,217
DA:75,217
DA:76,596
DA:77,44499
DA:78,0
DA:79,714331
DA:80,714331
DA:81,0
DA:83,122565
DA:85,7
DA:87,704406
DA:88,484
DA:89,13564620
DA:90,87
DA:91,579082
DA:96,11
DA:98,4
DA:100,16170
LF:32
LH:28
end_of_record
TN:
SF:/home/apetrini/dev/src/zen/src/chainparamsbase.cpp
FN:31,_ZN18CBaseTestNetParamsC2Ev
FN:45,_ZN18CBaseRegTestParamsC2Ev
FN:58,_ZN19CBaseUnitTestParamsC2Ev
FN:67,_Z10BaseParamsv
FN:73,_Z16SelectBaseParamsN16CBaseChainParams7NetworkE
FN:91,_Z24NetworkIdFromCommandLinev
FN:105,_Z31SelectBaseParamsFromCommandLinev
FN:115,_Z23AreBaseParamsConfiguredv
FNDA:984,_Z24NetworkIdFromCommandLinev
FNDA:981,_ZN18CBaseRegTestParamsC2Ev
FNDA:981,_Z16SelectBaseParamsN16CBaseChainParams7NetworkE
FNDA:0,_Z23AreBaseParamsConfiguredv
FNDA:3021,_Z10BaseParamsv
FNDA:981,_ZN19CBaseUnitTestParamsC2Ev
FNDA:1962,_ZN18CBaseTestNetParamsC2Ev
FNDA:491,_Z31SelectBaseParamsFromCommandLinev
FNF:8
FNH:7
DA:15,0
DA:18,2943
DA:19,2943
DA:20,2943
DA:28,0
DA:31,1962
DA:32,1962
DA:33,1962
DA:34,1962
DA:35,1962
DA:45,981
DA:46,981
DA:47,981
DA:48,981
DA:58,981
DA:59,981
DA:60,981
DA:61,981
DA:67,3021
DA:69,3021
DA:70,3021
DA:73,981
DA:75,981
DA:76,0
DA:77,0
DA:78,0
DA:79,0
DA:80,0
DA:81,0
DA:82,981
DA:83,981
DA:84,981
DA:85,0
DA:86,0
DA:87,981
DA:89,981
DA:91,984
DA:93,984
DA:94,984
DA:96,984
DA:98,984
DA:100,0
DA:101,0
DA:105,491
DA:107,491
DA:108,491
DA:111,491
DA:112,491
DA:115,0
DA:117,0
LF:50
LH:36
end_of_record
TN:
SF:/home/apetrini/dev/src/zen/src/chainparamsbase.h
FNF:0
FNH:0
DA:15,0
DA:26,490
DA:27,2531
DA:30,2943
LF:4
LH:3
end_of_record
TN:
SF:/home/apetrini/dev/src/zen/src/checkpoints.cpp
FN:29,_ZN11Checkpoints25GuessVerificationProgressERKNS_15CCheckpointDataEP11CBlockIndexb
FN:58,_ZN11Checkpoints22GetTotalBlocksEstimateERKNS_15CCheckpointDataE
FN:68,_ZN11Checkpoints17GetLastCheckpointERKNS_15CCheckpointDataE
FNDA:302987,_ZN11Checkpoints17GetLastCheckpointERKNS_15CCheckpointDataE
FNDA:163283,_ZN11Checkpoints22GetTotalBlocksEstimateERKNS_15CCheckpointDataE
FNDA:112982,_ZN11Checkpoints25GuessVerificationProgressERKNS_15CCheckpointDataEP11CBlockIndexb
FNF:3
FNH:3
DA:29,112982
DA:30,112982
DA:33,112982
DA:35,112982
DA:36,112982
DA:37,112982
DA:41,112982
DA:42,0
DA:43,0
DA:44,0
DA:45,0
DA:46,0
DA:48,112982
DA:49,112982
DA:50,112982
DA:51,112982
DA:52,112982
DA:55,112982
DA:58,163283
DA:60,163283
DA:62,163283
DA:65,163283
DA:68,302987
DA:70,302987
DA:72,302987
DA:74,302987
DA:75,302987
DA:76,302987
DA:77,302987
LF:29
LH:24
end_of_record
TN:
SF:/home/apetrini/dev/src/zen/src/checkpoints.h
FNF:0
FNH:0
DA:22,2940
LF:1
LH:1
end_of_record
TN:
SF:/home/apetrini/dev/src/zen/src/checkqueue.h
FN:69,_ZN11CCheckQueueI12CScriptCheckE4LoopEb
FN:131,_ZN11CCheckQueueI12CScriptCheckEC2Ej
FN:146,_ZN11CCheckQueueI12CScriptCheckE3AddERSt6vectorIS0_SaIS0_EE
FN:160,_ZN11CCheckQueueI12CScriptCheckED2Ev
FN:164,_ZN11CCheckQueueI12CScriptCheckE6IsIdleEv
FN:184,_ZN18CCheckQueueControlI12CScriptCheckEC2EP11CCheckQueueIS0_E
FN:193,_ZN18CCheckQueueControlI12CScriptCheckE4WaitEv
FNDA:150848,_ZN18CCheckQueueControlI12CScriptCheckE4WaitEv
FNDA:490,_ZN11CCheckQueueI12CScriptCheckEC2Ej
FNDA:490,_ZN11CCheckQueueI12CScriptCheckED2Ev
FNDA:150848,_ZN11CCheckQueueI12CScriptCheckE6IsIdleEv
FNDA:154278,_ZN11CCheckQueueI12CScriptCheckE4LoopEb
FNDA:150848,_ZN18CCheckQueueControlI12CScriptCheckEC2EP11CCheckQueueIS0_E
FNDA:51711,_ZN11CCheckQueueI12CScriptCheckE3AddERSt6vectorIS0_SaIS0_EE
FNF:7
FNH:7
DA:69,154278
DA:71,154278
DA:72,154278
DA:73,154278
DA:78,490186
DA:80,245093
DA:81,90815
DA:82,90815
DA:83,90815
DA:85,36123
DA:88,154278
DA:91,439630
DA:92,348815
DA:93,150848
DA:94,150848
DA:96,150848
DA:97,150848
DA:99,301696
DA:101,197967
DA:102,197967
DA:103,194537
DA:110,181630
DA:111,90815
DA:112,185396
DA:115,94581
DA:116,94581
DA:119,90815
DA:120,94245
DA:122,374558
DA:123,94581
DA:124,94581
DA:125,245093
DA:127,154278
DA:131,490
DA:134,3430
DA:136,3430
DA:140,150848
DA:142,150848
DA:146,51711
DA:148,51711
DA:149,146292
DA:150,94581
DA:151,94581
DA:153,51711
DA:154,51711
DA:155,19265
DA:156,32446
DA:157,32407
DA:158,51711
DA:160,490
DA:162,490
DA:164,150848
DA:166,150848
DA:167,150848
DA:168,150848
DA:184,150848
DA:187,150848
DA:188,150848
DA:189,150848
DA:191,150848
DA:193,150848
DA:195,150848
DA:197,150848
DA:198,150848
DA:199,150848
DA:202,51711
DA:204,51711
DA:205,51711
DA:208,150848
DA:210,150848
DA:211,2
LF:71
LH:71
end_of_record
TN:
SF:/home/apetrini/dev/src/zen/src/clientversion.cpp
FN:107,_Z13FormatVersionB5cxx11i
FN:119,_Z17FormatFullVersionB5cxx11v
FN:127,_Z16FormatSubVersionRKNSt7__cxx1112basic_stringIcSt11char_traitsIcESaIcEEEiRKSt6vectorIS4_SaIS4_EE
FNDA:980,_Z17FormatFullVersionB5cxx11v
FNDA:1955,_Z16FormatSubVersionRKNSt7__cxx1112basic_stringIcSt11char_traitsIcESaIcEEEiRKSt6vectorIS4_SaIS4_EE
FNDA:2445,_Z13FormatVersionB5cxx11i
FNF:3
FNH:3
DA:107,2445
DA:109,2445
DA:110,0
DA:111,2445
DA:112,0
DA:113,2445
DA:114,2445
DA:116,0
DA:119,980
DA:121,980
DA:127,1955
DA:129,1955
DA:130,1955
DA:131,3910
DA:132,1955
DA:134,0
DA:135,0
DA:136,0
DA:137,0
DA:138,0
DA:140,1955
DA:141,3910
DA:142,1955
LF:23
LH:15
end_of_record
TN:
SF:/home/apetrini/dev/src/zen/src/coincontrol.h
FN:23,_ZN12CCoinControl7SetNullEv
FN:35,_ZNK12CCoinControl10IsSelectedERK7uint256j
FN:56,_ZNK12CCoinControl12ListSelectedERSt6vectorI9COutPointSaIS1_EE
FNDA:109,_ZNK12CCoinControl12ListSelectedERSt6vectorI9COutPointSaIS1_EE
FNDA:56,_ZN12CCoinControl7SetNullEv
FNDA:0,_ZNK12CCoinControl10IsSelectedERK7uint256j
FNF:3
FNH:2
DA:18,56
DA:19,56
DA:20,56
DA:23,56
DA:25,56
DA:26,56
DA:27,56
DA:28,56
DA:30,41261
DA:32,41261
DA:35,0
DA:37,0
DA:38,0
DA:41,9
DA:43,9
DA:44,9
DA:56,109
DA:58,109
DA:59,109
LF:19
LH:16
end_of_record
TN:
SF:/home/apetrini/dev/src/zen/src/coins.cpp
FN:24,_ZNK6CCoins8ToStringB5cxx11Ev
FN:39,_ZN6CCoinsC2Ev
FN:41,_ZN6CCoinsC2ERK12CTransactioni
FN:43,_ZN6CCoinsC2ERK14CScCertificateiib
FN:48,_ZN6CCoins4FromERK12CTransactioni
FN:58,_ZN6CCoins4FromERK14CScCertificateiib
FN:75,_ZN6CCoins5ClearEv
FN:84,_ZN6CCoins7CleanupEv
FN:92,_ZN6CCoins16ClearUnspendableEv
FN:100,_ZN6CCoins4swapERS_
FN:109,_ZeqRK6CCoinsS1_
FN:121,_ZneRK6CCoinsS1_
FN:125,_ZNK6CCoins10IsCoinBaseEv
FN:129,_ZNK6CCoins10IsFromCertEv
FN:136,_ZNK6CCoins14isOutputMatureEji
FN:151,_ZN6CCoins5SpendEj
FN:161,_ZNK6CCoins11IsAvailableEj
FN:165,_ZNK6CCoins8IsPrunedEv
FN:172,_ZNK6CCoins18DynamicMemoryUsageEv
FN:180,_ZNK6CCoins12CalcMaskSizeERjS0_
FN:198,_ZNK10CCoinsView11GetAnchorAtERK7uint256RN8libzcash21IncrementalMerkleTreeILm29ENS3_14SHA256CompressEEE
FN:199,_ZNK10CCoinsView12GetNullifierERK7uint256
FN:200,_ZNK10CCoinsView8GetCoinsERK7uint256R6CCoins
FN:201,_ZNK10CCoinsView9HaveCoinsERK7uint256
FN:202,_ZNK10CCoinsView13HaveSidechainERK7uint256
FN:203,_ZNK10CCoinsView12GetSidechainERK7uint256R10CSidechain
FN:204,_ZNK10CCoinsView19HaveSidechainEventsEi
FN:205,_ZNK10CCoinsView18GetSidechainEventsEiR16CSidechainEvents
FN:206,_ZNK10CCoinsView8GetScIdsERSt3setI7uint256St4lessIS1_ESaIS1_EE
FN:207,_ZNK10CCoinsView12CheckQualityERK14CScCertificate
FN:208,_ZNK10CCoinsView12GetBestBlockEv
FN:209,_ZNK10CCoinsView13GetBestAnchorEv
FN:210,_ZNK10CCoinsView16HaveCswNullifierERK7uint256RK13CFieldElement
FN:213,_ZN10CCoinsView10BatchWriteERN5boost9unordered13unordered_mapI7uint25616CCoinsCacheEntry15CCoinsKeyHasherSt8equal_toIS3_ESaISt4pairIKS3_S4_EEEERS9_SE_RNS2_IS3_18CAnchorsCacheEntryS5_S7_SaIS8_IS9_SF_EEEERNS2_IS3_21CNullifiersCacheEntryS5_S7_SaIS8_IS9_SK_EEEERNS2_IS3_21CSidechainsCacheEntryS5_S7_SaIS8_IS9_SP_EEEERNS2_Ii26CSidechainEventsCacheEntryNS0_4hashIiEES6_IiESaIS8_IKiSU_EEEERNS2_IS8_IS3_13CFieldElementE24CCswNullifiersCacheEntry23CCswNullifiersKeyHasherS6_IS14_ESaIS8_IKS14_S15_EEEE
FN:218,_ZNK10CCoinsView8GetStatsER11CCoinsStats
FN:221,_ZN16CCoinsViewBackedC2EP10CCoinsView
FN:223,_ZNK16CCoinsViewBacked11GetAnchorAtERK7uint256RN8libzcash21IncrementalMerkleTreeILm29ENS3_14SHA256CompressEEE
FN:224,_ZNK16CCoinsViewBacked12GetNullifierERK7uint256
FN:225,_ZNK16CCoinsViewBacked8GetCoinsERK7uint256R6CCoins
FN:226,_ZNK16CCoinsViewBacked9HaveCoinsERK7uint256
FN:227,_ZNK16CCoinsViewBacked13HaveSidechainERK7uint256
FN:228,_ZNK16CCoinsViewBacked12GetSidechainERK7uint256R10CSidechain
FN:229,_ZNK16CCoinsViewBacked19HaveSidechainEventsEi
FN:230,_ZNK16CCoinsViewBacked18GetSidechainEventsEiR16CSidechainEvents
FN:231,_ZNK16CCoinsViewBacked8GetScIdsERSt3setI7uint256St4lessIS1_ESaIS1_EE
FN:232,_ZNK16CCoinsViewBacked12CheckQualityERK14CScCertificate
FN:233,_ZNK16CCoinsViewBacked12GetBestBlockEv
FN:234,_ZNK16CCoinsViewBacked13GetBestAnchorEv
FN:236,_ZNK16CCoinsViewBacked16HaveCswNullifierERK7uint256RK13CFieldElement
FN:239,_ZN16CCoinsViewBacked10SetBackendER10CCoinsView
FN:240,_ZN16CCoinsViewBacked10BatchWriteERN5boost9unordered13unordered_mapI7uint25616CCoinsCacheEntry15CCoinsKeyHasherSt8equal_toIS3_ESaISt4pairIKS3_S4_EEEERS9_SE_RNS2_IS3_18CAnchorsCacheEntryS5_S7_SaIS8_IS9_SF_EEEERNS2_IS3_21CNullifiersCacheEntryS5_S7_SaIS8_IS9_SK_EEEERNS2_IS3_21CSidechainsCacheEntryS5_S7_SaIS8_IS9_SP_EEEERNS2_Ii26CSidechainEventsCacheEntryNS0_4hashIiEES6_IiESaIS8_IKiSU_EEEERNS2_IS8_IS3_13CFieldElementE24CCswNullifiersCacheEntry23CCswNullifiersKeyHasherS6_IS14_ESaIS8_IKS14_S15_EEEE
FN:247,_ZNK16CCoinsViewBacked8GetStatsER11CCoinsStats
FN:249,_ZN15CCoinsKeyHasherC2Ev
FN:250,_ZN23CCswNullifiersKeyHasherC2Ev
FN:252,_ZNK23CCswNullifiersKeyHasherclERKSt4pairI7uint25613CFieldElementE
FN:264,_ZN15CCoinsViewCacheC2EP10CCoinsView
FN:266,_ZN15CCoinsViewCacheD0Ev
FN:266,_ZN15CCoinsViewCacheD2Ev
FN:271,_ZNK15CCoinsViewCache18DynamicMemoryUsageEv
FN:281,_ZNK15CCoinsViewCache10FetchCoinsERK7uint256
FN:299,_ZNK15CCoinsViewCache15FetchSidechainsERK7uint256
FN:317,_ZN15CCoinsViewCache15ModifySidechainERK7uint256
FN:333,_ZNK15CCoinsViewCache15AccessSidechainERK7uint256
FN:341,_ZNK15CCoinsViewCache20FetchSidechainEventsEi
FN:359,_ZN15CCoinsViewCache21ModifySidechainEventsEi
FN:376,_ZNK15CCoinsViewCache11GetAnchorAtERK7uint256RN8libzcash21IncrementalMerkleTreeILm29ENS3_14SHA256CompressEEE
FN:399,_ZNK15CCoinsViewCache12GetNullifierERK7uint256
FN:413,_ZN15CCoinsViewCache10PushAnchorERKN8libzcash21IncrementalMerkleTreeILm29ENS0_14SHA256CompressEEE
FN:440,_ZN15CCoinsViewCache9PopAnchorERK7uint256
FN:465,_ZN15CCoinsViewCache12SetNullifierERK7uint256b
FN:471,_ZNK15CCoinsViewCache8GetCoinsERK7uint256R6CCoins
FN:480,_ZN15CCoinsViewCache11ModifyCoinsERK7uint256
FN:501,_ZNK15CCoinsViewCache11AccessCoinsERK7uint256
FN:510,_ZNK15CCoinsViewCache9HaveCoinsERK7uint256
FN:519,_ZNK15CCoinsViewCache12GetBestBlockEv
FN:526,_ZNK15CCoinsViewCache13GetBestAnchorEv
FN:532,_ZN15CCoinsViewCache12SetBestBlockERK7uint256
FN:536,_ZNK15CCoinsViewCache16HaveCswNullifierERK7uint256RK13CFieldElement
FN:550,_ZN15CCoinsViewCache15AddCswNullifierERK7uint256RK13CFieldElement
FN:559,_ZN15CCoinsViewCache18RemoveCswNullifierERK7uint256RK13CFieldElement
FN:567,_ZN15CCoinsViewCache10WriteCoinsERK7uint256R16CCoinsCacheEntry
FN:609,_ZN15CCoinsViewCache10BatchWriteERN5boost9unordered13unordered_mapI7uint25616CCoinsCacheEntry15CCoinsKeyHasherSt8equal_toIS3_ESaISt4pairIKS3_S4_EEEERS9_SE_RNS2_IS3_18CAnchorsCacheEntryS5_S7_SaIS8_IS9_SF_EEEERNS2_IS3_21CNullifiersCacheEntryS5_S7_SaIS8_IS9_SK_EEEERNS2_IS3_21CSidechainsCacheEntryS5_S7_SaIS8_IS9_SP_EEEERNS2_Ii26CSidechainEventsCacheEntryNS0_4hashIiEES6_IiESaIS8_IKiSU_EEEERNS2_IS8_IS3_13CFieldElementE24CCswNullifiersCacheEntry23CCswNullifiersKeyHasherS6_IS14_ESaIS8_IKS14_S15_EEEE
FN:688,_ZNK15CCoinsViewCache13HaveSidechainERK7uint256
FN:694,_ZNK15CCoinsViewCache12GetSidechainERK7uint256R10CSidechain
FN:707,_ZNK15CCoinsViewCache8GetScIdsERSt3setI7uint256St4lessIS1_ESaIS1_EE
FN:724,_ZNK15CCoinsViewCache12CheckQualityERK14CScCertificate
FN:751,_ZN15CCoinsViewCache22getInitScCoinsMaturityEv
FN:762,_ZN15CCoinsViewCache18getScCoinsMaturityEv
FN:769,_ZN15CCoinsViewCache15UpdateSidechainERK12CTransactionRK6CBlocki
FN:932,_ZN15CCoinsViewCache15RevertTxOutputsERK12CTransactioni
FN:1145,_ZNK15CCoinsViewCache9GetHeightEv
FN:1153,_ZNK15CCoinsViewCache15CheckCertTimingERK7uint256i
FN:1191,_ZNK15CCoinsViewCache23IsCertApplicableToStateERK14CScCertificatePb
FN:1269,_ZNK15CCoinsViewCache32CheckEndEpochCumScTxCommTreeRootERK10CSidechainiRK13CFieldElement
FN:1293,_ZNK15CCoinsViewCache15CheckScTxTimingERK7uint256
FN:1311,_ZNK15CCoinsViewCache19IsFtScFeeApplicableERK21CTxForwardTransferOut
FN:1317,_ZNK15CCoinsViewCache19CheckMinimumFtScFeeERK21CTxForwardTransferOutPl
FN:1343,_ZNK15CCoinsViewCache21IsMbtrScFeeApplicableERK14CBwtRequestOut
FN:1349,_ZNK15CCoinsViewCache21CheckMinimumMbtrScFeeERK14CBwtRequestOutPl
FN:1369,_ZNK15CCoinsViewCache23IsScTxApplicableToStateERK12CTransactionN9Sidechain14ScFeeCheckFlagEPb
FN:1605,_ZN15CCoinsViewCache28HandleTxIndexSidechainEventsEiP12CBlockTreeDBRSt6vectorISt4pairI7uint25613CTxIndexValueESaIS6_EE
FN:1634,_ZN15CCoinsViewCache28RevertTxIndexSidechainEventsEiR10CBlockUndoP12CBlockTreeDBRSt6vectorISt4pairI7uint25613CTxIndexValueESaIS8_EE
FN:1661,_ZN15CCoinsViewCache40HandleMaturityHeightIndexSidechainEventsEiP12CBlockTreeDBRSt6vectorISt4pairI18CMaturityHeightKey20CMaturityHeightValueESaIS6_EE
FN:1687,_ZN15CCoinsViewCache40RevertMaturityHeightIndexSidechainEventsEiR10CBlockUndoP12CBlockTreeDBRSt6vectorISt4pairI18CMaturityHeightKey20CMaturityHeightValueESaIS8_EE
FN:1773,_ZN15CCoinsViewCache15UpdateSidechainERK14CScCertificateR10CBlockUndo
FN:1882,_ZN15CCoinsViewCache24NullifyBackwardTransfersERK7uint256RSt6vectorI9CTxInUndoSaIS4_EE
FN:1917,_ZN15CCoinsViewCache24RestoreBackwardTransfersERK7uint256RKSt6vectorI9CTxInUndoSaIS4_EE
FN:2004,_ZN15CCoinsViewCache16RestoreSidechainERK14CScCertificateRK18CSidechainUndoData
FN:2097,_ZNK15CCoinsViewCache19HaveSidechainEventsEi
FN:2103,_ZNK15CCoinsViewCache18GetSidechainEventsEiR16CSidechainEvents
FN:2114,_ZN15CCoinsViewCache21HandleSidechainEventsEiR10CBlockUndoPSt6vectorI30CScCertificateStatusUpdateInfoSaIS3_EE
FN:2180,_ZN15CCoinsViewCache21RevertSidechainEventsERK10CBlockUndoiPSt6vectorI30CScCertificateStatusUpdateInfoSaIS4_EE
FN:2266,_ZNK15CCoinsViewCache17GetSidechainStateERK7uint256
FN:2282,_ZNK15CCoinsViewCache17GetActiveCertViewERK7uint256
FN:2312,_ZNK15CCoinsViewCache21GetCeasingCumTreeHashERK7uint256
FN:2326,_ZN15CCoinsViewCache5FlushEv
FN:2338,_ZN15CCoinsViewCache23DecrementImmatureAmountERK7uint256RKN5boost9unordered15iterator_detail8iteratorINS4_6detail8ptr_nodeISt4pairIS1_21CSidechainsCacheEntryEEEEEli
FN:2378,_ZNK15CCoinsViewCache12GetCacheSizeEv
FN:2382,_ZNK15CCoinsViewCache12GetOutputForERK5CTxIn
FN:2389,_ZNK15CCoinsViewCache10GetValueInERK16CTransactionBase
FN:2403,_ZNK15CCoinsViewCache25HaveJoinSplitRequirementsERK16CTransactionBase
FN:2434,_ZNK15CCoinsViewCache10HaveInputsERK16CTransactionBase
FN:2447,_ZNK15CCoinsViewCache11GetPriorityERK16CTransactionBasei
FN:2479,_ZN14CCoinsModifierC2ER15CCoinsViewCacheN5boost9unordered15iterator_detail8iteratorINS3_6detail8ptr_nodeISt4pairIK7uint25616CCoinsCacheEntryEEEEEm
FN:2485,_ZN14CCoinsModifierD2Ev
FNDA:67,_ZN15CCoinsViewCache18RemoveCswNullifierERK7uint256RK13CFieldElement
FNDA:1503,_ZNK15CCoinsViewCache32CheckEndEpochCumScTxCommTreeRootERK10CSidechainiRK13CFieldElement
FNDA:305,_ZN6CCoinsC2ERK14CScCertificateiib
FNDA:2038,_ZN6CCoins4FromERK14CScCertificateiib
FNDA:42111,_ZeqRK6CCoinsS1_
FNDA:139,_ZN15CCoinsViewCache16RestoreSidechainERK14CScCertificateRK18CSidechainUndoData
FNDA:48195596,_ZN15CCoinsViewCache11ModifyCoinsERK7uint256
FNDA:3,_ZN15CCoinsViewCache40RevertMaturityHeightIndexSidechainEventsEiR10CBlockUndoP12CBlockTreeDBRSt6vectorISt4pairI18CMaturityHeightKey20CMaturityHeightValueESaIS8_EE
FNDA:800,_ZN16CCoinsViewBacked10BatchWriteERN5boost9unordered13unordered_mapI7uint25616CCoinsCacheEntry15CCoinsKeyHasherSt8equal_toIS3_ESaISt4pairIKS3_S4_EEEERS9_SE_RNS2_IS3_18CAnchorsCacheEntryS5_S7_SaIS8_IS9_SF_EEEERNS2_IS3_21CNullifiersCacheEntryS5_S7_SaIS8_IS9_SK_EEEERNS2_IS3_21CSidechainsCacheEntryS5_S7_SaIS8_IS9_SP_EEEERNS2_Ii26CSidechainEventsCacheEntryNS0_4hashIiEES6_IiESaIS8_IKiSU_EEEERNS2_IS8_IS3_13CFieldElementE24CCswNullifiersCacheEntry23CCswNullifiersKeyHasherS6_IS14_ESaIS8_IKS14_S15_EEEE
FNDA:21786133,_ZN6CCoins4swapERS_
FNDA:45182970,_ZNK6CCoins8IsPrunedEv
FNDA:239836,_ZNK6CCoins12CalcMaskSizeERjS0_
FNDA:0,_ZNK16CCoinsViewBacked8GetStatsER11CCoinsStats
FNDA:2072,_ZNK16CCoinsViewBacked12GetSidechainERK7uint256R10CSidechain
FNDA:765888,_ZN16CCoinsViewBackedC2EP10CCoinsView
FNDA:77304,_ZN16CCoinsViewBacked10SetBackendER10CCoinsView
FNDA:96482795,_ZN6CCoins7CleanupEv
FNDA:206885,_ZN15CCoinsViewCache10WriteCoinsERK7uint256R16CCoinsCacheEntry
FNDA:189,_ZNK16CCoinsViewBacked8GetScIdsERSt3setI7uint256St4lessIS1_ESaIS1_EE
FNDA:1354,_ZNK15CCoinsViewCache23IsCertApplicableToStateERK14CScCertificatePb
FNDA:97641048,_ZNK6CCoins11IsAvailableEj
FNDA:356,_ZNK15CCoinsViewCache21GetCeasingCumTreeHashERK7uint256
FNDA:101819993,_ZNK15CCoinsViewCache11AccessCoinsERK7uint256
FNDA:98683402,_ZNK6CCoins18DynamicMemoryUsageEv
FNDA:0,_ZNK10CCoinsView13GetBestAnchorEv
FNDA:0,_ZNK10CCoinsView13HaveSidechainERK7uint256
FNDA:66038707,_ZNK6CCoins10IsCoinBaseEv
FNDA:1952,_ZNK15CCoinsViewCache17GetActiveCertViewERK7uint256
FNDA:110,_ZNK15CCoinsViewCache21IsMbtrScFeeApplicableERK14CBwtRequestOut
FNDA:113091567,_ZN6CCoinsC2Ev
FNDA:1049,_ZNK15CCoinsViewCache16HaveCswNullifierERK7uint256RK13CFieldElement
FNDA:0,_ZNK10CCoinsView8GetScIdsERSt3setI7uint256St4lessIS1_ESaIS1_EE
FNDA:49,_ZN15CCoinsViewCache24RestoreBackwardTransfersERK7uint256RKSt6vectorI9CTxInUndoSaIS4_EE
FNDA:0,_ZNK10CCoinsView9HaveCoinsERK7uint256
FNDA:32055934,_ZN6CCoins5SpendEj
FNDA:150848,_ZN15CCoinsViewCache10PushAnchorERKN8libzcash21IncrementalMerkleTreeILm29ENS0_14SHA256CompressEEE
FNDA:189,_ZNK15CCoinsViewCache8GetScIdsERSt3setI7uint256St4lessIS1_ESaIS1_EE
FNDA:140,_ZN15CCoinsViewCache24NullifyBackwardTransfersERK7uint256RSt6vectorI9CTxInUndoSaIS4_EE
FNDA:415,_ZN15CCoinsViewCache22getInitScCoinsMaturityEv
FNDA:6665,_ZNK15CCoinsViewCache13HaveSidechainERK7uint256
FNDA:606830,_ZNK15CCoinsViewCache13GetBestAnchorEv
FNDA:16184069,_ZN6CCoins16ClearUnspendableEv
FNDA:16082261,_ZNK15CCoinsViewCache9GetHeightEv
FNDA:725886,_ZN15CCoinsViewCacheD2Ev
FNDA:2462,_ZNK15CCoinsViewCache12GetNullifierERK7uint256
FNDA:1539,_ZNK23CCswNullifiersKeyHasherclERKSt4pairI7uint25613CFieldElementE
FNDA:0,_ZNK10CCoinsView19HaveSidechainEventsEi
FNDA:491,_ZN15CCoinsViewCache15UpdateSidechainERK14CScCertificateR10CBlockUndo
FNDA:123,_ZN15CCoinsViewCache15AddCswNullifierERK7uint256RK13CFieldElement
FNDA:159728,_ZNK16CCoinsViewBacked18GetSidechainEventsEiR16CSidechainEvents
FNDA:622,_ZN15CCoinsViewCache12SetNullifierERK7uint256b
FNDA:925,_ZNK15CCoinsViewCache19IsFtScFeeApplicableERK21CTxForwardTransferOut
FNDA:40070,_ZN15CCoinsViewCache21RevertSidechainEventsERK10CBlockUndoiPSt6vectorI30CScCertificateStatusUpdateInfoSaIS4_EE
FNDA:774,_ZN15CCoinsViewCache40HandleMaturityHeightIndexSidechainEventsEiP12CBlockTreeDBRSt6vectorISt4pairI18CMaturityHeightKey20CMaturityHeightValueESaIS6_EE
FNDA:891,_ZNK16CCoinsViewBacked11GetAnchorAtERK7uint256RN8libzcash21IncrementalMerkleTreeILm29ENS3_14SHA256CompressEEE
FNDA:408555,_ZNK15CCoinsViewCache18DynamicMemoryUsageEv
FNDA:323,_ZNK15CCoinsViewCache19CheckMinimumFtScFeeERK21CTxForwardTransferOutPl
FNDA:48195596,_ZN14CCoinsModifierD2Ev
FNDA:161567,_ZNK15CCoinsViewCache18GetSidechainEventsEiR16CSidechainEvents
FNDA:11847,_ZNK15CCoinsViewCache17GetSidechainStateERK7uint256
FNDA:112458,_ZN15CCoinsViewCache10BatchWriteERN5boost9unordered13unordered_mapI7uint25616CCoinsCacheEntry15CCoinsKeyHasherSt8equal_toIS3_ESaISt4pairIKS3_S4_EEEERS9_SE_RNS2_IS3_18CAnchorsCacheEntryS5_S7_SaIS8_IS9_SF_EEEERNS2_IS3_21CNullifiersCacheEntryS5_S7_SaIS8_IS9_SK_EEEERNS2_IS3_21CSidechainsCacheEntryS5_S7_SaIS8_IS9_SP_EEEERNS2_Ii26CSidechainEventsCacheEntryNS0_4hashIiEES6_IiESaIS8_IKiSU_EEEERNS2_IS8_IS3_13CFieldElementE24CCswNullifiersCacheEntry23CCswNullifiersKeyHasherS6_IS14_ESaIS8_IKS14_S15_EEEE
FNDA:152010,_ZN15CCoinsViewCache12SetBestBlockERK7uint256
FNDA:798,_ZNK16CCoinsViewBacked13GetBestAnchorEv
FNDA:0,_ZNK10CCoinsView16HaveCswNullifierERK7uint256RK13CFieldElement
FNDA:1424,_ZNK15CCoinsViewCache15CheckCertTimingERK7uint256i
FNDA:38686,_ZNK15CCoinsViewCache15FetchSidechainsERK7uint256
FNDA:2681,_ZN15CCoinsViewCache15ModifySidechainERK7uint256
FNDA:48195596,_ZN14CCoinsModifierC2ER15CCoinsViewCacheN5boost9unordered15iterator_detail8iteratorINS3_6detail8ptr_nodeISt4pairIK7uint25616CCoinsCacheEntryEEEEEm
FNDA:0,_ZNK16CCoinsViewBacked19HaveSidechainEventsEi
FNDA:32431050,_ZNK6CCoins10IsFromCertEv
FNDA:0,_ZNK10CCoinsView12GetNullifierERK7uint256
FNDA:7,_ZN15CCoinsViewCache28RevertTxIndexSidechainEventsEiR10CBlockUndoP12CBlockTreeDBRSt6vectorISt4pairI7uint25613CTxIndexValueESaIS8_EE
FNDA:101464,_ZNK15CCoinsViewCache10GetValueInERK16CTransactionBase
FNDA:2914,_ZNK15CCoinsViewCache15AccessSidechainERK7uint256
FNDA:16101681,_ZNK15CCoinsViewCache25HaveJoinSplitRequirementsERK16CTransactionBase
FNDA:113258,_ZNK15CCoinsViewCache12GetCacheSizeEv
FNDA:0,_ZNK10CCoinsView12GetBestBlockEv
FNDA:0,_ZNK10CCoinsView12GetSidechainERK7uint256R10CSidechain
FNDA:49362,_ZN6CCoinsC2ERK12CTransactioni
FNDA:490,_ZN15CCoinsViewCacheD0Ev
FNDA:16139920,_ZN6CCoins4FromERK12CTransactioni
FNDA:521602,_ZNK6CCoins14isOutputMatureEji
FNDA:199974,_ZNK15CCoinsViewCache19HaveSidechainEventsEi
FNDA:725886,_ZN23CCswNullifiersKeyHasherC2Ev
FNDA:22303225,_ZNK15CCoinsViewCache10HaveInputsERK16CTransactionBase
FNDA:51159,_ZN15CCoinsViewCache15UpdateSidechainERK12CTransactionRK6CBlocki
FNDA:142379595,_ZNK15CCoinsViewCache10FetchCoinsERK7uint256
FNDA:0,_ZNK10CCoinsView12CheckQualityERK14CScCertificate
FNDA:526,_ZN15CCoinsViewCache18getScCoinsMaturityEv
FNDA:0,_ZNK10CCoinsView8GetStatsER11CCoinsStats
FNDA:472614,_ZNK15CCoinsViewCache11GetAnchorAtERK7uint256RN8libzcash21IncrementalMerkleTreeILm29ENS3_14SHA256CompressEEE
FNDA:16134734,_ZN6CCoins5ClearEv
FNDA:16525853,_ZNK15CCoinsViewCache12GetBestBlockEv
FNDA:193808,_ZNK15CCoinsViewCache9HaveCoinsERK7uint256
FNDA:0,_ZNK16CCoinsViewBacked13HaveSidechainERK7uint256
FNDA:87023,_ZNK15CCoinsViewCache23IsScTxApplicableToStateERK12CTransactionN9Sidechain14ScFeeCheckFlagEPb
FNDA:37616,_ZNK16CCoinsViewBacked12GetBestBlockEv
FNDA:1559,_ZNK15CCoinsViewCache15CheckScTxTimingERK7uint256
FNDA:416963,_ZNK15CCoinsViewCache12GetOutputForERK5CTxIn
FNDA:40070,_ZN15CCoinsViewCache9PopAnchorERK7uint256
FNDA:18858263,_ZNK16CCoinsViewBacked8GetCoinsERK7uint256R6CCoins
FNDA:725886,_ZN15CCoinsViewCacheC2EP10CCoinsView
FNDA:7448,_ZN15CCoinsViewCache28HandleTxIndexSidechainEventsEiP12CBlockTreeDBRSt6vectorISt4pairI7uint25613CTxIndexValueESaIS6_EE
FNDA:150848,_ZN15CCoinsViewCache21HandleSidechainEventsEiR10CBlockUndoPSt6vectorI30CScCertificateStatusUpdateInfoSaIS3_EE
FNDA:0,_ZNK10CCoinsView11GetAnchorAtERK7uint256RN8libzcash21IncrementalMerkleTreeILm29ENS3_14SHA256CompressEEE
FNDA:176,_ZNK16CCoinsViewBacked12GetNullifierERK7uint256
FNDA:203,_ZNK15CCoinsViewCache21CheckMinimumMbtrScFeeERK14CBwtRequestOutPl
FNDA:0,_ZNK16CCoinsViewBacked12CheckQualityERK14CScCertificate
FNDA:0,_ZNK6CCoins8ToStringB5cxx11Ev
FNDA:36619,_ZNK15CCoinsViewCache11GetPriorityERK16CTransactionBasei
FNDA:113258,_ZN15CCoinsViewCache5FlushEv
FNDA:5,_ZNK10CCoinsView8GetCoinsERK7uint256R6CCoins
FNDA:41954,_ZN15CCoinsViewCache15RevertTxOutputsERK12CTransactioni
FNDA:1343,_ZNK15CCoinsViewCache12CheckQualityERK14CScCertificate
FNDA:344,_ZN15CCoinsViewCache23DecrementImmatureAmountERK7uint256RKN5boost9unordered15iterator_detail8iteratorINS4_6detail8ptr_nodeISt4pairIS1_21CSidechainsCacheEntryEEEEEli
FNDA:3540,_ZN15CCoinsViewCache21ModifySidechainEventsEi
FNDA:0,_ZNK16CCoinsViewBacked9HaveCoinsERK7uint256
FNDA:29107,_ZNK15CCoinsViewCache12GetSidechainERK7uint256R10CSidechain
FNDA:361541,_ZNK15CCoinsViewCache20FetchSidechainEventsEi
FNDA:42111,_ZneRK6CCoinsS1_
FNDA:0,_ZN10CCoinsView10BatchWriteERN5boost9unordered13unordered_mapI7uint25616CCoinsCacheEntry15CCoinsKeyHasherSt8equal_toIS3_ESaISt4pairIKS3_S4_EEEERS9_SE_RNS2_IS3_18CAnchorsCacheEntryS5_S7_SaIS8_IS9_SF_EEEERNS2_IS3_21CNullifiersCacheEntryS5_S7_SaIS8_IS9_SK_EEEERNS2_IS3_21CSidechainsCacheEntryS5_S7_SaIS8_IS9_SP_EEEERNS2_Ii26CSidechainEventsCacheEntryNS0_4hashIiEES6_IiESaIS8_IKiSU_EEEERNS2_IS8_IS3_13CFieldElementE24CCswNullifiersCacheEntry23CCswNullifiersKeyHasherS6_IS14_ESaIS8_IKS14_S15_EEEE
FNDA:40365794,_ZNK15CCoinsViewCache8GetCoinsERK7uint256R6CCoins
FNDA:34880794,_ZN15CCoinsKeyHasherC2Ev
FNDA:456,_ZNK16CCoinsViewBacked16HaveCswNullifierERK7uint256RK13CFieldElement
FNDA:0,_ZNK10CCoinsView18GetSidechainEventsEiR16CSidechainEvents
FNF:125
FNH:105
DA:24,0
DA:26,0
DA:27,0
DA:28,0
DA:29,0
DA:30,0
DA:31,0
DA:32,0
DA:34,0
DA:36,0
DA:37,0
DA:39,113091567
DA:41,49362
DA:43,305
DA:45,305
DA:46,305
DA:48,16139920
DA:49,16139920
DA:50,16139920
DA:51,16139920
DA:52,16139920
DA:53,16139920
DA:54,16139920
DA:55,16139920
DA:56,16139920
DA:58,2038
DA:59,2038
DA:60,2038
DA:61,2038
DA:62,2038
DA:63,2038
DA:64,2038
DA:66,2038
DA:68,542
DA:69,154
DA:72,2038
DA:73,2038
DA:75,16134734
DA:76,16134734
DA:77,16134734
DA:78,16134734
DA:79,16134734
DA:80,16134734
DA:81,16134734
DA:82,16134734
DA:84,96482795
DA:85,185973024
DA:86,173582995
DA:88,96482795
DA:89,45542666
DA:90,96482795
DA:92,16184069
DA:93,48532516
DA:94,64696934
DA:95,32348487
DA:97,16184069
DA:98,16184069
DA:100,21786133
DA:101,21786133
DA:102,21786133
DA:103,21786133
DA:104,21786133
DA:105,21786133
DA:106,21786133
DA:107,21786133
DA:109,42111
DA:111,42111
DA:113,42086
DA:114,42086
DA:115,42086
DA:116,42086
DA:117,84172
DA:121,42111
DA:122,42111
DA:125,66038707
DA:126,66038707
DA:129,32431050
DA:133,32431050
DA:136,521602
DA:138,521602
DA:141,521602
DA:142,519044
DA:145,2558
DA:146,220
DA:151,32055934
DA:153,32055934
DA:156,32055934
DA:157,32055934
DA:158,32055934
DA:161,97641048
DA:162,97641048
DA:165,45182970
DA:166,55762909
DA:167,52316333
DA:168,45182970
DA:172,98683402
DA:173,98683402
DA:174,237537215
DA:175,138853813
DA:177,98683402
DA:180,239836
DA:181,239836
DA:182,403842
DA:184,492568
DA:185,328562
DA:186,328542
DA:187,328542
DA:190,164006
DA:191,164006
DA:192,164006
DA:195,239836
DA:196,239836
DA:198,0
DA:199,0
DA:200,5
DA:201,0
DA:202,0
DA:203,0
DA:204,0
DA:205,0
DA:206,0
DA:207,0
DA:208,0
DA:209,0
DA:210,0
DA:211,0
DA:213,0
DA:217,0
DA:218,0
DA:221,765888
DA:223,891
DA:224,176
DA:225,18858263
DA:226,0
DA:227,0
DA:228,2072
DA:229,0
DA:230,159728
DA:231,189
DA:232,0
DA:233,37616
DA:234,798
DA:236,456
DA:237,456
DA:239,77304
DA:240,800
DA:244,800
DA:246,800
DA:247,0
DA:249,34880794
DA:250,12340062
DA:252,1539
DA:253,1539
DA:256,1539
DA:259,1539
DA:260,1539
DA:261,1539
DA:264,725886
DA:266,726376
DA:268,725886
DA:269,726376
DA:271,408555
DA:272,408555
DA:273,408555
DA:274,408555
DA:275,408555
DA:276,408555
DA:277,408555
DA:278,408555
DA:281,142379595
DA:282,142379595
DA:283,142379595
DA:284,99242535
DA:285,43137060
DA:286,43137060
DA:287,21528616
DA:288,21608444
DA:289,21608444
DA:290,21608444
DA:293,4
DA:295,21608444
DA:296,21608444
DA:297,142379595
DA:299,38686
DA:300,38686
DA:301,38686
DA:302,30450
DA:304,8236
DA:305,8236
DA:306,3021
DA:310,5215
DA:311,10430
DA:313,5215
DA:314,5215
DA:315,8236
DA:317,2681
DA:318,2681
DA:319,2681
DA:320,2317
DA:322,364
DA:323,364
DA:324,364
DA:325,0
DA:327,728
DA:329,364
DA:330,364
DA:331,364
DA:333,2914
DA:334,2914
DA:335,2914
DA:338,2914
DA:341,361541
DA:342,361541
DA:343,361541
DA:344,2328
DA:346,359213
DA:347,359213
DA:348,358284
DA:352,929
DA:353,1858
DA:355,929
DA:356,929
DA:357,359213
DA:359,3540
DA:361,3540
DA:362,3540
DA:363,2174
DA:365,1366
DA:366,1366
DA:367,1366
DA:368,2668
DA:370,64
DA:372,1366
DA:373,1366
DA:374,1366
DA:376,472614
DA:377,472614
DA:378,472614
DA:379,320665
DA:380,320665
DA:381,320665
DA:387,151949
DA:391,151947
DA:392,151947
DA:393,151947
DA:394,151947
DA:396,151947
DA:399,2462
DA:400,2462
DA:401,2462
DA:402,1505
DA:404,957
DA:405,957
DA:406,957
DA:408,957
DA:410,957
DA:413,150848
DA:414,150848
DA:416,150848
DA:423,150848
DA:424,108
DA:425,108
DA:427,108
DA:428,108
DA:429,108
DA:431,108
DA:433,108
DA:436,108
DA:438,150848
DA:440,40070
DA:441,40070
DA:446,40070
DA:449,23
DA:450,23
DA:451,23
DA:452,23
DA:455,23
DA:458,23
DA:461,23
DA:463,40070
DA:465,622
DA:466,622
DA:467,622
DA:468,622
DA:469,622
DA:471,40365794
DA:472,40365794
DA:473,40365794
DA:474,21598251
DA:475,21598251
DA:480,48195596
DA:481,48195596
DA:482,48195596
DA:483,48195596
DA:484,48195596
DA:485,16137138
DA:487,16092623
DA:488,16092623
DA:489,44515
DA:491,7
DA:494,32058458
DA:497,48195596
DA:498,48195596
DA:501,101819993
DA:502,101819993
DA:503,101819993
DA:506,99172990
DA:510,193808
DA:511,193808
DA:516,193808
DA:519,16525853
DA:520,33051706
DA:521,216223
DA:522,16525853
DA:526,606830
DA:527,1213660
DA:528,152343
DA:529,606830
DA:532,152010
DA:533,152010
DA:534,152010
DA:536,1049
DA:537,1049
DA:539,1049
DA:540,1049
DA:541,65
DA:543,984
DA:546,76
DA:547,76
DA:548,1049
DA:550,123
DA:551,123
DA:554,123
DA:555,123
DA:556,123
DA:557,123
DA:559,67
DA:560,67
DA:563,67
DA:564,67
DA:567,206885
DA:569,206885
DA:570,206885
DA:572,206885
DA:573,206885
DA:575,147681
DA:581,147681
DA:582,147681
DA:583,147681
DA:584,147681
DA:585,147681
DA:589,59204
DA:594,29196
DA:595,29196
DA:599,30008
DA:600,30008
DA:601,30008
DA:602,30008
DA:606,206885
DA:609,112458
DA:617,112458
DA:618,319343
DA:619,206885
DA:621,112458
DA:623,224189
DA:625,111731
DA:626,92
DA:628,92
DA:629,74
DA:630,74
DA:631,74
DA:632,74
DA:634,74
DA:636,18
DA:638,18
DA:639,18
DA:644,111731
DA:645,111731
DA:648,112642
DA:650,184
DA:651,184
DA:653,184
DA:654,0
DA:655,0
DA:656,0
DA:658,184
DA:659,184
DA:660,184
DA:664,184
DA:665,184
DA:669,113703
DA:670,1245
DA:672,113987
DA:673,1529
DA:675,112591
DA:676,133
DA:678,112458
DA:679,112458
DA:680,112458
DA:683,112458
DA:684,112458
DA:685,112458
DA:688,6665
DA:690,6665
DA:691,6665
DA:694,29107
DA:696,29107
DA:697,29107
DA:698,27731
DA:700,29107
DA:701,27663
DA:702,27663
DA:707,189
DA:709,189
DA:713,477
DA:715,288
DA:716,288
DA:718,288
DA:721,189
DA:724,1343
DA:727,1343
DA:728,1343
DA:730,1343
DA:731,1343
DA:732,123
DA:734,6
DA:735,3
DA:736,3
DA:741,0
DA:742,0
DA:745,2680
DA:746,1340
DA:747,1340
DA:748,1343
DA:751,415
DA:753,415
DA:755,415
DA:756,415
DA:757,415
DA:759,0
DA:762,526
DA:765,526
DA:766,526
DA:769,51159
DA:771,51159
DA:772,51159
DA:774,51159
DA:775,51159
DA:778,51282
DA:780,123
DA:783,0
DA:785,0
DA:788,123
DA:791,123
DA:792,123
DA:793,123
DA:795,246
DA:796,123
DA:800,51523
DA:802,364
DA:803,364
DA:804,0
DA:805,0
DA:808,364
DA:809,364
DA:810,364
DA:811,364
DA:812,364
DA:813,364
DA:814,364
DA:816,364
DA:817,364
DA:819,364
DA:820,364
DA:821,364
DA:822,364
DA:823,364
DA:824,364
DA:825,364
DA:826,364
DA:827,364
DA:829,364
DA:830,364
DA:832,364
DA:834,728
DA:835,364
DA:837,364
DA:839,364
DA:840,364
DA:841,364
DA:843,0
DA:844,0
DA:847,728
DA:848,364
DA:851,364
DA:853,364
DA:854,364
DA:855,364
DA:857,0
DA:858,0
DA:861,728
DA:862,364
DA:866,51674
DA:868,515
DA:871,0
DA:873,0
DA:875,515
DA:878,515
DA:879,515
DA:880,290
DA:882,1030
DA:883,515
DA:885,515
DA:886,515
DA:887,511
DA:889,4
DA:890,4
DA:893,1030
DA:894,515
DA:898,51217
DA:900,58
DA:903,0
DA:904,0
DA:905,0
DA:907,58
DA:910,58
DA:911,58
DA:912,31
DA:914,116
DA:915,58
DA:917,58
DA:918,58
DA:919,58
DA:921,0
DA:922,0
DA:925,116
DA:926,58
DA:932,41954
DA:934,41954
DA:935,41954
DA:938,41974
DA:940,20
DA:941,20
DA:943,20
DA:946,0
DA:947,0
DA:950,20
DA:951,20
DA:954,0
DA:955,0
DA:956,0
DA:959,20
DA:960,20
DA:961,20
DA:962,6
DA:964,14
DA:966,40
DA:967,20
DA:971,42154
DA:973,200
DA:974,200
DA:976,200
DA:979,0
DA:980,0
DA:983,200
DA:984,200
DA:987,0
DA:989,0
DA:992,200
DA:993,200
DA:994,200
DA:995,8
DA:997,192
DA:999,400
DA:1000,200
DA:1005,42078
DA:1007,124
DA:1008,124
DA:1010,124
DA:1013,0
DA:1014,0
DA:1017,124
DA:1018,124
DA:1019,124
DA:1022,0
DA:1024,0
DA:1027,124
DA:1030,0
DA:1032,0
DA:1035,124
DA:1036,124
DA:1039,124
DA:1041,112
DA:1042,112
DA:1043,112
DA:1044,51
DA:1046,61
DA:1048,224
DA:1049,112
DA:1051,24
DA:1052,12
DA:1056,124
DA:1057,0
DA:1058,0
DA:1061,124
DA:1062,124
DA:1063,124
DA:1064,23
DA:1066,101
DA:1068,248
DA:1069,124
DA:1073,42021
DA:1075,67
DA:1077,67
DA:1080,0
DA:1082,0
DA:1085,67
DA:1088,67
DA:1089,67
DA:1091,134
DA:1092,67
DA:1099,0
DA:1100,0
DA:1101,0
DA:1103,0
DA:1106,0
DA:1109,0
DA:1112,0
DA:1115,0
DA:1118,0
DA:1121,0
DA:1124,0
DA:1145,16082261
DA:1147,16082261
DA:1148,16082261
DA:1149,16082261
DA:1150,16082261
DA:1151,16082261
DA:1153,1424
DA:1155,1424
DA:1156,1424
DA:1158,0
DA:1159,0
DA:1162,1424
DA:1164,14
DA:1165,7
DA:1170,1417
DA:1171,1275
DA:1173,1
DA:1174,1
DA:1177,1416
DA:1178,1416
DA:1180,1416
DA:1182,1416
DA:1184,24
DA:1185,24
DA:1189,1424
DA:1191,1354
DA:1193,1354
DA:1195,2708
DA:1196,1354
DA:1198,1354
DA:1199,1354
DA:1201,0
DA:1203,0
DA:1206,1354
DA:1208,7
DA:1209,7
DA:1212,1347
DA:1214,4
DA:1216,4
DA:1217,4
DA:1218,4
DA:1221,1343
DA:1222,1343
DA:1224,1343
DA:1226,0
DA:1228,0
DA:1231,1343
DA:1233,3
DA:1234,3
DA:1237,1340
DA:1238,1340
DA:1239,1340
DA:1243,120
DA:1246,1340
DA:1248,0
DA:1250,0
DA:1253,1340
DA:1254,1340
DA:1256,0
DA:1258,0
DA:1259,0
DA:1260,0
DA:1263,2680
DA:1264,1340
DA:1266,1340
DA:1267,1354
DA:1269,1503
DA:1272,1503
DA:1273,1503
DA:1274,1503
DA:1276,1503
DA:1278,1
DA:1280,1
DA:1283,1502
DA:1285,1
DA:1287,1
DA:1291,1503
DA:1293,1559
DA:1295,1559
DA:1296,1559
DA:1298,28
DA:1299,14
DA:1311,925
DA:1313,925
DA:1314,925
DA:1315,925
DA:1317,323
DA:1319,323
DA:1320,8
DA:1322,323
DA:1324,323
DA:1326,323
DA:1329,323
DA:1331,323
DA:1332,8
DA:1334,323
DA:1343,110
DA:1345,110
DA:1346,110
DA:1347,110
DA:1349,203
DA:1351,203
DA:1352,8
DA:1354,203
DA:1356,203
DA:1358,203
DA:1361,203
DA:1363,203
DA:1364,8
DA:1366,203
DA:1369,87023
DA:1371,87023
DA:1376,87023
DA:1379,87673
DA:1381,650
DA:1382,650
DA:1384,0
DA:1386,0
DA:1389,1300
DA:1390,650
DA:1394,87944
DA:1396,926
DA:1403,926
DA:1405,1
DA:1406,1
DA:1413,925
DA:1415,12
DA:1418,8
DA:1419,8
DA:1421,0
DA:1423,0
DA:1425,8
DA:1431,4
DA:1433,4
DA:1437,1842
DA:1438,921
DA:1442,87126
DA:1444,113
DA:1445,113
DA:1451,113
DA:1453,3
DA:1454,5
DA:1457,110
DA:1462,110
DA:1464,0
DA:1466,0
DA:1473,110
DA:1475,0
DA:1478,0
DA:1479,0
DA:1480,0
DA:1486,110
DA:1488,0
DA:1489,0
DA:1490,0
DA:1491,0
DA:1498,110
DA:1500,10
DA:1503,8
DA:1504,8
DA:1506,0
DA:1508,0
DA:1510,8
DA:1516,2
DA:1519,2
DA:1523,216
DA:1524,108
DA:1525,110
DA:1529,87013
DA:1530,87348
DA:1532,343
DA:1533,343
DA:1535,0
DA:1537,0
DA:1540,343
DA:1541,343
DA:1543,0
DA:1545,0
DA:1548,343
DA:1550,0
DA:1552,0
DA:1553,0
DA:1554,0
DA:1557,343
DA:1558,343
DA:1560,0
DA:1562,0
DA:1563,0
DA:1564,0
DA:1568,343
DA:1571,343
DA:1573,5
DA:1575,5
DA:1578,338
DA:1579,1
DA:1581,1
DA:1584,337
DA:1587,337
DA:1589,2
DA:1591,2
DA:1594,335
DA:1596,0
DA:1598,0
DA:1600,343
DA:1603,87023
DA:1605,7448
DA:1608,7448
DA:1609,7414
DA:1611,34
DA:1612,34
DA:1615,48
DA:1617,14
DA:1618,14
DA:1620,14
DA:1621,6
DA:1622,6
DA:1625,8
DA:1626,8
DA:1629,8
DA:1630,8
DA:1631,14
DA:1632,34
DA:1634,7
DA:1637,7
DA:1641,10
DA:1643,5
DA:1644,0
DA:1646,5
DA:1647,5
DA:1649,5
DA:1651,1
DA:1652,1
DA:1655,1
DA:1656,1
DA:1661,774
DA:1664,774
DA:1665,771
DA:1667,3
DA:1668,3
DA:1671,5
DA:1673,2
DA:1674,2
DA:1676,2
DA:1677,0
DA:1678,0
DA:1682,2
DA:1683,2
DA:1684,2
DA:1685,3
DA:1687,3
DA:1690,3
DA:1694,2
DA:1696,1
DA:1697,0
DA:1699,1
DA:1700,1
DA:1702,1
DA:1705,1
DA:1706,1
DA:1773,491
DA:1775,491
DA:1776,491
DA:1777,491
DA:1780,982
DA:1782,491
DA:1784,0
DA:1785,0
DA:1788,491
DA:1789,491
DA:1790,491
DA:1792,491
DA:1793,491
DA:1794,491
DA:1796,491
DA:1798,491
DA:1801,451
DA:1802,451
DA:1803,451
DA:1805,451
DA:1806,451
DA:1807,40
DA:1809,40
DA:1811,0
DA:1812,0
DA:1815,40
DA:1817,0
DA:1818,0
DA:1820,491
DA:1822,0
DA:1823,0
DA:1825,491
DA:1827,491
DA:1828,491
DA:1829,491
DA:1830,491
DA:1831,491
DA:1832,491
DA:1834,491
DA:1835,491
DA:1836,491
DA:1837,491
DA:1838,491
DA:1840,491
DA:1842,491
DA:1844,491
DA:1846,451
DA:1849,451
DA:1851,0
DA:1852,0
DA:1855,451
DA:1856,451
DA:1857,451
DA:1858,68
DA:1860,383
DA:1862,902
DA:1863,451
DA:1864,451
DA:1867,451
DA:1868,451
DA:1869,447
DA:1871,4
DA:1872,4
DA:1875,902
DA:1876,451
DA:1882,140
DA:1884,140
DA:1885,280
DA:1886,18
DA:1888,140
DA:1891,18
DA:1892,18
DA:1895,122
DA:1896,122
DA:1899,204
DA:1901,82
DA:1902,82
DA:1903,164
DA:1904,82
DA:1905,82
DA:1907,28
DA:1908,28
DA:1909,28
DA:1910,28
DA:1911,28
DA:1912,28
DA:1915,122
DA:1917,49
DA:1919,49
DA:1920,49
DA:1922,49
DA:1924,49
DA:1926,33
DA:1928,12
DA:1929,12
DA:1930,12
DA:1931,12
DA:1932,12
DA:1936,21
DA:1938,0
DA:1939,0
DA:1943,33
DA:1945,0
DA:1946,0
DA:1949,33
DA:1951,33
DA:1953,115
DA:1956,49
DA:1957,49
DA:2004,139
DA:2006,139
DA:2007,139
DA:2008,139
DA:2010,139
DA:2012,0
DA:2013,0
DA:2016,139
DA:2017,139
DA:2019,139
DA:2020,139
DA:2021,139
DA:2024,139
DA:2026,139
DA:2028,139
DA:2030,139
DA:2032,125
DA:2033,125
DA:2034,125
DA:2036,14
DA:2039,14
DA:2042,14
DA:2049,139
DA:2050,139
DA:2051,139
DA:2052,139
DA:2053,139
DA:2054,139
DA:2056,139
DA:2057,139
DA:2060,139
DA:2062,125
DA:2065,125
DA:2067,0
DA:2068,0
DA:2071,125
DA:2072,125
DA:2073,125
DA:2074,18
DA:2076,107
DA:2078,250
DA:2079,125
DA:2082,125
DA:2083,125
DA:2084,121
DA:2086,4
DA:2087,4
DA:2090,250
DA:2091,125
DA:2097,199974
DA:2099,199974
DA:2100,199974
DA:2103,161567
DA:2105,161567
DA:2106,161567
DA:2107,1413
DA:2108,1413
DA:2114,150848
DA:2116,150848
DA:2119,476
DA:2120,476
DA:2123,914
DA:2125,876
DA:2126,438
DA:2128,438
DA:2129,438
DA:2130,438
DA:2132,438
DA:2133,876
DA:2134,438
DA:2136,438
DA:2137,438
DA:2138,876
DA:2139,438
DA:2141,438
DA:2142,438
DA:2146,642
DA:2148,332
DA:2149,166
DA:2151,166
DA:2152,166
DA:2154,332
DA:2155,166
DA:2157,332
DA:2158,166
DA:2160,166
DA:2162,166
DA:2163,66
DA:2164,66
DA:2167,100
DA:2168,100
DA:2169,72
DA:2170,72
DA:2173,166
DA:2175,476
DA:2176,476
DA:2177,476
DA:2178,476
DA:2180,40070
DA:2182,40070
DA:2183,0
DA:2184,0
DA:2185,0
DA:2188,40070
DA:2191,40422
DA:2193,352
DA:2194,210
DA:2196,142
DA:2197,142
DA:2199,142
DA:2202,0
DA:2203,0
DA:2206,142
DA:2207,142
DA:2208,142
DA:2210,284
DA:2211,142
DA:2213,142
DA:2215,0
DA:2216,0
DA:2217,0
DA:2220,142
DA:2222,142
DA:2223,142
DA:2224,142
DA:2226,142
DA:2229,142
DA:2230,142
DA:2233,40422
DA:2235,352
DA:2236,278
DA:2238,74
DA:2239,74
DA:2241,74
DA:2243,35
DA:2244,40070
DA:2246,35
DA:2247,4
DA:2248,4
DA:2249,4
DA:2253,74
DA:2256,40070
DA:2258,155
DA:2259,155
DA:2260,155
DA:2264,40070
DA:2266,11847
DA:2268,11847
DA:2269,11847
DA:2272,11836
DA:2275,11261
DA:2278,9921
DA:2279,11847
DA:2282,1952
DA:2284,1952
DA:2286,1952
DA:2288,1952
DA:2293,1952
DA:2294,513
DA:2296,1439
DA:2297,192
DA:2299,1247
DA:2301,1247
DA:2302,1128
DA:2303,119
DA:2304,119
DA:2306,0
DA:2312,356
DA:2314,356
DA:2316,356
DA:2317,356
DA:2319,356
DA:2320,356
DA:2321,0
DA:2323,356
DA:2324,356
DA:2326,113258
DA:2327,113258
DA:2328,113258
DA:2329,113258
DA:2330,113258
DA:2331,113258
DA:2332,113258
DA:2333,113258
DA:2334,113258
DA:2335,113258
DA:2338,344
DA:2341,344
DA:2343,344
DA:2346,0
DA:2348,0
DA:2351,688
DA:2352,344
DA:2354,344
DA:2357,0
DA:2359,0
DA:2362,344
DA:2363,344
DA:2365,688
DA:2366,344
DA:2368,344
DA:2370,155
DA:2371,155
DA:2372,155
DA:2373,155
DA:2378,113258
DA:2379,113258
DA:2382,416963
DA:2384,416963
DA:2385,416963
DA:2386,416963
DA:2389,101464
DA:2391,101464
DA:2394,101464
DA:2395,289246
DA:2396,187782
DA:2398,101464
DA:2400,101464
DA:2403,16101681
DA:2405,16101681
DA:2407,16102359
DA:2408,2052
DA:2409,1373
DA:2412,12
DA:2416,679
DA:2417,679
DA:2418,679
DA:2419,11
DA:2420,668
DA:2421,1
DA:2424,2034
DA:2425,1356
DA:2428,1356
DA:2429,690
DA:2432,16101681
DA:2434,22303225
DA:2436,22303225
DA:2437,62451506
DA:2438,42580471
DA:2439,42580471
DA:2440,22303225
DA:2447,36619
DA:2449,36619
DA:2458,36619
DA:2462,36528
DA:2463,174138
DA:2465,68805
DA:2466,68805
DA:2467,68805
DA:2468,68805
DA:2469,39912
DA:2476,36528
DA:2479,48195596
DA:2480,48195596
DA:2481,48195596
DA:2482,48195596
DA:2483,48195596
DA:2485,48195596
DA:2487,48195596
DA:2488,48195596
DA:2489,48195596
DA:2490,48195596
DA:2491,48195596
DA:2492,3415989
DA:2495,44779607
DA:2497,48195596
LF:1266
LH:1104
end_of_record
TN:
SF:/home/apetrini/dev/src/zen/src/coins.h
FN:173,_ZNK6CCoins16GetSerializeSizeEii
FN:203,_ZNK6CCoins9SerializeI15CBaseDataStreamISt6vectorIc25zero_after_free_allocatorIcEEEEEvRT_ii
FN:238,_ZN6CCoins11UnserializeI15CBaseDataStreamISt6vectorIc25zero_after_free_allocatorIcEEEEEvRT_ii
FN:366,_Z17WriteMutableEntryIi26CSidechainEventsCacheEntryN5boost9unordered13unordered_mapEJNS1_4hashIiEESt8equal_toIiESaISt4pairIKiS0_EEEEvRKT_RKT0_RT1_IJSC_SF_DpT2_EE
FN:366,_Z17WriteMutableEntryI7uint25621CSidechainsCacheEntryN5boost9unordered13unordered_mapEJ15CCoinsKeyHasherSt8equal_toIS0_ESaISt4pairIKS0_S1_EEEEvRKT_RKT0_RT1_IJSC_SF_DpT2_EE
FN:407,_Z19WriteImmutableEntryISt4pairI7uint25613CFieldElementE24CCswNullifiersCacheEntryN5boost9unordered13unordered_mapEJ23CCswNullifiersKeyHasherSt8equal_toIS3_ESaIS0_IKS3_S4_EEEEvRKT_RKT0_RT1_IJSE_SH_DpT2_EE
FN:479,_ZN11CCoinsStatsC2Ev
FN:543,_ZN10CCoinsViewD2Ev
FN:543,_ZN10CCoinsViewD0Ev
FNDA:119918,_ZNK6CCoins16GetSerializeSizeEii
FNDA:1529,_Z17WriteMutableEntryIi26CSidechainEventsCacheEntryN5boost9unordered13unordered_mapEJNS1_4hashIiEESt8equal_toIiESaISt4pairIKiS0_EEEEvRKT_RKT0_RT1_IJSC_SF_DpT2_EE
FNDA:0,_ZN11CCoinsStatsC2Ev
FNDA:47196,_ZN6CCoins11UnserializeI15CBaseDataStreamISt6vectorIc25zero_after_free_allocatorIcEEEEEvRT_ii
FNDA:0,_ZN10CCoinsViewD2Ev
FNDA:119918,_ZNK6CCoins9SerializeI15CBaseDataStreamISt6vectorIc25zero_after_free_allocatorIcEEEEEvRT_ii
FNDA:0,_ZN10CCoinsViewD0Ev
FNDA:133,_Z19WriteImmutableEntryISt4pairI7uint25613CFieldElementE24CCswNullifiersCacheEntryN5boost9unordered13unordered_mapEJ23CCswNullifiersKeyHasherSt8equal_toIS3_ESaIS0_IKS3_S4_EEEEvRKT_RKT0_RT1_IJSE_SH_DpT2_EE
FNDA:1245,_Z17WriteMutableEntryI7uint25621CSidechainsCacheEntryN5boost9unordered13unordered_mapEJ15CCoinsKeyHasherSt8equal_toIS0_ESaISt4pairIKS0_S1_EEEEvRKT_RKT0_RT1_IJSC_SF_DpT2_EE
FNF:9
FNH:6
DA:100,112993553
DA:173,119918
DA:174,119918
DA:175,119918
DA:176,119918
DA:177,119918
DA:178,119918
DA:179,119918
DA:180,133681
DA:182,119918
DA:184,119918
DA:186,119918
DA:188,520491
DA:189,400573
DA:190,394177
DA:192,119918
DA:194,119918
DA:195,204
DA:196,204
DA:199,119918
DA:203,119918
DA:204,119918
DA:205,119918
DA:206,119918
DA:207,119918
DA:208,119918
DA:209,133681
DA:211,119918
DA:213,119918
DA:215,201921
DA:217,246284
DA:218,164281
DA:219,164271
DA:220,82003
DA:223,520491
DA:224,400573
DA:225,394177
DA:229,119918
DA:231,119918
DA:232,204
DA:233,204
DA:235,119918
DA:238,47196
DA:239,47196
DA:241,47196
DA:243,47196
DA:244,47196
DA:245,47196
DA:246,47196
DA:247,47196
DA:248,47196
DA:250,77576
DA:251,30380
DA:252,30380
DA:253,273420
DA:254,243040
DA:255,243040
DA:257,30380
DA:258,30380
DA:261,47196
DA:262,384628
DA:263,337432
DA:264,295688
DA:267,47196
DA:269,47196
DA:270,47196
DA:271,77
DA:272,77
DA:275,47196
DA:276,47196
DA:294,259818493
DA:295,259818493
DA:315,145442885
DA:325,69951721
DA:328,456239
DA:338,152129
DA:350,1579
DA:362,8886
DA:366,2774
DA:368,2774
DA:370,2774
DA:371,1050
DA:372,1050
DA:376,1050
DA:378,890
DA:379,890
DA:381,708
DA:382,708
DA:383,674
DA:385,126
DA:386,126
DA:387,126
DA:388,126
DA:390,0
DA:391,0
DA:393,2774
DA:403,289
DA:407,133
DA:409,133
DA:411,133
DA:412,91
DA:413,91
DA:417,91
DA:418,91
DA:419,42
DA:420,42
DA:421,42
DA:423,0
DA:424,0
DA:425,0
DA:427,0
DA:428,0
DA:430,133
DA:432,23676
DA:436,256
DA:437,5579
DA:438,5579
DA:441,126
DA:444,10772
DA:448,756
DA:449,2295
DA:450,2295
DA:453,0
DA:458,289
DA:479,0
DA:484,766378
DA:543,765291
DA:548,765370
DA:598,112360139
DA:599,42111
LF:130
LH:121
end_of_record
TN:
SF:/home/apetrini/dev/src/zen/src/compat/glibc_sanity.cpp
FN:16,_Z10memcpy_intPvPKvm
FN:29,_ZN12_GLOBAL__N_118sanity_test_memcpyILj1025EEEbv
FN:50,_ZN12_GLOBAL__N_117sanity_test_fdeltEv
FN:61,_Z17glibc_sanity_testv
FNDA:490,_Z17glibc_sanity_testv
FNDA:490,_Z10memcpy_intPvPKvm
FNDA:490,_ZN12_GLOBAL__N_117sanity_test_fdeltEv
FNDA:490,_ZN12_GLOBAL__N_118sanity_test_memcpyILj1025EEEbv
FNF:4
FNH:4
DA:16,490
DA:18,490
DA:29,490
DA:32,490
DA:33,502740
DA:34,502250
DA:36,490
DA:38,502740
DA:39,502250
DA:50,490
DA:52,490
DA:53,8330
DA:54,490
DA:55,490
DA:61,490
DA:64,490
DA:67,490
LF:17
LH:17
end_of_record
TN:
SF:/home/apetrini/dev/src/zen/src/compat/glibcxx_sanity.cpp
FN:14,_ZN12_GLOBAL__N_117sanity_test_widenEc
FN:24,_ZN12_GLOBAL__N_116sanity_test_listEj
FN:46,_Z21sanity_test_range_fmtv
FN:58,_Z19glibcxx_sanity_testv
FNDA:490,_Z19glibcxx_sanity_testv
FNDA:490,_ZN12_GLOBAL__N_117sanity_test_widenEc
FNDA:490,_ZN12_GLOBAL__N_116sanity_test_listEj
FNDA:490,_Z21sanity_test_range_fmtv
FNF:4
FNH:4
DA:14,490
DA:16,490
DA:17,490
DA:24,490
DA:26,490
DA:27,49490
DA:28,49000
DA:30,490
DA:33,49490
DA:34,49000
DA:36,98490
DA:39,490
DA:46,490
DA:48,490
DA:49,490
DA:50,490
DA:51,490
DA:52,490
DA:53,490
DA:54,0
DA:56,490
DA:58,490
DA:60,490
LF:23
LH:22
end_of_record
TN:
SF:/home/apetrini/dev/src/zen/src/compressor.cpp
FN:12,_ZNK17CScriptCompressor9IsToKeyIDER6CKeyID
FN:23,_ZNK17CScriptCompressor12IsToScriptIDER9CScriptID
FN:33,_ZNK17CScriptCompressor10IsToPubKeyER7CPubKey
FN:48,_ZNK17CScriptCompressor8CompressERSt6vectorIhSaIhEE
FN:79,_ZNK17CScriptCompressor14GetSpecialSizeEj
FN:88,_ZN17CScriptCompressor10DecompressEjRKSt6vectorIhSaIhEE
FN:142,_ZN16CTxOutCompressor14CompressAmountEm
FN:161,_ZN16CTxOutCompressor16DecompressAmountEm
FNDA:961222,_ZNK17CScriptCompressor12IsToScriptIDER9CScriptID
FNDA:409304,_ZNK17CScriptCompressor10IsToPubKeyER7CPubKey
FNDA:1237710,_ZNK17CScriptCompressor8CompressERSt6vectorIhSaIhEE
FNDA:1237710,_ZNK17CScriptCompressor9IsToKeyIDER6CKeyID
FNDA:152650,_ZNK17CScriptCompressor14GetSpecialSizeEj
FNDA:152650,_ZN17CScriptCompressor10DecompressEjRKSt6vectorIhSaIhEE
FNDA:156956,_ZN16CTxOutCompressor16DecompressAmountEm
FNDA:1237710,_ZN16CTxOutCompressor14CompressAmountEm
FNF:8
FNH:8
DA:12,1237710
DA:14,1237710
DA:15,276488
DA:16,1514198
DA:17,276488
DA:18,276488
DA:23,961222
DA:25,961222
DA:26,1513140
DA:27,551918
DA:28,551918
DA:33,409304
DA:35,409304
DA:36,409304
DA:37,0
DA:38,0
DA:40,0
DA:41,409304
DA:42,0
DA:43,0
DA:48,1237710
DA:50,1237710
DA:51,1237710
DA:52,276488
DA:53,276488
DA:54,276488
DA:55,276488
DA:57,961222
DA:58,961222
DA:59,551918
DA:60,551918
DA:61,551918
DA:62,551918
DA:64,409304
DA:65,409304
DA:66,0
DA:67,0
DA:68,0
DA:69,0
DA:70,0
DA:71,0
DA:72,0
DA:73,0
DA:79,152650
DA:81,152650
DA:83,0
DA:84,0
DA:88,152650
DA:90,152650
DA:91,48057
DA:92,48057
DA:93,48057
DA:94,48057
DA:95,48057
DA:96,48057
DA:97,48057
DA:98,48057
DA:99,48057
DA:100,104593
DA:101,104593
DA:102,104593
DA:103,104593
DA:104,104593
DA:105,104593
DA:106,104593
DA:107,0
DA:108,0
DA:109,0
DA:110,0
DA:111,0
DA:112,0
DA:113,0
DA:114,0
DA:115,0
DA:116,0
DA:117,0
DA:118,0
DA:119,0
DA:120,0
DA:121,0
DA:123,0
DA:124,0
DA:125,0
DA:126,0
DA:127,0
DA:128,0
DA:142,1237710
DA:144,1237710
DA:147,6967961
DA:148,5730465
DA:149,5730465
DA:151,1237496
DA:152,1237089
DA:153,1237089
DA:154,1237089
DA:155,1237089
DA:157,407
DA:161,156956
DA:164,156956
DA:166,156847
DA:168,156847
DA:169,156847
DA:170,156847
DA:171,156847
DA:173,156809
DA:174,156809
DA:176,156809
DA:178,38
DA:180,1069274
DA:181,912427
DA:182,912427
LF:111
LH:75
end_of_record
TN:
SF:/home/apetrini/dev/src/zen/src/compressor.h
FN:67,_ZNK17CScriptCompressor9SerializeI13CSizeComputerEEvRT_ii
FN:67,_ZNK17CScriptCompressor9SerializeI11CHashWriterEEvRT_ii
FN:67,_ZNK17CScriptCompressor9SerializeI15CBaseDataStreamISt6vectorIc25zero_after_free_allocatorIcEEEEEvRT_ii
FN:67,_ZNK17CScriptCompressor9SerializeI9CAutoFileEEvRT_ii
FN:79,_ZN17CScriptCompressor11UnserializeI9CAutoFileEEvRT_ii
FN:79,_ZN17CScriptCompressor11UnserializeI15CBaseDataStreamISt6vectorIc25zero_after_free_allocatorIcEEEEEvRT_ii
FN:112,_ZNK16CTxOutCompressor16GetSerializeSizeEii
FN:115,_ZN16CTxOutCompressor15SerializationOpI9CAutoFile21CSerActionUnserializeEEvRT_T0_ii
FN:115,_ZN16CTxOutCompressor15SerializationOpI15CBaseDataStreamISt6vectorIc25zero_after_free_allocatorIcEEE19CSerActionSerializeEEvRT_T0_ii
FN:115,_ZN16CTxOutCompressor15SerializationOpI9CAutoFile19CSerActionSerializeEEvRT_T0_ii
FN:115,_ZN16CTxOutCompressor15SerializationOpI11CHashWriter19CSerActionSerializeEEvRT_T0_ii
FN:115,_ZN16CTxOutCompressor15SerializationOpI13CSizeComputer19CSerActionSerializeEEvRT_T0_ii
FN:115,_ZN16CTxOutCompressor15SerializationOpI15CBaseDataStreamISt6vectorIc25zero_after_free_allocatorIcEEE21CSerActionUnserializeEEvRT_T0_ii
FNDA:394177,_ZNK16CTxOutCompressor16GetSerializeSizeEii
FNDA:614299,_ZN16CTxOutCompressor15SerializationOpI13CSizeComputer19CSerActionSerializeEEvRT_T0_ii
FNDA:147844,_ZN17CScriptCompressor11UnserializeI15CBaseDataStreamISt6vectorIc25zero_after_free_allocatorIcEEEEEvRT_ii
FNDA:147844,_ZN16CTxOutCompressor15SerializationOpI15CBaseDataStreamISt6vectorIc25zero_after_free_allocatorIcEEE21CSerActionUnserializeEEvRT_T0_ii
FNDA:394177,_ZN16CTxOutCompressor15SerializationOpI15CBaseDataStreamISt6vectorIc25zero_after_free_allocatorIcEEE19CSerActionSerializeEEvRT_T0_ii
FNDA:394177,_ZNK17CScriptCompressor9SerializeI15CBaseDataStreamISt6vectorIc25zero_after_free_allocatorIcEEEEEvRT_ii
FNDA:70329,_ZN16CTxOutCompressor15SerializationOpI9CAutoFile19CSerActionSerializeEEvRT_T0_ii
FNDA:158905,_ZN16CTxOutCompressor15SerializationOpI11CHashWriter19CSerActionSerializeEEvRT_T0_ii
FNDA:70329,_ZNK17CScriptCompressor9SerializeI9CAutoFileEEvRT_ii
FNDA:9112,_ZN17CScriptCompressor11UnserializeI9CAutoFileEEvRT_ii
FNDA:9112,_ZN16CTxOutCompressor15SerializationOpI9CAutoFile21CSerActionUnserializeEEvRT_T0_ii
FNDA:158905,_ZNK17CScriptCompressor9SerializeI11CHashWriterEEvRT_ii
FNDA:614299,_ZNK17CScriptCompressor9SerializeI13CSizeComputerEEvRT_ii
FNF:13
FNH:13
DA:56,1394666
DA:67,1237710
DA:68,1237710
DA:69,1237710
DA:70,828406
DA:71,828406
DA:73,409304
DA:74,409304
DA:75,960181
DA:76,1237710
DA:79,156956
DA:80,156956
DA:81,156956
DA:82,156956
DA:83,152650
DA:84,152650
DA:85,152650
DA:86,152650
DA:87,152650
DA:88,4306
DA:89,4306
DA:91,0
DA:92,0
DA:94,4306
DA:95,8612
DA:110,1394666
DA:112,1394666
DA:115,1394666
DA:117,1237710
DA:118,1237710
DA:120,156956
DA:121,156956
DA:122,156956
DA:124,1394666
DA:125,1394666
DA:126,1394666
LF:36
LH:34
end_of_record
TN:
SF:/home/apetrini/dev/src/zen/src/consensus/params.h
FNF:0
FNH:0
DA:37,1929726
DA:39,1929726
DA:40,1929726
DA:52,547350
DA:53,182450
DA:54,182450
LF:6
LH:6
end_of_record
TN:
SF:/home/apetrini/dev/src/zen/src/consensus/validation.h
FN:61,_ZN16CValidationState7InvalidEbNS_4CodeENSt7__cxx1112basic_stringIcSt11char_traitsIcESaIcEEE
FNDA:38,_ZN16CValidationState7InvalidEbNS_4CodeENSt7__cxx1112basic_stringIcSt11char_traitsIcESaIcEEE
FNF:1
FNH:1
DA:15,18760258
DA:16,18760258
DA:48,189
DA:51,189
DA:52,151
DA:53,189
DA:54,189
DA:56,189
DA:57,189
DA:58,189
DA:61,38
DA:63,76
DA:66,0
DA:68,0
DA:69,0
DA:70,0
DA:71,0
DA:74,59194
DA:75,96707
DA:76,22
DA:78,205
DA:80,7
DA:81,140
DA:82,183
LF:24
LH:19
end_of_record
TN:
SF:/home/apetrini/dev/src/zen/src/core_io.h
FN:39,_Z19makeSerializedTxObjI11CDataStreamEvRT_iRSt10unique_ptrI16CTransactionBaseSt14default_deleteIS4_EEii
FNDA:23606,_Z19makeSerializedTxObjI11CDataStreamEvRT_iRSt10unique_ptrI16CTransactionBaseSt14default_deleteIS4_EEii
FNF:1
FNH:1
DA:39,23606
DA:41,23606
DA:43,23260
DA:44,23260
DA:45,23260
DA:46,23260
DA:48,346
DA:50,346
DA:51,346
DA:52,346
DA:53,346
DA:62,23606
LF:12
LH:12
end_of_record
TN:
SF:/home/apetrini/dev/src/zen/src/core_memusage.h
FN:33,_ZL21RecursiveDynamicUsageRK16CTxScCreationOut
FN:44,_ZL21RecursiveDynamicUsageRK12CTransaction
FN:71,_ZL21RecursiveDynamicUsageRK14CScCertificate
FNDA:35833,_ZL21RecursiveDynamicUsageRK12CTransaction
FNDA:786,_ZL21RecursiveDynamicUsageRK14CScCertificate
FNDA:286,_ZL21RecursiveDynamicUsageRK16CTxScCreationOut
FNF:3
FNH:3
DA:12,138993319
DA:13,138993319
DA:20,69158
DA:21,69158
DA:24,70348
DA:25,70348
DA:28,212
DA:30,212
DA:33,286
DA:35,286
DA:36,286
DA:37,286
DA:44,35833
DA:45,35833
DA:46,35833
DA:47,104039
DA:48,68206
DA:50,35833
DA:51,104178
DA:52,68345
DA:55,35833
DA:56,36045
DA:57,212
DA:60,35833
DA:61,36119
DA:62,286
DA:66,35833
DA:67,35833
DA:68,35833
DA:71,786
DA:72,786
DA:73,786
DA:74,1738
DA:75,952
DA:77,786
DA:78,2789
DA:79,2003
DA:81,786
LF:38
LH:38
end_of_record
TN:
SF:/home/apetrini/dev/src/zen/src/core_read.cpp
FN:26,_Z11ParseScriptRKNSt7__cxx1112basic_stringIcSt11char_traitsIcESaIcEEE
FN:94,_Z11DecodeHexTxR12CTransactionRKNSt7__cxx1112basic_stringIcSt11char_traitsIcESaIcEEE
FN:111,_Z13DecodeHexCertR14CScCertificateRKNSt7__cxx1112basic_stringIcSt11char_traitsIcESaIcEEE
FN:128,_Z9DecodeHexRSt10unique_ptrI16CTransactionBaseSt14default_deleteIS0_EERKNSt7__cxx1112basic_stringIcSt11char_traitsIcESaIcEEE
FN:147,_Z12DecodeHexBlkR6CBlockRKNSt7__cxx1112basic_stringIcSt11char_traitsIcESaIcEEE
FN:164,_Z11ParseHashUVRK8UniValueRKNSt7__cxx1112basic_stringIcSt11char_traitsIcESaIcEEE
FN:172,_Z12ParseHashStrRKNSt7__cxx1112basic_stringIcSt11char_traitsIcESaIcEEES6_
FN:182,_Z10ParseHexUVRK8UniValueRKNSt7__cxx1112basic_stringIcSt11char_traitsIcESaIcEEE
FNDA:0,_Z10ParseHexUVRK8UniValueRKNSt7__cxx1112basic_stringIcSt11char_traitsIcESaIcEEE
FNDA:9,_Z12ParseHashStrRKNSt7__cxx1112basic_stringIcSt11char_traitsIcESaIcEEES6_
FNDA:12120,_Z11DecodeHexTxR12CTransactionRKNSt7__cxx1112basic_stringIcSt11char_traitsIcESaIcEEE
FNDA:183,_Z13DecodeHexCertR14CScCertificateRKNSt7__cxx1112basic_stringIcSt11char_traitsIcESaIcEEE
FNDA:28,_Z12DecodeHexBlkR6CBlockRKNSt7__cxx1112basic_stringIcSt11char_traitsIcESaIcEEE
FNDA:0,_Z11ParseScriptRKNSt7__cxx1112basic_stringIcSt11char_traitsIcESaIcEEE
FNDA:54,_Z9DecodeHexRSt10unique_ptrI16CTransactionBaseSt14default_deleteIS0_EERKNSt7__cxx1112basic_stringIcSt11char_traitsIcESaIcEEE
FNDA:0,_Z11ParseHashUVRK8UniValueRKNSt7__cxx1112basic_stringIcSt11char_traitsIcESaIcEEE
FNF:8
FNH:5
DA:26,0
DA:28,0
DA:30,0
DA:32,0
DA:34,0
DA:37,0
DA:38,0
DA:40,0
DA:41,0
DA:42,0
DA:43,0
DA:44,0
DA:46,0
DA:47,0
DA:48,0
DA:51,0
DA:52,0
DA:54,0
DA:56,0
DA:60,0
DA:61,0
DA:64,0
DA:65,0
DA:67,0
DA:70,0
DA:71,0
DA:72,0
DA:73,0
DA:77,0
DA:78,0
DA:79,0
DA:80,0
DA:83,0
DA:87,0
DA:91,0
DA:92,0
DA:94,12120
DA:96,12120
DA:99,12119
DA:100,12119
DA:101,12119
DA:102,12119
DA:104,0
DA:105,0
DA:106,0
DA:109,24239
DA:111,183
DA:113,183
DA:116,183
DA:117,183
DA:118,183
DA:119,183
DA:121,0
DA:122,0
DA:123,0
DA:126,366
DA:128,54
DA:130,54
DA:133,54
DA:134,54
DA:135,54
DA:136,54
DA:137,54
DA:138,54
DA:140,0
DA:141,0
DA:142,0
DA:145,108
DA:147,28
DA:149,28
DA:152,28
DA:153,28
DA:154,28
DA:155,28
DA:157,6
DA:158,6
DA:159,6
DA:162,56
DA:164,0
DA:166,0
DA:167,0
DA:168,0
DA:169,0
DA:170,0
DA:172,9
DA:174,9
DA:175,0
DA:177,9
DA:178,9
DA:179,9
DA:182,0
DA:184,0
DA:185,0
DA:186,0
DA:187,0
DA:188,0
DA:189,0
DA:190,0
LF:98
LH:38
end_of_record
TN:
SF:/home/apetrini/dev/src/zen/src/core_write.cpp
FN:23,_Z12FormatScriptB5cxx11RK7CScript
FN:58,_Z11EncodeHexTxB5cxx11RK12CTransaction
FN:65,_Z13EncodeHexCertB5cxx11RK14CScCertificate
FN:72,_Z9EncodeHexB5cxx11RKSt10unique_ptrI16CTransactionBaseSt14default_deleteIS0_EE
FN:93,_Z18ScriptPubKeyToUnivRK7CScriptR8UniValueb
FN:118,_Z8TxToUnivRK12CTransactionRK7uint256R8UniValue
FNDA:853,_Z9EncodeHexB5cxx11RKSt10unique_ptrI16CTransactionBaseSt14default_deleteIS0_EE
FNDA:0,_Z18ScriptPubKeyToUnivRK7CScriptR8UniValueb
FNDA:2905,_Z11EncodeHexTxB5cxx11RK12CTransaction
FNDA:416,_Z13EncodeHexCertB5cxx11RK14CScCertificate
FNDA:0,_Z12FormatScriptB5cxx11RK7CScript
FNDA:0,_Z8TxToUnivRK12CTransactionRK7uint256R8UniValue
FNF:6
FNH:3
DA:23,0
DA:25,0
DA:26,0
DA:27,0
DA:28,0
DA:29,0
DA:30,0
DA:31,0
DA:32,0
DA:33,0
DA:34,0
DA:35,0
DA:36,0
DA:37,0
DA:38,0
DA:39,0
DA:40,0
DA:41,0
DA:42,0
DA:44,0
DA:45,0
DA:46,0
DA:48,0
DA:50,0
DA:51,0
DA:52,0
DA:53,0
DA:54,0
DA:55,0
DA:56,0
DA:58,2905
DA:60,2905
DA:61,2905
DA:62,2905
DA:63,2905
DA:65,416
DA:67,416
DA:68,416
DA:69,416
DA:70,416
DA:72,853
DA:74,853
DA:75,0
DA:78,853
DA:79,853
DA:80,853
DA:81,30
DA:82,30
DA:83,30
DA:84,823
DA:85,823
DA:86,823
DA:87,0
DA:88,0
DA:89,0
DA:90,853
DA:91,853
DA:93,0
DA:96,0
DA:97,0
DA:100,0
DA:101,0
DA:102,0
DA:104,0
DA:105,0
DA:106,0
DA:109,0
DA:110,0
DA:112,0
DA:113,0
DA:114,0
DA:115,0
DA:116,0
DA:118,0
DA:120,0
DA:121,0
DA:122,0
DA:124,0
DA:125,0
DA:126,0
DA:127,0
DA:128,0
DA:130,0
DA:131,0
DA:132,0
DA:133,0
DA:134,0
DA:135,0
DA:136,0
DA:137,0
DA:138,0
DA:139,0
DA:140,0
DA:142,0
DA:143,0
DA:144,0
DA:146,0
DA:148,0
DA:149,0
DA:150,0
DA:152,0
DA:153,0
DA:154,0
DA:155,0
DA:156,0
DA:157,0
DA:159,0
DA:160,0
DA:162,0
DA:163,0
LF:110
LH:23
end_of_record
TN:
SF:/home/apetrini/dev/src/zen/src/crypto/common.h
FN:75,_ZL9WriteBE32Phj
FN:81,_ZL9WriteBE64Phm
FN:87,_Z21init_and_check_sodiumv
FNDA:14261865,_ZL9WriteBE64Phm
FNDA:490,_Z21init_and_check_sodiumv
FNDA:211930128,_ZL9WriteBE32Phj
FNF:3
FNH:3
DA:25,0
DA:32,35066269
DA:43,0
DA:45,0
DA:46,0
DA:49,11900159
DA:51,11900159
DA:52,11900159
DA:55,371938
DA:57,371938
DA:58,371938
DA:61,635126895
DA:63,677468688
DA:64,677468688
DA:65,42341793
DA:68,720
DA:70,720
DA:71,720
DA:72,720
DA:75,211930128
DA:77,211930128
DA:78,211930128
DA:79,211930128
DA:81,14261865
DA:83,14261865
DA:84,14261865
DA:85,14261865
DA:87,490
DA:89,490
DA:95,490
DA:97,490
DA:98,490
DA:99,490
DA:101,490
DA:102,490
DA:104,490
DA:115,16170
DA:116,15680
DA:117,15680
DA:120,490
LF:40
LH:36
end_of_record
TN:
SF:/home/apetrini/dev/src/zen/src/crypto/equihash.cpp
FN:33,_ZN8EquihashILj48ELj5EE15InitialiseStateER32crypto_generichash_blake2b_state
FN:33,_ZN8EquihashILj96ELj5EE15InitialiseStateER32crypto_generichash_blake2b_state
FN:33,_ZN8EquihashILj96ELj3EE15InitialiseStateER32crypto_generichash_blake2b_state
FN:33,_ZN8EquihashILj200ELj9EE15InitialiseStateER32crypto_generichash_blake2b_state
FN:48,_Z12GenerateHashRK32crypto_generichash_blake2b_statejPhm
FN:59,_Z11ExpandArrayPKhmPhmmm
FN:102,_Z13CompressArrayPKhmPhmmm
FN:143,_Z14EhIndexToArrayjPh
FN:152,_Z14ArrayToEhIndexPKh
FN:160,_Z13TruncateIndexjj
FN:167,_Z15UntruncateIndexhjj
FN:173,_Z21GetIndicesFromMinimalSt6vectorIhSaIhEEm
FN:189,_Z21GetMinimalFromIndicesSt6vectorIjSaIjEEm
FN:207,_ZN7StepRowILm68EEC2EPKhmmm
FN:207,_ZN7StepRowILm262EEC2EPKhmmm
FN:207,_ZN7StepRowILm22EEC2EPKhmmm
FN:207,_ZN7StepRowILm18EEC2EPKhmmm
FN:207,_ZN7StepRowILm132EEC2EPKhmmm
FN:207,_ZN7StepRowILm13EEC2EPKhmmm
FN:207,_ZN7StepRowILm130EEC2EPKhmmm
FN:207,_ZN7StepRowILm20EEC2EPKhmmm
FN:207,_ZN7StepRowILm2054EEC2EPKhmmm
FN:207,_ZN7StepRowILm66EEC2EPKhmmm
FN:207,_ZN7StepRowILm38EEC2EPKhmmm
FN:207,_ZN7StepRowILm1030EEC2EPKhmmm
FN:215,_ZN7StepRowILm38EEC2ILm22EEERKS_IXT_EE
FN:215,_ZN7StepRowILm132EEC2ILm68EEERKS_IXT_EE
FN:215,_ZN7StepRowILm518EEC2ILm262EEERKS_IXT_EE
FN:215,_ZN7StepRowILm34EEC2ILm18EEERKS_IXT_EE
FN:215,_ZN7StepRowILm36EEC2ILm20EEERKS_IXT_EE
FN:215,_ZN7StepRowILm2054EEC2ILm1030EEERKS_IXT_EE
FN:215,_ZN7StepRowILm14EEC2ILm13EEERKS_IXT_EE
FN:215,_ZN7StepRowILm130EEC2ILm66EEERKS_IXT_EE
FN:222,_ZN11FullStepRowILm68EEC2EPKhmmmj
FN:222,_ZN11FullStepRowILm38EEC2EPKhmmmj
FN:222,_ZN11FullStepRowILm22EEC2EPKhmmmj
FN:222,_ZN11FullStepRowILm66EEC2EPKhmmmj
FN:222,_ZN11FullStepRowILm2054EEC2EPKhmmmj
FN:222,_ZN11FullStepRowILm1030EEC2EPKhmmmj
FN:222,_ZN11FullStepRowILm130EEC2EPKhmmmj
FN:222,_ZN11FullStepRowILm132EEC2EPKhmmmj
FN:230,_ZN11FullStepRowILm66EEC2ILm66EEERKS_IXT_EES4_mmi
FN:230,_ZN11FullStepRowILm132EEC2ILm132EEERKS_IXT_EES4_mmi
FN:230,_ZN11FullStepRowILm2054EEC2ILm2054EEERKS_IXT_EES4_mmi
FN:230,_ZN11FullStepRowILm2054EEC2ILm1030EEERKS_IXT_EES4_mmi
FN:230,_ZN11FullStepRowILm1030EEC2ILm1030EEERKS_IXT_EES4_mmi
FN:230,_ZN11FullStepRowILm22EEC2ILm22EEERKS_IXT_EES4_mmi
FN:230,_ZN11FullStepRowILm68EEC2ILm68EEERKS_IXT_EES4_mmi
FN:230,_ZN11FullStepRowILm130EEC2ILm66EEERKS_IXT_EES4_mmi
FN:230,_ZN11FullStepRowILm38EEC2ILm38EEERKS_IXT_EES4_mmi
FN:230,_ZN11FullStepRowILm132EEC2ILm68EEERKS_IXT_EES4_mmi
FN:230,_ZN11FullStepRowILm130EEC2ILm130EEERKS_IXT_EES4_mmi
FN:230,_ZN11FullStepRowILm38EEC2ILm22EEERKS_IXT_EES4_mmi
FN:247,_ZN11FullStepRowILm132EEaSERKS0_
FN:247,_ZN11FullStepRowILm2054EEaSERKS0_
FN:247,_ZN11FullStepRowILm66EEaSERKS0_
FN:247,_ZN11FullStepRowILm22EEaSERKS0_
FN:247,_ZN11FullStepRowILm1030EEaSERKS0_
FN:247,_ZN11FullStepRowILm38EEaSERKS0_
FN:247,_ZN11FullStepRowILm130EEaSERKS0_
FN:247,_ZN11FullStepRowILm68EEaSERKS0_
FN:254,_ZN7StepRowILm20EE6IsZeroEm
FN:254,_ZN7StepRowILm262EE6IsZeroEm
FN:254,_ZN7StepRowILm130EE6IsZeroEm
FN:254,_ZN7StepRowILm18EE6IsZeroEm
FN:254,_ZN7StepRowILm2054EE6IsZeroEm
FN:254,_ZN7StepRowILm132EE6IsZeroEm
FN:254,_ZN7StepRowILm38EE6IsZeroEm
FN:254,_ZN7StepRowILm13EE6IsZeroEm
FN:265,_ZNK11FullStepRowILm2054EE10GetIndicesEmmm
FN:265,_ZNK11FullStepRowILm130EE10GetIndicesEmmm
FN:265,_ZNK11FullStepRowILm132EE10GetIndicesEmmm
FN:265,_ZNK11FullStepRowILm38EE10GetIndicesEmmm
FN:277,_Z12HasCollisionILm130EEbR7StepRowIXT_EES2_i
FN:277,_Z12HasCollisionILm2054EEbR7StepRowIXT_EES2_i
FN:277,_Z12HasCollisionILm262EEbR7StepRowIXT_EES2_i
FN:277,_Z12HasCollisionILm22EEbR7StepRowIXT_EES2_i
FN:277,_Z12HasCollisionILm66EEbR7StepRowIXT_EES2_i
FN:277,_Z12HasCollisionILm18EEbR7StepRowIXT_EES2_i
FN:277,_Z12HasCollisionILm20EEbR7StepRowIXT_EES2_i
FN:277,_Z12HasCollisionILm132EEbR7StepRowIXT_EES2_i
FN:277,_Z12HasCollisionILm13EEbR7StepRowIXT_EES2_i
FN:277,_Z12HasCollisionILm1030EEbR7StepRowIXT_EES2_i
FN:277,_Z12HasCollisionILm68EEbR7StepRowIXT_EES2_i
FN:277,_Z12HasCollisionILm38EEbR7StepRowIXT_EES2_i
FN:288,_ZN16TruncatedStepRowILm18EEC2EPKhmmmjj
FN:288,_ZN16TruncatedStepRowILm20EEC2EPKhmmmjj
FN:288,_ZN16TruncatedStepRowILm13EEC2EPKhmmmjj
FN:288,_ZN16TruncatedStepRowILm262EEC2EPKhmmmjj
FN:297,_ZN16TruncatedStepRowILm36EEC2ILm20EEERKS_IXT_EES4_mmi
FN:297,_ZN16TruncatedStepRowILm262EEC2ILm262EEERKS_IXT_EES4_mmi
FN:297,_ZN16TruncatedStepRowILm518EEC2ILm262EEERKS_IXT_EES4_mmi
FN:297,_ZN16TruncatedStepRowILm18EEC2ILm18EEERKS_IXT_EES4_mmi
FN:297,_ZN16TruncatedStepRowILm14EEC2ILm13EEERKS_IXT_EES4_mmi
FN:297,_ZN16TruncatedStepRowILm13EEC2ILm13EEERKS_IXT_EES4_mmi
FN:297,_ZN16TruncatedStepRowILm34EEC2ILm18EEERKS_IXT_EES4_mmi
FN:297,_ZN16TruncatedStepRowILm20EEC2ILm20EEERKS_IXT_EES4_mmi
FN:314,_ZN16TruncatedStepRowILm20EEaSERKS0_
FN:314,_ZN16TruncatedStepRowILm13EEaSERKS0_
FN:314,_ZN16TruncatedStepRowILm18EEaSERKS0_
FN:314,_ZN16TruncatedStepRowILm262EEaSERKS0_
FN:321,_ZNK16TruncatedStepRowILm36EE19GetTruncatedIndicesEmm
FN:321,_ZNK16TruncatedStepRowILm18EE19GetTruncatedIndicesEmm
FN:321,_ZNK16TruncatedStepRowILm518EE19GetTruncatedIndicesEmm
FN:321,_ZNK16TruncatedStepRowILm34EE19GetTruncatedIndicesEmm
FN:321,_ZNK16TruncatedStepRowILm14EE19GetTruncatedIndicesEmm
FN:321,_ZNK16TruncatedStepRowILm20EE19GetTruncatedIndicesEmm
FN:321,_ZNK16TruncatedStepRowILm262EE19GetTruncatedIndicesEmm
FN:321,_ZNK16TruncatedStepRowILm13EE19GetTruncatedIndicesEmm
FN:330,_ZN8EquihashILj48ELj5EE10BasicSolveERK32crypto_generichash_blake2b_stateSt8functionIFbSt6vectorIhSaIhEEEES4_IFb19EhSolverCancelCheckEE
FN:330,_ZN8EquihashILj96ELj3EE10BasicSolveERK32crypto_generichash_blake2b_stateSt8functionIFbSt6vectorIhSaIhEEEES4_IFb19EhSolverCancelCheckEE
FN:330,_ZN8EquihashILj96ELj5EE10BasicSolveERK32crypto_generichash_blake2b_stateSt8functionIFbSt6vectorIhSaIhEEEES4_IFb19EhSolverCancelCheckEE
FN:330,_ZN8EquihashILj200ELj9EE10BasicSolveERK32crypto_generichash_blake2b_stateSt8functionIFbSt6vectorIhSaIhEEEES4_IFb19EhSolverCancelCheckEE
FN:449,_Z15CollideBranchesILm2054EEvRSt6vectorI11FullStepRowIXT_EESaIS2_EEmmjjhh
FN:449,_Z15CollideBranchesILm132EEvRSt6vectorI11FullStepRowIXT_EESaIS2_EEmmjjhh
FN:449,_Z15CollideBranchesILm130EEvRSt6vectorI11FullStepRowIXT_EESaIS2_EEmmjjhh
FN:449,_Z15CollideBranchesILm38EEvRSt6vectorI11FullStepRowIXT_EESaIS2_EEmmjjhh
FN:501,_ZN8EquihashILj96ELj5EE14OptimisedSolveERK32crypto_generichash_blake2b_stateSt8functionIFbSt6vectorIhSaIhEEEES4_IFb19EhSolverCancelCheckEE
FN:501,_ZN8EquihashILj200ELj9EE14OptimisedSolveERK32crypto_generichash_blake2b_stateSt8functionIFbSt6vectorIhSaIhEEEES4_IFb19EhSolverCancelCheckEE
FN:501,_ZN8EquihashILj48ELj5EE14OptimisedSolveERK32crypto_generichash_blake2b_stateSt8functionIFbSt6vectorIhSaIhEEEES4_IFb19EhSolverCancelCheckEE
FN:501,_ZN8EquihashILj96ELj3EE14OptimisedSolveERK32crypto_generichash_blake2b_stateSt8functionIFbSt6vectorIhSaIhEEEES4_IFb19EhSolverCancelCheckEE
FN:729,_ZN8EquihashILj96ELj3EE15IsValidSolutionERK32crypto_generichash_blake2b_stateSt6vectorIhSaIhEE
FN:729,_ZN8EquihashILj48ELj5EE15IsValidSolutionERK32crypto_generichash_blake2b_stateSt6vectorIhSaIhEE
FN:729,_ZN8EquihashILj96ELj5EE15IsValidSolutionERK32crypto_generichash_blake2b_stateSt6vectorIhSaIhEE
FN:729,_ZN8EquihashILj200ELj9EE15IsValidSolutionERK32crypto_generichash_blake2b_stateSt6vectorIhSaIhEE
FNDA:0,_ZN16TruncatedStepRowILm36EEC2ILm20EEERKS_IXT_EES4_mmi
FNDA:0,_ZNK16TruncatedStepRowILm36EE19GetTruncatedIndicesEmm
FNDA:0,_ZN8EquihashILj96ELj3EE15IsValidSolutionERK32crypto_generichash_blake2b_stateSt6vectorIhSaIhEE
FNDA:714331,_ZN8EquihashILj48ELj5EE15InitialiseStateER32crypto_generichash_blake2b_state
FNDA:0,_ZN11FullStepRowILm132EEC2ILm132EEERKS_IXT_EES4_mmi
FNDA:0,_ZN16TruncatedStepRowILm18EEC2EPKhmmmjj
FNDA:0,_Z15CollideBranchesILm2054EEvRSt6vectorI11FullStepRowIXT_EESaIS2_EEmmjjhh
FNDA:675162,_ZN7StepRowILm130EE6IsZeroEm
FNDA:0,_ZNK16TruncatedStepRowILm18EE19GetTruncatedIndicesEmm
FNDA:0,_Z12HasCollisionILm22EEbR7StepRowIXT_EES2_i
FNDA:0,_ZN7StepRowILm22EEC2EPKhmmm
FNDA:0,_ZN8EquihashILj96ELj5EE15InitialiseStateER32crypto_generichash_blake2b_state
FNDA:0,_Z12HasCollisionILm262EEbR7StepRowIXT_EES2_i
FNDA:670773,_Z13CompressArrayPKhmPhmmm
FNDA:0,_ZN7StepRowILm38EEC2ILm22EEERKS_IXT_EE
FNDA:0,_ZN7StepRowILm68EEC2EPKhmmm
FNDA:0,_Z12HasCollisionILm2054EEbR7StepRowIXT_EES2_i
FNDA:20930022,_Z12HasCollisionILm130EEbR7StepRowIXT_EES2_i
FNDA:1797370095,_ZN11FullStepRowILm66EEC2ILm66EEERKS_IXT_EES4_mmi
FNDA:0,_ZN7StepRowILm262EE6IsZeroEm
FNDA:0,_ZN7StepRowILm20EE6IsZeroEm
FNDA:0,_ZN7StepRowILm262EEC2EPKhmmm
FNDA:0,_ZN11FullStepRowILm132EEaSERKS0_
FNDA:0,_ZN16TruncatedStepRowILm518EEC2ILm262EEERKS_IXT_EES4_mmi
FNDA:0,_ZN8EquihashILj96ELj3EE15InitialiseStateER32crypto_generichash_blake2b_state
FNDA:0,_ZN7StepRowILm132EEC2EPKhmmm
FNDA:0,_ZNK16TruncatedStepRowILm34EE19GetTruncatedIndicesEmm
FNDA:15780309016,_ZN11FullStepRowILm66EEaSERKS0_
FNDA:0,_ZN7StepRowILm36EEC2ILm20EEERKS_IXT_EE
FNDA:0,_Z21GetMinimalFromIndicesSt6vectorIjSaIjEEm
FNDA:670773,_ZNK11FullStepRowILm130EE10GetIndicesEmmm
FNDA:0,_ZN16TruncatedStepRowILm262EEC2ILm262EEERKS_IXT_EES4_mmi
FNDA:0,_ZN8EquihashILj96ELj5EE14OptimisedSolveERK32crypto_generichash_blake2b_stateSt8functionIFbSt6vectorIhSaIhEEEES4_IFb19EhSolverCancelCheckEE
FNDA:0,_ZNK16TruncatedStepRowILm518EE19GetTruncatedIndicesEmm
FNDA:0,_ZN11FullStepRowILm2054EEC2ILm1030EEERKS_IXT_EES4_mmi
FNDA:0,_ZNK11FullStepRowILm132EE10GetIndicesEmmm
FNDA:0,_ZN8EquihashILj96ELj3EE10BasicSolveERK32crypto_generichash_blake2b_stateSt8functionIFbSt6vectorIhSaIhEEEES4_IFb19EhSolverCancelCheckEE
FNDA:675162,_ZN8EquihashILj48ELj5EE15IsValidSolutionERK32crypto_generichash_blake2b_stateSt6vectorIhSaIhEE
FNDA:0,_ZN7StepRowILm13EEC2EPKhmmm
FNDA:21605184,_ZN7StepRowILm130EEC2EPKhmmm
FNDA:70639468,_Z12GenerateHashRK32crypto_generichash_blake2b_statejPhm
FNDA:0,_ZN7StepRowILm132EEC2ILm68EEERKS_IXT_EE
FNDA:2264601552,_Z12HasCollisionILm66EEbR7StepRowIXT_EES2_i
FNDA:0,_ZNK11FullStepRowILm2054EE10GetIndicesEmmm
FNDA:0,_ZN7StepRowILm2054EE6IsZeroEm
FNDA:0,_ZN7StepRowILm18EE6IsZeroEm
FNDA:0,_ZN7StepRowILm18EEC2EPKhmmm
FNDA:942967,_ZN8EquihashILj48ELj5EE10BasicSolveERK32crypto_generichash_blake2b_stateSt8functionIFbSt6vectorIhSaIhEEEES4_IFb19EhSolverCancelCheckEE
FNDA:0,_ZN16TruncatedStepRowILm13EEC2EPKhmmmjj
FNDA:0,_ZN11FullStepRowILm2054EEaSERKS0_
FNDA:0,_ZN7StepRowILm34EEC2ILm18EEERKS_IXT_EE
FNDA:0,_ZN11FullStepRowILm38EEC2EPKhmmmj
FNDA:0,_Z12HasCollisionILm20EEbR7StepRowIXT_EES2_i
FNDA:0,_ZN7StepRowILm518EEC2ILm262EEERKS_IXT_EE
FNDA:0,_ZN11FullStepRowILm2054EEC2ILm2054EEERKS_IXT_EES4_mmi
FNDA:0,_Z12HasCollisionILm18EEbR7StepRowIXT_EES2_i
FNDA:0,_ZN11FullStepRowILm68EEC2EPKhmmmj
FNDA:0,_ZN16TruncatedStepRowILm20EEC2EPKhmmmjj
FNDA:0,_ZN7StepRowILm2054EEC2EPKhmmm
FNDA:0,_ZN16TruncatedStepRowILm20EEaSERKS0_
FNDA:0,_Z15CollideBranchesILm132EEvRSt6vectorI11FullStepRowIXT_EESaIS2_EEmmjjhh
FNDA:482799104,_ZN11FullStepRowILm66EEC2EPKhmmmj
FNDA:0,_ZN11FullStepRowILm22EEC2ILm22EEERKS_IXT_EES4_mmi
FNDA:0,_Z15UntruncateIndexhjj
FNDA:0,_ZN7StepRowILm14EEC2ILm13EEERKS_IXT_EE
FNDA:0,_ZN7StepRowILm2054EEC2ILm1030EEERKS_IXT_EE
FNDA:0,_ZN8EquihashILj48ELj5EE14OptimisedSolveERK32crypto_generichash_blake2b_stateSt8functionIFbSt6vectorIhSaIhEEEES4_IFb19EhSolverCancelCheckEE
FNDA:0,_ZN11FullStepRowILm68EEC2ILm68EEERKS_IXT_EES4_mmi
FNDA:0,_ZN11FullStepRowILm38EEaSERKS0_
FNDA:0,_Z12HasCollisionILm1030EEbR7StepRowIXT_EES2_i
FNDA:0,_ZN11FullStepRowILm1030EEaSERKS0_
FNDA:0,_ZNK16TruncatedStepRowILm20EE19GetTruncatedIndicesEmm
FNDA:0,_ZNK16TruncatedStepRowILm14EE19GetTruncatedIndicesEmm
FNDA:0,_ZN7StepRowILm20EEC2EPKhmmm
FNDA:0,_ZN7StepRowILm132EE6IsZeroEm
FNDA:0,_ZN8EquihashILj200ELj9EE14OptimisedSolveERK32crypto_generichash_blake2b_stateSt8functionIFbSt6vectorIhSaIhEEEES4_IFb19EhSolverCancelCheckEE
FNDA:0,_ZN8EquihashILj200ELj9EE15InitialiseStateER32crypto_generichash_blake2b_state
FNDA:504404288,_Z14EhIndexToArrayjPh
FNDA:0,_ZN11FullStepRowILm22EEaSERKS0_
FNDA:0,_Z12HasCollisionILm13EEbR7StepRowIXT_EES2_i
FNDA:0,_ZN16TruncatedStepRowILm18EEC2ILm18EEERKS_IXT_EES4_mmi
FNDA:0,_ZN11FullStepRowILm1030EEC2ILm1030EEERKS_IXT_EES4_mmi
FNDA:505079450,_Z11ExpandArrayPKhmPhmmm
FNDA:0,_ZN11FullStepRowILm22EEC2EPKhmmmj
FNDA:0,_Z12HasCollisionILm132EEbR7StepRowIXT_EES2_i
FNDA:20930022,_ZN11FullStepRowILm130EEaSERKS0_
FNDA:0,_ZN16TruncatedStepRowILm20EEC2ILm20EEERKS_IXT_EES4_mmi
FNDA:0,_ZN7StepRowILm38EEC2EPKhmmm
FNDA:0,_ZNK16TruncatedStepRowILm262EE19GetTruncatedIndicesEmm
FNDA:0,_ZN16TruncatedStepRowILm262EEC2EPKhmmmjj
FNDA:0,_Z12HasCollisionILm38EEbR7StepRowIXT_EES2_i
FNDA:0,_ZN11FullStepRowILm38EEC2ILm38EEERKS_IXT_EES4_mmi
FNDA:0,_ZN11FullStepRowILm132EEC2ILm68EEERKS_IXT_EES4_mmi
FNDA:0,_ZN8EquihashILj96ELj3EE14OptimisedSolveERK32crypto_generichash_blake2b_stateSt8functionIFbSt6vectorIhSaIhEEEES4_IFb19EhSolverCancelCheckEE
FNDA:482799104,_ZN7StepRowILm66EEC2EPKhmmm
FNDA:0,_ZN7StepRowILm13EE6IsZeroEm
FNDA:0,_ZN16TruncatedStepRowILm34EEC2ILm18EEERKS_IXT_EES4_mmi
FNDA:0,_ZN16TruncatedStepRowILm13EEC2ILm13EEERKS_IXT_EES4_mmi
FNDA:0,_ZN8EquihashILj200ELj9EE10BasicSolveERK32crypto_generichash_blake2b_stateSt8functionIFbSt6vectorIhSaIhEEEES4_IFb19EhSolverCancelCheckEE
FNDA:0,_ZN8EquihashILj96ELj5EE10BasicSolveERK32crypto_generichash_blake2b_stateSt8functionIFbSt6vectorIhSaIhEEEES4_IFb19EhSolverCancelCheckEE
FNDA:0,_ZN8EquihashILj200ELj9EE15IsValidSolutionERK32crypto_generichash_blake2b_stateSt6vectorIhSaIhEE
FNDA:0,_ZN11FullStepRowILm68EEaSERKS0_
FNDA:0,_ZN11FullStepRowILm38EEC2ILm22EEERKS_IXT_EES4_mmi
FNDA:0,_ZNK11FullStepRowILm38EE10GetIndicesEmmm
FNDA:20930022,_ZN11FullStepRowILm130EEC2ILm130EEERKS_IXT_EES4_mmi
FNDA:0,_ZN11FullStepRowILm132EEC2EPKhmmmj
FNDA:0,_ZN7StepRowILm1030EEC2EPKhmmm
FNDA:0,_ZNK16TruncatedStepRowILm13EE19GetTruncatedIndicesEmm
FNDA:0,_ZN16TruncatedStepRowILm262EEaSERKS0_
FNDA:0,_ZN11FullStepRowILm2054EEC2EPKhmmmj
FNDA:21605184,_Z14ArrayToEhIndexPKh
FNDA:675162,_Z21GetIndicesFromMinimalSt6vectorIhSaIhEEm
FNDA:0,_ZN8EquihashILj96ELj5EE15IsValidSolutionERK32crypto_generichash_blake2b_stateSt6vectorIhSaIhEE
FNDA:0,_ZN16TruncatedStepRowILm13EEaSERKS0_
FNDA:0,_Z15CollideBranchesILm130EEvRSt6vectorI11FullStepRowIXT_EESaIS2_EEmmjjhh
FNDA:11853680,_ZN7StepRowILm130EEC2ILm66EEERKS_IXT_EE
FNDA:0,_Z13TruncateIndexjj
FNDA:0,_Z15CollideBranchesILm38EEvRSt6vectorI11FullStepRowIXT_EESaIS2_EEmmjjhh
FNDA:0,_Z12HasCollisionILm68EEbR7StepRowIXT_EES2_i
FNDA:0,_ZN7StepRowILm38EE6IsZeroEm
FNDA:21605184,_ZN11FullStepRowILm130EEC2EPKhmmmj
FNDA:0,_ZN11FullStepRowILm1030EEC2EPKhmmmj
FNDA:0,_ZN16TruncatedStepRowILm18EEaSERKS0_
FNDA:11853680,_ZN11FullStepRowILm130EEC2ILm66EEERKS_IXT_EES4_mmi
FNDA:0,_ZN16TruncatedStepRowILm14EEC2ILm13EEERKS_IXT_EES4_mmi
FNF:125
FNH:23
DA:33,714331
DA:35,714331
DA:36,714331
DA:37,714331
DA:38,714331
DA:39,714331
DA:40,714331
DA:41,714331
DA:45,714331
DA:48,70639468
DA:51,70639468
DA:52,70639468
DA:53,70639468
DA:54,70639468
DA:56,70639468
DA:57,70639468
DA:59,505079450
DA:63,505079450
DA:64,505079450
DA:66,505079450
DA:67,505079450
DA:69,505079450
DA:73,505079450
DA:74,505079450
DA:76,505079450
DA:77,3555811010
DA:78,3050731560
DA:79,3050731560
DA:83,3050731560
DA:84,3048030912
DA:85,3091241280
DA:86,43210368
DA:88,6117667008
DA:89,3069636096
DA:91,3069636096
DA:92,3069636096
DA:94,3069636096
DA:97,3048030912
DA:100,505079450
DA:102,670773
DA:106,670773
DA:107,670773
DA:109,670773
DA:110,670773
DA:112,670773
DA:116,670773
DA:117,670773
DA:119,670773
DA:120,24818601
DA:123,24147828
DA:124,21464736
DA:125,64394208
DA:126,42929472
DA:129,42929472
DA:130,42929472
DA:132,21464736
DA:133,21464736
DA:136,24147828
DA:137,24147828
DA:139,670773
DA:143,504404288
DA:145,504404288
DA:146,504404288
DA:147,504404288
DA:148,504404288
DA:152,21605184
DA:154,21605184
DA:155,21605184
DA:156,21605184
DA:157,21605184
DA:160,0
DA:163,0
DA:164,0
DA:167,0
DA:169,0
DA:170,0
DA:173,675162
DA:176,675162
DA:177,675162
DA:178,675162
DA:179,675162
DA:180,675162
DA:182,675162
DA:183,22280346
DA:184,21605184
DA:186,675162
DA:187,675162
DA:189,0
DA:192,0
DA:193,0
DA:194,0
DA:195,0
DA:196,0
DA:197,0
DA:198,0
DA:200,0
DA:201,0
DA:203,0
DA:204,0
DA:207,504404288
DA:210,504404288
DA:211,504404288
DA:212,504404288
DA:215,11853680
DA:218,11853680
DA:219,11853680
DA:222,504404288
DA:224,504404288
DA:226,504404288
DA:227,504404288
DA:230,1830153797
DA:231,1830153797
DA:233,1830153797
DA:234,1830153797
DA:235,8392861206
DA:236,6562707409
DA:237,1830153797
DA:238,925453174
DA:239,925453174
DA:241,904700623
DA:242,904700623
DA:244,1830153797
DA:247,15801239038
DA:249,15801239038
DA:250,15801239038
DA:254,675162
DA:257,1350324
DA:258,675162
DA:265,670773
DA:268,670773
DA:269,670773
DA:270,670773
DA:271,670773
DA:272,670773
DA:273,670773
DA:277,2285531574
DA:280,3580238414
DA:281,2479056327
DA:288,0
DA:291,0
DA:293,0
DA:294,0
DA:297,0
DA:298,0
DA:300,0
DA:301,0
DA:302,0
DA:303,0
DA:304,0
DA:305,0
DA:306,0
DA:308,0
DA:309,0
DA:311,0
DA:314,0
DA:316,0
DA:317,0
DA:321,0
DA:323,0
DA:324,0
DA:325,0
DA:330,942967
DA:334,942967
DA:337,942967
DA:338,942967
DA:339,942967
DA:340,942967
DA:341,942967
DA:343,49977251
DA:344,49034284
DA:345,531833388
DA:346,965598208
DA:347,482799104
DA:349,49034284
DA:353,4714835
DA:354,3771868
DA:356,3771868
DA:357,3771868
DA:358,3771868
DA:360,3771868
DA:361,3771868
DA:362,3771868
DA:363,829382136
DA:364,829382136
DA:367,1897776413
DA:368,1895223892
DA:369,1072166145
DA:373,1897776413
DA:374,2967528214
DA:375,1895362069
DA:376,1797370095
DA:382,2296425612
DA:383,1759157796
DA:384,2584768064
DA:387,825610268
DA:388,825610268
DA:392,2896053
DA:393,367799
DA:394,4139667
DA:397,3771868
DA:399,1207940
DA:400,2563928
DA:402,2528254
DA:403,3771868
DA:406,3771868
DA:407,3771868
DA:408,3771868
DA:412,942967
DA:413,942967
DA:414,942967
DA:415,942967
DA:416,942967
DA:417,942967
DA:419,362206442
DA:421,369388564
DA:422,369377660
DA:423,8085920
DA:426,369346073
DA:427,19936278
DA:428,11853680
DA:429,11853680
DA:430,670773
DA:431,670773
DA:432,670773
DA:433,39169
DA:435,670773
DA:439,361263475
DA:440,361263475
DA:443,0
DA:446,942967
DA:449,0
DA:451,0
DA:452,0
DA:453,0
DA:454,0
DA:457,0
DA:458,0
DA:459,0
DA:463,0
DA:464,0
DA:465,0
DA:466,0
DA:467,0
DA:468,0
DA:469,0
DA:476,0
DA:477,0
DA:478,0
DA:485,0
DA:486,0
DA:487,0
DA:490,0
DA:492,0
DA:493,0
DA:495,0
DA:496,0
DA:498,0
DA:501,0
DA:505,0
DA:506,0
DA:510,0
DA:511,0
DA:512,0
DA:516,0
DA:517,0
DA:518,0
DA:519,0
DA:520,0
DA:522,0
DA:523,0
DA:524,0
DA:525,0
DA:526,0
DA:528,0
DA:532,0
DA:533,0
DA:535,0
DA:536,0
DA:537,0
DA:538,0
DA:540,0
DA:541,0
DA:542,0
DA:543,0
DA:544,0
DA:547,0
DA:548,0
DA:549,0
DA:553,0
DA:554,0
DA:555,0
DA:557,0
DA:560,0
DA:561,0
DA:563,0
DA:569,0
DA:570,0
DA:571,0
DA:574,0
DA:575,0
DA:579,0
DA:580,0
DA:581,0
DA:584,0
DA:586,0
DA:587,0
DA:589,0
DA:590,0
DA:593,0
DA:594,0
DA:595,0
DA:596,0
DA:600,0
DA:601,0
DA:602,0
DA:603,0
DA:604,0
DA:605,0
DA:606,0
DA:608,0
DA:610,0
DA:611,0
DA:612,0
DA:615,0
DA:616,0
DA:617,0
DA:619,0
DA:620,0
DA:621,0
DA:626,0
DA:627,0
DA:629,0
DA:631,0
DA:633,0
DA:635,0
DA:638,0
DA:639,0
DA:640,0
DA:644,0
DA:645,0
DA:648,0
DA:650,0
DA:651,0
DA:652,0
DA:653,0
DA:654,0
DA:655,0
DA:658,0
DA:659,0
DA:660,0
DA:662,0
DA:665,0
DA:666,0
DA:667,0
DA:668,0
DA:670,0
DA:671,0
DA:673,0
DA:674,0
DA:675,0
DA:676,0
DA:677,0
DA:678,0
DA:681,0
DA:684,0
DA:685,0
DA:687,0
DA:688,0
DA:689,0
DA:690,0
DA:692,0
DA:696,0
DA:699,0
DA:701,0
DA:702,0
DA:706,0
DA:707,0
DA:708,0
DA:709,0
DA:710,0
DA:712,0
DA:713,0
DA:714,0
DA:716,0
DA:719,0
DA:720,0
DA:722,0
DA:725,0
DA:729,675162
DA:731,675162
DA:732,0
DA:733,0
DA:734,0
DA:737,675162
DA:738,675162
DA:740,22280346
DA:741,21605184
DA:742,43210368
DA:743,21605184
DA:746,675162
DA:747,675162
DA:748,4050972
DA:749,3375810
DA:750,24305832
DA:751,20930022
DA:752,0
DA:753,0
DA:754,0
DA:755,0
DA:757,20930022
DA:758,0
DA:761,20930022
DA:762,0
DA:765,20930022
DA:767,3375810
DA:768,3375810
DA:769,3375810
DA:772,675162
DA:773,675162
DA:774,675162
LF:420
LH:211
end_of_record
TN:
SF:/home/apetrini/dev/src/zen/src/crypto/equihash.h
FN:151,_ZNK26EhSolverCancelledException4whatEv
FN:217,_Z12EhBasicSolvejjRK32crypto_generichash_blake2b_stateSt8functionIFbSt6vectorIhSaIhEEEES2_IFb19EhSolverCancelCheckEE
FN:234,_Z25EhBasicSolveUncancellablejjRK32crypto_generichash_blake2b_stateSt8functionIFbSt6vectorIhSaIhEEEE
FN:241,_Z16EhOptimisedSolvejjRK32crypto_generichash_blake2b_stateSt8functionIFbSt6vectorIhSaIhEEEES2_IFb19EhSolverCancelCheckEE
FN:258,_Z29EhOptimisedSolveUncancellablejjRK32crypto_generichash_blake2b_stateSt8functionIFbSt6vectorIhSaIhEEEE
FNDA:0,_Z29EhOptimisedSolveUncancellablejjRK32crypto_generichash_blake2b_stateSt8functionIFbSt6vectorIhSaIhEEEE
FNDA:0,_Z16EhOptimisedSolvejjRK32crypto_generichash_blake2b_stateSt8functionIFbSt6vectorIhSaIhEEEES2_IFb19EhSolverCancelCheckEE
FNDA:942967,_Z25EhBasicSolveUncancellablejjRK32crypto_generichash_blake2b_stateSt8functionIFbSt6vectorIhSaIhEEEE
FNDA:0,_ZNK26EhSolverCancelledException4whatEv
FNDA:942967,_Z12EhBasicSolvejjRK32crypto_generichash_blake2b_stateSt8functionIFbSt6vectorIhSaIhEEEES2_IFb19EhSolverCancelCheckEE
FNF:5
FNH:2
DA:55,9406817731
DA:61,0
DA:73,4714835
DA:76,23013802978
DA:93,3929267676
DA:95,7072259426
DA:100,1851083819
DA:123,0
DA:125,0
DA:130,0
DA:149,0
DA:151,0
DA:152,0
DA:182,0
DA:217,942967
DA:221,942967
DA:222,0
DA:223,942967
DA:224,0
DA:225,942967
DA:226,0
DA:227,942967
DA:228,942967
DA:230,0
DA:234,942967
DA:237,942967
DA:238,942967
DA:241,0
DA:245,0
DA:246,0
DA:247,0
DA:248,0
DA:249,0
DA:250,0
DA:251,0
DA:252,0
DA:254,0
DA:258,0
DA:261,0
DA:262,0
LF:40
LH:15
end_of_record
TN:
SF:/home/apetrini/dev/src/zen/src/crypto/equihash.tcc
FN:11,_Z15DistinctIndicesILm132EEbRK11FullStepRowIXT_EES3_mm
FN:11,_Z15DistinctIndicesILm68EEbRK11FullStepRowIXT_EES3_mm
FN:11,_Z15DistinctIndicesILm1030EEbRK11FullStepRowIXT_EES3_mm
FN:11,_Z15DistinctIndicesILm130EEbRK11FullStepRowIXT_EES3_mm
FN:11,_Z15DistinctIndicesILm38EEbRK11FullStepRowIXT_EES3_mm
FN:11,_Z15DistinctIndicesILm66EEbRK11FullStepRowIXT_EES3_mm
FN:11,_Z15DistinctIndicesILm22EEbRK11FullStepRowIXT_EES3_mm
FN:11,_Z15DistinctIndicesILm2054EEbRK11FullStepRowIXT_EES3_mm
FN:24,_Z19IsProbablyDuplicateILm512EEbSt10shared_ptrIhEm
FN:24,_Z19IsProbablyDuplicateILm32EEbSt10shared_ptrIhEm
FN:24,_Z19IsProbablyDuplicateILm8EEbSt10shared_ptrIhEm
FN:24,_Z19IsProbablyDuplicateILm4EEbSt10shared_ptrIhEm
FN:46,_Z13IsValidBranchILm38EEbRK11FullStepRowIXT_EEmjh
FN:46,_Z13IsValidBranchILm130EEbRK11FullStepRowIXT_EEmjh
FN:46,_Z13IsValidBranchILm132EEbRK11FullStepRowIXT_EEmjh
FN:46,_Z13IsValidBranchILm2054EEbRK11FullStepRowIXT_EEmjh
FNDA:0,_Z15DistinctIndicesILm38EEbRK11FullStepRowIXT_EES3_mm
FNDA:1907215749,_Z15DistinctIndicesILm66EEbRK11FullStepRowIXT_EES3_mm
FNDA:0,_Z15DistinctIndicesILm22EEbRK11FullStepRowIXT_EES3_mm
FNDA:0,_Z15DistinctIndicesILm2054EEbRK11FullStepRowIXT_EES3_mm
FNDA:0,_Z13IsValidBranchILm2054EEbRK11FullStepRowIXT_EEmjh
FNDA:0,_Z13IsValidBranchILm38EEbRK11FullStepRowIXT_EEmjh
FNDA:0,_Z15DistinctIndicesILm68EEbRK11FullStepRowIXT_EES3_mm
FNDA:0,_Z19IsProbablyDuplicateILm512EEbSt10shared_ptrIhEm
FNDA:0,_Z15DistinctIndicesILm132EEbRK11FullStepRowIXT_EES3_mm
FNDA:0,_Z19IsProbablyDuplicateILm32EEbSt10shared_ptrIhEm
FNDA:0,_Z13IsValidBranchILm132EEbRK11FullStepRowIXT_EEmjh
FNDA:20930022,_Z15DistinctIndicesILm130EEbRK11FullStepRowIXT_EES3_mm
FNDA:0,_Z19IsProbablyDuplicateILm4EEbSt10shared_ptrIhEm
FNDA:0,_Z19IsProbablyDuplicateILm8EEbSt10shared_ptrIhEm
FNDA:0,_Z15DistinctIndicesILm1030EEbRK11FullStepRowIXT_EES3_mm
FNDA:0,_Z13IsValidBranchILm130EEbRK11FullStepRowIXT_EEmjh
FNF:16
FNH:2
DA:11,1928145771
DA:13,8561308424
DA:14,43562189948
DA:15,36929027295
DA:24,0
DA:26,0
DA:27,0
DA:28,0
DA:29,0
DA:31,0
DA:32,0
DA:33,0
DA:35,0
DA:36,0
DA:37,0
DA:42,0
DA:46,0
DA:48,0
LF:18
LH:4
end_of_record
TN:
SF:/home/apetrini/dev/src/zen/src/crypto/hmac_sha256.cpp
FN:9,_ZN12CHMAC_SHA256C2EPKhm
FN:29,_ZN12CHMAC_SHA2568FinalizeEPh
FNDA:0,_ZN12CHMAC_SHA256C2EPKhm
FNDA:0,_ZN12CHMAC_SHA2568FinalizeEPh
FNF:2
FNH:0
DA:9,0
DA:11,0
DA:12,0
DA:13,0
DA:14,0
DA:16,0
DA:17,0
DA:20,0
DA:21,0
DA:22,0
DA:24,0
DA:25,0
DA:26,0
DA:27,0
DA:29,0
DA:31,0
DA:32,0
DA:33,0
DA:34,0
LF:19
LH:0
end_of_record
TN:
SF:/home/apetrini/dev/src/zen/src/crypto/hmac_sha256.h
FNF:0
FNH:0
DA:24,0
DA:26,0
DA:27,0
LF:3
LH:0
end_of_record
TN:
SF:/home/apetrini/dev/src/zen/src/crypto/hmac_sha512.cpp
FN:9,_ZN12CHMAC_SHA512C2EPKhm
FN:29,_ZN12CHMAC_SHA5128FinalizeEPh
FNDA:0,_ZN12CHMAC_SHA5128FinalizeEPh
FNDA:0,_ZN12CHMAC_SHA512C2EPKhm
FNF:2
FNH:0
DA:9,0
DA:11,0
DA:12,0
DA:13,0
DA:14,0
DA:16,0
DA:17,0
DA:20,0
DA:21,0
DA:22,0
DA:24,0
DA:25,0
DA:26,0
DA:27,0
DA:29,0
DA:31,0
DA:32,0
DA:33,0
DA:34,0
LF:19
LH:0
end_of_record
TN:
SF:/home/apetrini/dev/src/zen/src/crypto/hmac_sha512.h
FNF:0
FNH:0
DA:24,0
DA:26,0
DA:27,0
LF:3
LH:0
end_of_record
TN:
SF:/home/apetrini/dev/src/zen/src/crypto/ripemd160.cpp
FN:54,_ZN12_GLOBAL__N_19ripemd1609TransformEPjPKh
FN:242,_ZN10CRIPEMD160C2Ev
FN:247,_ZN10CRIPEMD1605WriteEPKhm
FN:273,_ZN10CRIPEMD1608FinalizeEPh
FN:287,_ZN10CRIPEMD1605ResetEv
FNDA:1115814,_ZN10CRIPEMD1605WriteEPKhm
FNDA:0,_ZN10CRIPEMD1605ResetEv
FNDA:371938,_ZN10CRIPEMD1608FinalizeEPh
FNDA:371938,_ZN12_GLOBAL__N_19ripemd1609TransformEPjPKh
FNDA:371938,_ZN10CRIPEMD160C2Ev
FNF:5
FNH:4
DA:17,371938
DA:18,371938
DA:19,371938
DA:20,371938
DA:21,371938
DA:24,371938
DA:26,371938
DA:27,371938
DA:28,371938
DA:29,371938
DA:30,371938
DA:33,371938
DA:35,371938
DA:37,371938
DA:38,371938
DA:41,371938
DA:42,371938
DA:43,371938
DA:44,371938
DA:45,371938
DA:47,371938
DA:48,371938
DA:49,371938
DA:50,371938
DA:51,371938
DA:54,371938
DA:56,371938
DA:57,371938
DA:58,371938
DA:59,371938
DA:60,371938
DA:61,371938
DA:63,371938
DA:64,371938
DA:65,371938
DA:66,371938
DA:67,371938
DA:68,371938
DA:69,371938
DA:70,371938
DA:71,371938
DA:72,371938
DA:73,371938
DA:74,371938
DA:75,371938
DA:76,371938
DA:77,371938
DA:78,371938
DA:79,371938
DA:80,371938
DA:81,371938
DA:82,371938
DA:83,371938
DA:84,371938
DA:85,371938
DA:86,371938
DA:87,371938
DA:88,371938
DA:89,371938
DA:90,371938
DA:91,371938
DA:92,371938
DA:93,371938
DA:94,371938
DA:96,371938
DA:97,371938
DA:98,371938
DA:99,371938
DA:100,371938
DA:101,371938
DA:102,371938
DA:103,371938
DA:104,371938
DA:105,371938
DA:106,371938
DA:107,371938
DA:108,371938
DA:109,371938
DA:110,371938
DA:111,371938
DA:112,371938
DA:113,371938
DA:114,371938
DA:115,371938
DA:116,371938
DA:117,371938
DA:118,371938
DA:119,371938
DA:120,371938
DA:121,371938
DA:122,371938
DA:123,371938
DA:124,371938
DA:125,371938
DA:126,371938
DA:127,371938
DA:129,371938
DA:130,371938
DA:131,371938
DA:132,371938
DA:133,371938
DA:134,371938
DA:135,371938
DA:136,371938
DA:137,371938
DA:138,371938
DA:139,371938
DA:140,371938
DA:141,371938
DA:142,371938
DA:143,371938
DA:144,371938
DA:145,371938
DA:146,371938
DA:147,371938
DA:148,371938
DA:149,371938
DA:150,371938
DA:151,371938
DA:152,371938
DA:153,371938
DA:154,371938
DA:155,371938
DA:156,371938
DA:157,371938
DA:158,371938
DA:159,371938
DA:160,371938
DA:162,371938
DA:163,371938
DA:164,371938
DA:165,371938
DA:166,371938
DA:167,371938
DA:168,371938
DA:169,371938
DA:170,371938
DA:171,371938
DA:172,371938
DA:173,371938
DA:174,371938
DA:175,371938
DA:176,371938
DA:177,371938
DA:178,371938
DA:179,371938
DA:180,371938
DA:181,371938
DA:182,371938
DA:183,371938
DA:184,371938
DA:185,371938
DA:186,371938
DA:187,371938
DA:188,371938
DA:189,371938
DA:190,371938
DA:191,371938
DA:192,371938
DA:193,371938
DA:195,371938
DA:196,371938
DA:197,371938
DA:198,371938
DA:199,371938
DA:200,371938
DA:201,371938
DA:202,371938
DA:203,371938
DA:204,371938
DA:205,371938
DA:206,371938
DA:207,371938
DA:208,371938
DA:209,371938
DA:210,371938
DA:211,371938
DA:212,371938
DA:213,371938
DA:214,371938
DA:215,371938
DA:216,371938
DA:217,371938
DA:218,371938
DA:219,371938
DA:220,371938
DA:221,371938
DA:222,371938
DA:223,371938
DA:224,371938
DA:225,371938
DA:226,371938
DA:228,371938
DA:229,371938
DA:230,371938
DA:231,371938
DA:232,371938
DA:233,371938
DA:234,371938
DA:242,371938
DA:244,371938
DA:245,371938
DA:247,1115814
DA:249,1115814
DA:250,1115814
DA:251,1115814
DA:253,371938
DA:254,371938
DA:255,371938
DA:256,371938
DA:257,371938
DA:259,1115814
DA:261,0
DA:262,0
DA:263,0
DA:265,1115814
DA:267,743876
DA:268,743876
DA:270,1115814
DA:273,371938
DA:275,371938
DA:276,371938
DA:277,371938
DA:278,371938
DA:279,371938
DA:280,371938
DA:281,371938
DA:282,371938
DA:283,371938
DA:284,371938
DA:285,371938
DA:287,0
DA:289,0
DA:290,0
DA:291,0
LF:235
LH:228
end_of_record
TN:
SF:/home/apetrini/dev/src/zen/src/crypto/sha1.cpp
FN:46,_ZN12_GLOBAL__N_14sha19TransformEPjPKh
FN:149,_ZN5CSHA1C2Ev
FN:154,_ZN5CSHA15WriteEPKhm
FN:180,_ZN5CSHA18FinalizeEPh
FN:194,_ZN5CSHA15ResetEv
FNDA:0,_ZN5CSHA1C2Ev
FNDA:0,_ZN5CSHA15ResetEv
FNDA:0,_ZN5CSHA15WriteEPKhm
FNDA:0,_ZN5CSHA18FinalizeEPh
FNDA:0,_ZN12_GLOBAL__N_14sha19TransformEPjPKh
FNF:5
FNH:0
DA:18,0
DA:20,0
DA:21,0
DA:24,0
DA:25,0
DA:26,0
DA:28,0
DA:31,0
DA:33,0
DA:34,0
DA:35,0
DA:36,0
DA:37,0
DA:46,0
DA:48,0
DA:49,0
DA:51,0
DA:52,0
DA:53,0
DA:54,0
DA:55,0
DA:56,0
DA:57,0
DA:58,0
DA:59,0
DA:60,0
DA:61,0
DA:62,0
DA:63,0
DA:64,0
DA:65,0
DA:66,0
DA:68,0
DA:69,0
DA:70,0
DA:71,0
DA:72,0
DA:73,0
DA:74,0
DA:75,0
DA:76,0
DA:77,0
DA:78,0
DA:79,0
DA:80,0
DA:81,0
DA:82,0
DA:83,0
DA:85,0
DA:86,0
DA:87,0
DA:88,0
DA:89,0
DA:90,0
DA:91,0
DA:92,0
DA:93,0
DA:94,0
DA:95,0
DA:96,0
DA:97,0
DA:98,0
DA:99,0
DA:100,0
DA:102,0
DA:103,0
DA:104,0
DA:105,0
DA:106,0
DA:107,0
DA:108,0
DA:109,0
DA:110,0
DA:111,0
DA:112,0
DA:113,0
DA:114,0
DA:115,0
DA:116,0
DA:117,0
DA:119,0
DA:120,0
DA:121,0
DA:122,0
DA:123,0
DA:124,0
DA:125,0
DA:126,0
DA:127,0
DA:128,0
DA:129,0
DA:130,0
DA:131,0
DA:132,0
DA:133,0
DA:134,0
DA:136,0
DA:137,0
DA:138,0
DA:139,0
DA:140,0
DA:141,0
DA:149,0
DA:151,0
DA:152,0
DA:154,0
DA:156,0
DA:157,0
DA:158,0
DA:160,0
DA:161,0
DA:162,0
DA:163,0
DA:164,0
DA:166,0
DA:168,0
DA:169,0
DA:170,0
DA:172,0
DA:174,0
DA:175,0
DA:177,0
DA:180,0
DA:182,0
DA:183,0
DA:184,0
DA:185,0
DA:186,0
DA:187,0
DA:188,0
DA:189,0
DA:190,0
DA:191,0
DA:192,0
DA:194,0
DA:196,0
DA:197,0
DA:198,0
LF:138
LH:0
end_of_record
TN:
SF:/home/apetrini/dev/src/zen/src/crypto/sha256.cpp
FN:26,_ZN12_GLOBAL__N_16sha2565RoundEjjjRjjjjS1_jj
FN:48,_ZN12_GLOBAL__N_16sha2569TransformEPjPKh
FN:137,_ZN7CSHA256C2Ev
FN:142,_ZN7CSHA2565WriteEPKhm
FN:168,_ZN7CSHA2568FinalizeEPh
FN:178,_ZN7CSHA25617FinalizeNoPaddingEPhb
FN:194,_ZN7CSHA2565ResetEv
FNDA:14261505,_ZN7CSHA2568FinalizeEPh
FNDA:19546604,_ZN7CSHA256C2Ev
FNDA:123281270,_ZN7CSHA2565WriteEPKhm
FNDA:6944662,_ZN7CSHA2565ResetEv
FNDA:42341793,_ZN12_GLOBAL__N_16sha2569TransformEPjPKh
FNDA:2709874752,_ZN12_GLOBAL__N_16sha2565RoundEjjjRjjjjS1_jj
FNDA:26491266,_ZN7CSHA25617FinalizeNoPaddingEPhb
FNF:7
FNH:7
DA:18,2709874752
DA:19,2709874752
DA:20,2709874752
DA:21,2709874752
DA:22,2032406064
DA:23,2032406064
DA:26,2709874752
DA:28,2709874752
DA:29,2709874752
DA:30,2709874752
DA:31,2709874752
DA:32,2709874752
DA:35,26491266
DA:37,26491266
DA:38,26491266
DA:39,26491266
DA:40,26491266
DA:41,26491266
DA:42,26491266
DA:43,26491266
DA:44,26491266
DA:48,42341793
DA:50,42341793
DA:51,42341793
DA:53,42341793
DA:54,42341793
DA:55,42341793
DA:56,42341793
DA:57,42341793
DA:58,42341793
DA:59,42341793
DA:60,42341793
DA:61,42341793
DA:62,42341793
DA:63,42341793
DA:64,42341793
DA:65,42341793
DA:66,42341793
DA:67,42341793
DA:68,42341793
DA:70,42341793
DA:71,42341793
DA:72,42341793
DA:73,42341793
DA:74,42341793
DA:75,42341793
DA:76,42341793
DA:77,42341793
DA:78,42341793
DA:79,42341793
DA:80,42341793
DA:81,42341793
DA:82,42341793
DA:83,42341793
DA:84,42341793
DA:85,42341793
DA:87,42341793
DA:88,42341793
DA:89,42341793
DA:90,42341793
DA:91,42341793
DA:92,42341793
DA:93,42341793
DA:94,42341793
DA:95,42341793
DA:96,42341793
DA:97,42341793
DA:98,42341793
DA:99,42341793
DA:100,42341793
DA:101,42341793
DA:102,42341793
DA:104,42341793
DA:105,42341793
DA:106,42341793
DA:107,42341793
DA:108,42341793
DA:109,42341793
DA:110,42341793
DA:111,42341793
DA:112,42341793
DA:113,42341793
DA:114,42341793
DA:115,42341793
DA:116,42341793
DA:117,42341793
DA:118,42341793
DA:119,42341793
DA:121,42341793
DA:122,42341793
DA:123,42341793
DA:124,42341793
DA:125,42341793
DA:126,42341793
DA:127,42341793
DA:128,42341793
DA:129,42341793
DA:137,19546604
DA:139,19546604
DA:140,19546604
DA:142,123281270
DA:144,123281270
DA:145,123281270
DA:146,123281270
DA:148,37311027
DA:149,37311027
DA:150,37311027
DA:151,37311027
DA:152,37311027
DA:154,128312036
DA:156,5030766
DA:157,5030766
DA:158,5030766
DA:160,123281270
DA:162,96312576
DA:163,96312576
DA:165,123281270
DA:168,14261505
DA:170,14261505
DA:171,14261505
DA:172,14261505
DA:173,14261505
DA:174,14261505
DA:175,14261505
DA:176,14261505
DA:178,26491266
DA:180,26491266
DA:181,0
DA:184,26491266
DA:185,26491266
DA:186,26491266
DA:187,26491266
DA:188,26491266
DA:189,26491266
DA:190,26491266
DA:191,26491266
DA:192,26491266
DA:194,6944662
DA:196,6944662
DA:197,6944662
DA:198,6944662
LF:141
LH:140
end_of_record
TN:
SF:/home/apetrini/dev/src/zen/src/crypto/sha256.h
FNF:0
FNH:0
DA:20,12229761
DA:21,12229761
DA:22,0
LF:3
LH:2
end_of_record
TN:
SF:/home/apetrini/dev/src/zen/src/crypto/sha512.cpp
FN:25,_ZN12_GLOBAL__N_16sha5125RoundEmmmRmmmmS1_mm
FN:47,_ZN12_GLOBAL__N_16sha5129TransformEPmPKh
FN:154,_ZN7CSHA512C2Ev
FN:159,_ZN7CSHA5125WriteEPKhm
FN:185,_ZN7CSHA5128FinalizeEPh
FN:202,_ZN7CSHA5125ResetEv
FNDA:0,_ZN12_GLOBAL__N_16sha5125RoundEmmmRmmmmS1_mm
FNDA:0,_ZN12_GLOBAL__N_16sha5129TransformEPmPKh
FNDA:0,_ZN7CSHA5128FinalizeEPh
FNDA:0,_ZN7CSHA5125WriteEPKhm
FNDA:0,_ZN7CSHA5125ResetEv
FNDA:0,_ZN7CSHA512C2Ev
FNF:6
FNH:0
DA:17,0
DA:18,0
DA:19,0
DA:20,0
DA:21,0
DA:22,0
DA:25,0
DA:27,0
DA:28,0
DA:29,0
DA:30,0
DA:31,0
DA:34,0
DA:36,0
DA:37,0
DA:38,0
DA:39,0
DA:40,0
DA:41,0
DA:42,0
DA:43,0
DA:47,0
DA:49,0
DA:50,0
DA:52,0
DA:53,0
DA:54,0
DA:55,0
DA:56,0
DA:57,0
DA:58,0
DA:59,0
DA:60,0
DA:61,0
DA:62,0
DA:63,0
DA:64,0
DA:65,0
DA:66,0
DA:67,0
DA:69,0
DA:70,0
DA:71,0
DA:72,0
DA:73,0
DA:74,0
DA:75,0
DA:76,0
DA:77,0
DA:78,0
DA:79,0
DA:80,0
DA:81,0
DA:82,0
DA:83,0
DA:84,0
DA:86,0
DA:87,0
DA:88,0
DA:89,0
DA:90,0
DA:91,0
DA:92,0
DA:93,0
DA:94,0
DA:95,0
DA:96,0
DA:97,0
DA:98,0
DA:99,0
DA:100,0
DA:101,0
DA:103,0
DA:104,0
DA:105,0
DA:106,0
DA:107,0
DA:108,0
DA:109,0
DA:110,0
DA:111,0
DA:112,0
DA:113,0
DA:114,0
DA:115,0
DA:116,0
DA:117,0
DA:118,0
DA:120,0
DA:121,0
DA:122,0
DA:123,0
DA:124,0
DA:125,0
DA:126,0
DA:127,0
DA:128,0
DA:129,0
DA:130,0
DA:131,0
DA:132,0
DA:133,0
DA:134,0
DA:135,0
DA:137,0
DA:138,0
DA:139,0
DA:140,0
DA:141,0
DA:142,0
DA:143,0
DA:144,0
DA:145,0
DA:154,0
DA:156,0
DA:157,0
DA:159,0
DA:161,0
DA:162,0
DA:163,0
DA:165,0
DA:166,0
DA:167,0
DA:168,0
DA:169,0
DA:171,0
DA:173,0
DA:174,0
DA:175,0
DA:177,0
DA:179,0
DA:180,0
DA:182,0
DA:185,0
DA:187,0
DA:188,0
DA:189,0
DA:190,0
DA:191,0
DA:192,0
DA:193,0
DA:194,0
DA:195,0
DA:196,0
DA:197,0
DA:198,0
DA:199,0
DA:200,0
DA:202,0
DA:204,0
DA:205,0
DA:206,0
LF:152
LH:0
end_of_record
TN:
SF:/home/apetrini/dev/src/zen/src/deprecation.cpp
FN:14,_Z22EnforceNodeDeprecationib
FNDA:112119,_Z22EnforceNodeDeprecationib
FNF:1
FNH:1
DA:14,112119
DA:15,112119
DA:16,112119
DA:17,112119
DA:24,0
DA:25,0
DA:26,0
DA:27,0
DA:28,0
DA:29,0
DA:30,0
DA:32,0
DA:33,0
DA:34,0
DA:35,0
DA:36,0
DA:38,112119
DA:39,112119
DA:40,0
DA:41,0
DA:42,0
DA:43,0
DA:44,0
DA:46,0
DA:47,0
DA:48,0
DA:49,0
DA:50,0
DA:52,0
DA:53,0
DA:54,0
DA:55,112119
LF:32
LH:7
end_of_record
TN:
SF:/home/apetrini/dev/src/zen/src/hash.cpp
FN:16,_Z11MurmurHash3jRKSt6vectorIhSaIhEE
FN:75,_Z9BIP32HashRK7uint256jhPKhPh
FNDA:0,_Z9BIP32HashRK7uint256jhPKhPh
FNDA:426,_Z11MurmurHash3jRKSt6vectorIhSaIhEE
FNF:2
FNH:1
DA:11,3408
DA:13,3408
DA:16,426
DA:19,426
DA:20,426
DA:22,426
DA:23,426
DA:25,426
DA:29,426
DA:31,3834
DA:32,6816
DA:34,3408
DA:35,3408
DA:36,3408
DA:38,3408
DA:39,3408
DA:40,3408
DA:45,426
DA:47,426
DA:49,426
DA:50,0
DA:51,0
DA:52,0
DA:53,0
DA:54,0
DA:55,0
DA:56,0
DA:57,0
DA:58,0
DA:59,0
DA:65,426
DA:66,426
DA:67,426
DA:68,426
DA:69,426
DA:70,426
DA:72,426
DA:75,0
DA:77,0
DA:78,0
DA:79,0
DA:80,0
DA:81,0
DA:82,0
DA:83,0
LF:45
LH:27
end_of_record
TN:
SF:/home/apetrini/dev/src/zen/src/hash.h
FN:26,_ZN8CHash2568FinalizeEPh
FN:50,_ZN8CHash1608FinalizeEPh
FN:69,_Z4HashIPKhE7uint256T_S3_
FN:69,_Z4HashIN9__gnu_cxx17__normal_iteratorIPhSt6vectorIhSaIhEEEEE7uint256T_S8_
FN:69,_Z4HashIN9__gnu_cxx17__normal_iteratorIPKhSt6vectorIhSaIhEEEEE7uint256T_S9_
FN:69,_Z4HashIN9__gnu_cxx17__normal_iteratorIPcSt6vectorIc25zero_after_free_allocatorIcEEEEE7uint256T_S9_
FN:69,_Z4HashIPcE7uint256T_S2_
FN:80,_Z4HashIPcS0_E7uint256T_S2_T0_S3_
FN:106,_Z7Hash160IPKhE7uint160T_S3_
FN:106,_Z7Hash160IN9__gnu_cxx17__normal_iteratorIPKhSt6vectorIhSaIhEEEEE7uint160T_S9_
FN:116,_Z7Hash160RKSt6vectorIhSaIhEE
FN:142,_ZN11CHashWriter7GetHashEv
FN:149,_ZN11CHashWriterlsI19CMutableTransactionEERS_RKT_
FN:149,_ZN11CHashWriterlsI12CTransactionEERS_RKT_
FN:149,_ZN11CHashWriterlsI12CBlockHeaderEERS_RKT_
FN:149,_ZN11CHashWriterlsI21CBlockUndo_OldVersionEERS_RKT_
FN:149,_ZN11CHashWriterlsI21CTxForwardTransferOutEERS_RKT_
FN:149,_ZN11CHashWriterlsI14CScCertificateEERS_RKT_
FN:149,_ZN11CHashWriterlsI21CMutableScCertificateEERS_RKT_
FN:149,_ZN11CHashWriterlsI24PaymentDisclosurePayloadEERS_RKT_
FN:149,_ZN11CHashWriterlsI6CTxOutEERS_RKT_
FN:149,_ZN11CHashWriterlsI16CTxScCreationOutEERS_RKT_
FN:149,_ZN11CHashWriterlsISt6vectorIhSaIhEEEERS_RKT_
FN:158,_Z13SerializeHashI16CTxScCreationOutE7uint256RKT_ii
FN:158,_Z13SerializeHashI6CTxOutE7uint256RKT_ii
FN:158,_Z13SerializeHashI12CTransactionE7uint256RKT_ii
FN:158,_Z13SerializeHashI21CTxForwardTransferOutE7uint256RKT_ii
FN:158,_Z13SerializeHashI24PaymentDisclosurePayloadE7uint256RKT_ii
FN:158,_Z13SerializeHashI14CScCertificateE7uint256RKT_ii
FN:158,_Z13SerializeHashI21CMutableScCertificateE7uint256RKT_ii
FN:158,_Z13SerializeHashI19CMutableTransactionE7uint256RKT_ii
FN:158,_Z13SerializeHashI12CBlockHeaderE7uint256RKT_ii
FNDA:99161,_ZN11CHashWriterlsI19CMutableTransactionEERS_RKT_
FNDA:148791,_Z4HashIPcS0_E7uint256T_S2_T0_S3_
FNDA:242,_Z4HashIPKhE7uint256T_S3_
FNDA:477771,_ZN11CHashWriterlsI12CTransactionEERS_RKT_
FNDA:6944662,_ZN8CHash2568FinalizeEPh
FNDA:84,_Z13SerializeHashI16CTxScCreationOutE7uint256RKT_ii
FNDA:2950671,_ZN11CHashWriterlsI12CBlockHeaderEERS_RKT_
FNDA:0,_Z13SerializeHashI6CTxOutE7uint256RKT_ii
FNDA:0,_ZN11CHashWriterlsI21CBlockUndo_OldVersionEERS_RKT_
FNDA:101745,_Z7Hash160IPKhE7uint160T_S3_
FNDA:3981479,_ZN11CHashWriter7GetHashEv
FNDA:371938,_ZN8CHash1608FinalizeEPh
FNDA:1987774,_Z4HashIN9__gnu_cxx17__normal_iteratorIPhSt6vectorIhSaIhEEEEE7uint256T_S8_
FNDA:477771,_Z13SerializeHashI12CTransactionE7uint256RKT_ii
FNDA:0,_Z4HashIN9__gnu_cxx17__normal_iteratorIPKhSt6vectorIhSaIhEEEEE7uint256T_S9_
FNDA:0,_ZN11CHashWriterlsI21CTxForwardTransferOutEERS_RKT_
FNDA:0,_Z13SerializeHashI21CTxForwardTransferOutE7uint256RKT_ii
FNDA:2393,_ZN11CHashWriterlsI14CScCertificateEERS_RKT_
FNDA:44,_Z7Hash160IN9__gnu_cxx17__normal_iteratorIPKhSt6vectorIhSaIhEEEEE7uint160T_S9_
FNDA:5,_Z7Hash160RKSt6vectorIhSaIhEE
FNDA:935,_ZN11CHashWriterlsI21CMutableScCertificateEERS_RKT_
FNDA:777798,_Z4HashIN9__gnu_cxx17__normal_iteratorIPcSt6vectorIc25zero_after_free_allocatorIcEEEEE7uint256T_S9_
FNDA:2393,_Z13SerializeHashI14CScCertificateE7uint256RKT_ii
FNDA:935,_Z13SerializeHashI21CMutableScCertificateE7uint256RKT_ii
FNDA:0,_ZN11CHashWriterlsI24PaymentDisclosurePayloadEERS_RKT_
FNDA:0,_Z13SerializeHashI24PaymentDisclosurePayloadE7uint256RKT_ii
FNDA:2950671,_Z13SerializeHashI12CBlockHeaderE7uint256RKT_ii
FNDA:99161,_Z13SerializeHashI19CMutableTransactionE7uint256RKT_ii
FNDA:84,_ZN11CHashWriterlsI16CTxScCreationOutEERS_RKT_
FNDA:38843,_Z4HashIPcE7uint256T_S2_
FNDA:0,_ZN11CHashWriterlsISt6vectorIhSaIhEEEERS_RKT_
FNDA:0,_ZN11CHashWriterlsI6CTxOutEERS_RKT_
FNF:32
FNH:23
DA:20,6876675
DA:26,6944662
DA:27,6944662
DA:28,6944662
DA:29,6944662
DA:30,6944662
DA:32,62982828
DA:33,14491735
DA:34,53544662
DA:44,371938
DA:50,371938
DA:51,371938
DA:52,371938
DA:53,371938
DA:54,371938
DA:56,371938
DA:57,371938
DA:58,371938
DA:69,2804657
DA:72,2804657
DA:73,2804657
DA:74,2804657
DA:75,2804657
DA:80,148791
DA:83,148791
DA:84,148791
DA:85,148791
DA:86,148791
DA:87,148791
DA:106,101789
DA:109,101789
DA:110,101789
DA:111,101789
DA:112,101789
DA:116,5
DA:118,5
DA:131,7512494
DA:136,7229370
DA:137,31777410
DA:138,36587025
DA:142,3981479
DA:143,3981479
DA:144,3981479
DA:145,3981479
DA:149,3790228
DA:151,5131850
DA:152,4393052
DA:158,3531015
DA:160,3531015
DA:161,3531015
DA:162,3531015
DA:171,35109514
LF:52
LH:52
end_of_record
TN:
SF:/home/apetrini/dev/src/zen/src/httprpc.cpp
FN:25,_ZN12HTTPRPCTimerC2EP10event_baseRN5boost8functionIFvvEEEl
FN:43,_ZN21HTTPRPCTimerInterface4NameEv
FN:47,_ZN21HTTPRPCTimerInterface8NewTimerERN5boost8functionIFvvEEEl
FN:61,_ZL14JSONErrorReplyP11HTTPRequestRK8UniValueS3_
FN:78,_ZL13RPCAuthorizedRKNSt7__cxx1112basic_stringIcSt11char_traitsIcESaIcEEE
FN:90,_ZL15HTTPReq_JSONRPCP11HTTPRequestRKNSt7__cxx1112basic_stringIcSt11char_traitsIcESaIcEEE
FN:153,_ZL21InitRPCAuthenticationv
FN:170,_Z12StartHTTPRPCv
FN:184,_Z16InterruptHTTPRPCv
FN:189,_Z11StopHTTPRPCv
FNDA:490,_Z11StopHTTPRPCv
FNDA:3,_ZN21HTTPRPCTimerInterface8NewTimerERN5boost8functionIFvvEEEl
FNDA:278,_ZL14JSONErrorReplyP11HTTPRequestRK8UniValueS3_
FNDA:490,_ZL21InitRPCAuthenticationv
FNDA:68560,_ZL15HTTPReq_JSONRPCP11HTTPRequestRKNSt7__cxx1112basic_stringIcSt11char_traitsIcESaIcEEE
FNDA:490,_Z12StartHTTPRPCv
FNDA:3,_ZN21HTTPRPCTimerInterface4NameEv
FNDA:68560,_ZL13RPCAuthorizedRKNSt7__cxx1112basic_stringIcSt11char_traitsIcESaIcEEE
FNDA:490,_Z16InterruptHTTPRPCv
FNDA:3,_ZN12HTTPRPCTimerC2EP10event_baseRN5boost8functionIFvvEEEl
FNF:10
FNH:10
DA:25,3
DA:26,3
DA:28,3
DA:29,3
DA:30,3
DA:31,3
DA:32,3
DA:40,490
DA:43,3
DA:45,3
DA:47,3
DA:49,3
DA:61,278
DA:64,278
DA:65,278
DA:67,278
DA:69,278
DA:70,0
DA:72,278
DA:74,556
DA:75,278
DA:76,278
DA:78,68560
DA:80,68560
DA:82,137120
DA:84,68560
DA:85,68560
DA:86,68560
DA:87,68560
DA:88,137120
DA:90,68560
DA:93,68560
DA:94,0
DA:95,0
DA:98,68560
DA:99,68560
DA:100,0
DA:101,0
DA:102,0
DA:105,68560
DA:106,0
DA:111,0
DA:113,0
DA:114,0
DA:115,0
DA:118,68560
DA:119,68560
DA:121,68560
DA:122,137120
DA:123,0
DA:125,68560
DA:127,68560
DA:128,68560
DA:130,68560
DA:133,68282
DA:136,68282
DA:137,0
DA:139,0
DA:141,136842
DA:142,68282
DA:143,68838
DA:144,278
DA:145,278
DA:146,278
DA:147,0
DA:148,0
DA:149,0
DA:150,68282
DA:151,137120
DA:153,490
DA:155,490
DA:157,0
DA:158,0
DA:159,0
DA:160,0
DA:162,0
DA:165,490
DA:170,490
DA:172,490
DA:173,490
DA:176,980
DA:178,490
DA:179,490
DA:180,490
DA:181,490
DA:184,490
DA:186,490
DA:187,490
DA:189,490
DA:191,490
DA:192,490
DA:193,490
DA:194,490
DA:195,490
DA:196,490
DA:198,490
LF:96
LH:74
end_of_record
TN:
SF:/home/apetrini/dev/src/zen/src/httpserver.cpp
FN:45,_ZN12HTTPWorkItemC2EP11HTTPRequestRKNSt7__cxx1112basic_stringIcSt11char_traitsIcESaIcEEERKN5boost8functionIFvS1_S9_EEE
FN:49,_ZN12HTTPWorkItemclEv
FN:82,_ZN9WorkQueueI11HTTPClosureE13ThreadCounterC2ERS1_
FN:87,_ZN9WorkQueueI11HTTPClosureE13ThreadCounterD2Ev
FN:96,_ZN9WorkQueueI11HTTPClosureEC2Em
FN:104,_ZN9WorkQueueI11HTTPClosureED2Ev
FN:112,_ZN9WorkQueueI11HTTPClosureE7EnqueueEPS0_
FN:123,_ZN9WorkQueueI11HTTPClosureE3RunEv
FN:142,_ZN9WorkQueueI11HTTPClosureE9InterruptEv
FN:149,_ZN9WorkQueueI11HTTPClosureE8WaitExitEv
FN:167,_ZN15HTTPPathHandlerC2ENSt7__cxx1112basic_stringIcSt11char_traitsIcESaIcEEEbN5boost8functionIFvP11HTTPRequestRKS5_EEE
FN:192,_ZL13ClientAllowedRK8CNetAddr
FN:203,_ZL17InitHTTPAllowListv
FN:229,_ZL19RequestMethodStringN11HTTPRequest13RequestMethodE
FN:250,_ZL15http_request_cbP14evhttp_requestPv
FN:300,_ZL22http_reject_request_cbP14evhttp_requestPv
FN:307,_ZL10ThreadHTTPP10event_baseP6evhttp
FN:318,_ZL17HTTPBindAddressesP6evhttp
FN:357,_ZL16HTTPWorkQueueRunP9WorkQueueI11HTTPClosureE
FN:364,_ZL15libevent_log_cbiPKc
FN:376,_Z14InitHTTPServerv
FN:444,_Z15StartHTTPServerv
FN:458,_Z19InterruptHTTPServerv
FN:473,_Z14StopHTTPServerv
FN:508,_Z9EventBasev
FN:513,_ZL21httpevent_callback_fnisPv
FN:522,_ZN9HTTPEventC2EP10event_basebRKN5boost8functionIFvvEEE
FN:528,_ZN9HTTPEventD2Ev
FN:532,_ZN9HTTPEvent7triggerEP7timeval
FN:539,_ZN11HTTPRequestC2EP14evhttp_request
FN:543,_ZN11HTTPRequestD0Ev
FN:543,_ZN11HTTPRequestD2Ev
FN:553,_ZN11HTTPRequest9GetHeaderERKNSt7__cxx1112basic_stringIcSt11char_traitsIcESaIcEEE
FN:564,_ZN11HTTPRequest8ReadBodyB5cxx11Ev
FN:584,_ZN11HTTPRequest11WriteHeaderERKNSt7__cxx1112basic_stringIcSt11char_traitsIcESaIcEEES7_
FN:596,_ZN11HTTPRequest10WriteReplyEiRKNSt7__cxx1112basic_stringIcSt11char_traitsIcESaIcEEE
FN:610,_ZN11HTTPRequest7GetPeerEv
FN:624,_ZN11HTTPRequest6GetURIB5cxx11Ev
FN:629,_ZN11HTTPRequest16GetRequestMethodEv
FN:650,_Z19RegisterHTTPHandlerRKNSt7__cxx1112basic_stringIcSt11char_traitsIcESaIcEEEbRKN5boost8functionIFvP11HTTPRequestS6_EEE
FN:656,_Z21UnregisterHTTPHandlerRKNSt7__cxx1112basic_stringIcSt11char_traitsIcESaIcEEEb
FNDA:490,_ZL17HTTPBindAddressesP6evhttp
FNDA:490,_ZN9WorkQueueI11HTTPClosureED2Ev
FNDA:0,_ZL22http_reject_request_cbP14evhttp_requestPv
FNDA:4410,_Z21UnregisterHTTPHandlerRKNSt7__cxx1112basic_stringIcSt11char_traitsIcESaIcEEEb
FNDA:137175,_ZN11HTTPRequest6GetURIB5cxx11Ev
FNDA:68588,_ZL13ClientAllowedRK8CNetAddr
FNDA:1960,_ZL16HTTPWorkQueueRunP9WorkQueueI11HTTPClosureE
FNDA:68591,_ZN9HTTPEvent7triggerEP7timeval
FNDA:68571,_ZN11HTTPRequest8ReadBodyB5cxx11Ev
FNDA:0,_ZL15libevent_log_cbiPKc
FNDA:68587,_ZN12HTTPWorkItemC2EP11HTTPRequestRKNSt7__cxx1112basic_stringIcSt11char_traitsIcESaIcEEERKN5boost8functionIFvS1_S9_EEE
FNDA:490,_ZN9WorkQueueI11HTTPClosureE8WaitExitEv
FNDA:490,_Z14StopHTTPServerv
FNDA:1960,_ZN9WorkQueueI11HTTPClosureE13ThreadCounterD2Ev
FNDA:490,_ZL17InitHTTPAllowListv
FNDA:490,_ZN9WorkQueueI11HTTPClosureEC2Em
FNDA:68587,_ZN12HTTPWorkItemclEv
FNDA:1960,_ZN9WorkQueueI11HTTPClosureE13ThreadCounterC2ERS1_
FNDA:4346,_Z19RegisterHTTPHandlerRKNSt7__cxx1112basic_stringIcSt11char_traitsIcESaIcEEEbRKN5boost8functionIFvP11HTTPRequestS6_EEE
FNDA:68587,_ZN11HTTPRequest11WriteHeaderERKNSt7__cxx1112basic_stringIcSt11char_traitsIcESaIcEEES7_
FNDA:68560,_ZN11HTTPRequest9GetHeaderERKNSt7__cxx1112basic_stringIcSt11char_traitsIcESaIcEEE
FNDA:4346,_ZN15HTTPPathHandlerC2ENSt7__cxx1112basic_stringIcSt11char_traitsIcESaIcEEEbN5boost8functionIFvP11HTTPRequestRKS5_EEE
FNDA:490,_ZL10ThreadHTTPP10event_baseP6evhttp
FNDA:68587,_ZN9WorkQueueI11HTTPClosureE7EnqueueEPS0_
FNDA:68588,_ZN11HTTPRequestC2EP14evhttp_request
FNDA:1960,_ZN9WorkQueueI11HTTPClosureE3RunEv
FNDA:490,_Z15StartHTTPServerv
FNDA:68588,_ZN11HTTPRequestD2Ev
FNDA:68588,_ZL21httpevent_callback_fnisPv
FNDA:68591,_ZN9HTTPEventD2Ev
FNDA:490,_Z14InitHTTPServerv
FNDA:68588,_ZN11HTTPRequest10WriteReplyEiRKNSt7__cxx1112basic_stringIcSt11char_traitsIcESaIcEEE
FNDA:205735,_ZN11HTTPRequest16GetRequestMethodEv
FNDA:980,_Z9EventBasev
FNDA:68588,_ZL15http_request_cbP14evhttp_requestPv
FNDA:490,_Z19InterruptHTTPServerv
FNDA:490,_ZN9WorkQueueI11HTTPClosureE9InterruptEv
FNDA:68588,_ZL19RequestMethodStringN11HTTPRequest13RequestMethodE
FNDA:68591,_ZN9HTTPEventC2EP10event_basebRKN5boost8functionIFvvEEE
FNDA:137176,_ZN11HTTPRequest7GetPeerEv
FNDA:68588,_ZN11HTTPRequestD0Ev
FNF:41
FNH:39
DA:45,68587
DA:46,68587
DA:48,68587
DA:49,68587
DA:51,68587
DA:52,68587
DA:82,1960
DA:84,1960
DA:85,1960
DA:86,1960
DA:87,1960
DA:89,1960
DA:90,1960
DA:91,1960
DA:92,1960
DA:96,980
DA:97,490
DA:98,490
DA:100,490
DA:104,490
DA:106,490
DA:107,0
DA:108,0
DA:110,490
DA:112,68587
DA:114,68587
DA:115,68587
DA:118,68587
DA:119,68587
DA:120,68587
DA:121,68587
DA:123,1960
DA:125,1960
DA:126,70547
DA:127,70547
DA:129,70547
DA:130,141094
DA:131,70547
DA:132,70547
DA:134,68587
DA:135,68587
DA:136,1960
DA:137,68587
DA:138,68587
DA:140,1960
DA:142,490
DA:144,490
DA:145,490
DA:146,490
DA:147,490
DA:149,490
DA:151,490
DA:152,490
DA:153,0
DA:154,490
DA:164,15922
DA:167,4346
DA:168,4346
DA:170,4346
DA:192,68588
DA:194,68588
DA:196,68599
DA:197,68598
DA:198,68588
DA:203,490
DA:205,490
DA:206,980
DA:207,980
DA:208,980
DA:209,9
DA:210,27
DA:211,9
DA:212,9
DA:213,0
DA:214,0
DA:216,0
DA:218,9
DA:219,9
DA:221,490
DA:222,1479
DA:223,1978
DA:224,490
DA:225,490
DA:226,490
DA:229,68588
DA:231,68588
DA:232,21
DA:233,21
DA:234,68567
DA:235,68567
DA:236,68567
DA:237,0
DA:238,0
DA:239,0
DA:240,0
DA:241,0
DA:242,0
DA:243,0
DA:244,0
DA:245,0
DA:250,68588
DA:252,68588
DA:254,137176
DA:255,137176
DA:258,68588
DA:259,1
DA:260,1
DA:264,68587
DA:265,0
DA:266,0
DA:270,68587
DA:271,68587
DA:272,68587
DA:273,68587
DA:274,68736
DA:275,68736
DA:276,68736
DA:277,68587
DA:279,149
DA:280,68736
DA:281,68587
DA:282,68587
DA:287,68587
DA:288,68587
DA:289,68587
DA:290,68587
DA:291,68587
DA:293,0
DA:294,68587
DA:295,0
DA:297,68588
DA:300,0
DA:302,0
DA:303,0
DA:304,0
DA:307,490
DA:310,490
DA:311,490
DA:312,490
DA:314,490
DA:315,490
DA:318,490
DA:320,490
DA:321,490
DA:324,980
DA:325,481
DA:326,481
DA:327,962
DA:328,0
DA:330,18
DA:331,6
DA:332,14
DA:333,8
DA:334,8
DA:335,8
DA:336,16
DA:337,8
DA:339,3
DA:340,3
DA:344,1466
DA:345,976
DA:346,976
DA:347,976
DA:348,973
DA:350,3
DA:353,490
DA:354,490
DA:357,1960
DA:359,1960
DA:360,1960
DA:361,1960
DA:364,0
DA:370,0
DA:371,0
DA:373,0
DA:374,0
DA:376,490
DA:378,490
DA:379,490
DA:381,490
DA:384,490
DA:385,0
DA:388,0
DA:392,490
DA:396,490
DA:397,19
DA:399,471
DA:404,490
DA:407,490
DA:408,490
DA:409,0
DA:410,0
DA:414,490
DA:415,490
DA:416,0
DA:417,0
DA:418,0
DA:421,490
DA:422,490
DA:423,490
DA:425,490
DA:426,0
DA:427,0
DA:428,0
DA:429,0
DA:432,490
DA:433,490
DA:434,490
DA:436,490
DA:437,490
DA:438,490
DA:439,490
DA:444,490
DA:446,490
DA:447,490
DA:448,490
DA:449,490
DA:451,2450
DA:452,1960
DA:453,1960
DA:454,1960
DA:455,490
DA:458,490
DA:460,490
DA:461,490
DA:463,1463
DA:464,973
DA:467,490
DA:469,490
DA:470,490
DA:471,490
DA:473,490
DA:475,490
DA:476,490
DA:477,490
DA:478,490
DA:479,490
DA:481,490
DA:482,490
DA:484,490
DA:491,490
DA:492,0
DA:493,0
DA:494,0
DA:497,490
DA:498,490
DA:499,490
DA:501,490
DA:502,490
DA:503,490
DA:505,490
DA:506,490
DA:508,980
DA:510,980
DA:513,68588
DA:516,68588
DA:517,68588
DA:518,68588
DA:519,68588
DA:520,68588
DA:522,68591
DA:523,68591
DA:525,68591
DA:526,68591
DA:527,68591
DA:528,68591
DA:530,68591
DA:531,68591
DA:532,68591
DA:534,68591
DA:535,68588
DA:537,3
DA:538,68591
DA:539,68588
DA:540,68588
DA:542,68588
DA:543,137176
DA:545,68588
DA:547,0
DA:548,0
DA:551,137176
DA:553,68560
DA:555,68560
DA:556,68560
DA:557,68560
DA:558,68560
DA:559,68560
DA:561,0
DA:564,68571
DA:566,68571
DA:567,68571
DA:568,0
DA:569,68571
DA:576,68571
DA:577,68571
DA:578,8
DA:579,68563
DA:580,68563
DA:581,137126
DA:582,68571
DA:584,68587
DA:586,68587
DA:587,68587
DA:588,68587
DA:589,68587
DA:596,68588
DA:598,68588
DA:600,68588
DA:601,68588
DA:602,68588
DA:603,68588
DA:604,68588
DA:605,68588
DA:606,68588
DA:607,68588
DA:608,68588
DA:610,137176
DA:612,137176
DA:613,137176
DA:614,137176
DA:616,137176
DA:617,137176
DA:618,137176
DA:619,137176
DA:621,137176
DA:624,137175
DA:626,137175
DA:629,205735
DA:631,205735
DA:634,205693
DA:635,205693
DA:636,205693
DA:637,0
DA:638,0
DA:639,0
DA:640,0
DA:641,0
DA:642,0
DA:643,0
DA:644,0
DA:645,0
DA:650,4346
DA:652,4346
DA:653,13038
DA:654,4346
DA:656,4410
DA:658,4410
DA:659,4410
DA:660,4410
DA:661,4346
DA:663,4410
DA:665,4346
DA:666,4346
DA:668,4410
LF:354
LH:298
end_of_record
TN:
SF:/home/apetrini/dev/src/zen/src/httpserver.h
FNF:0
FNH:0
DA:122,68587
LF:1
LH:1
end_of_record
TN:
SF:/home/apetrini/dev/src/zen/src/init.cpp
FN:140,_Z13StartShutdownv
FN:144,_Z17ShutdownRequestedv
FN:153,_ZNK22CCoinsViewErrorCatcher8GetCoinsERK7uint256R6CCoins
FN:173,_Z9InterruptRN5boost12thread_groupE
FN:183,_Z8Shutdownv
FN:287,_Z13HandleSIGTERMi
FN:292,_Z12HandleSIGHUPi
FN:297,_ZL9InitErrorRKNSt7__cxx1112basic_stringIcSt11char_traitsIcESaIcEEE
FN:303,_ZL11InitWarningRKNSt7__cxx1112basic_stringIcSt11char_traitsIcESaIcEEE
FN:309,_ZL4BindRK8CServicej
FN:321,_Z12OnRPCStoppedv
FN:327,_Z15OnRPCPreCommandRK11CRPCCommand
FN:336,_Z11HelpMessageB5cxx1115HelpMessageMode
FN:615,_ZL19BlockNotifyCallbackRK7uint256
FN:625,_ZN13CImportingNowC2Ev
FN:630,_ZN13CImportingNowD2Ev
FN:643,_Z20CleanupBlockRevFilesv
FN:679,_Z12ThreadImportSt6vectorIN5boost10filesystem4pathESaIS2_EE
FN:761,_Z25ThreadNotifyRecentlyAddedv
FN:781,_Z15InitSanityCheckv
FN:794,_ZL13ZC_LoadParamsv
FN:854,_Z14AppInitServersv
FN:876,_Z8AppInit2RN5boost12thread_groupER10CScheduler
FNDA:490,_Z12OnRPCStoppedv
FNDA:490,_Z9InterruptRN5boost12thread_groupE
FNDA:490,_Z14AppInitServersv
FNDA:18858263,_ZNK22CCoinsViewErrorCatcher8GetCoinsERK7uint256R6CCoins
FNDA:426584,_Z17ShutdownRequestedv
FNDA:490,_Z15InitSanityCheckv
FNDA:1,_ZN13CImportingNowD2Ev
FNDA:490,_Z8AppInit2RN5boost12thread_groupER10CScheduler
FNDA:0,_Z11HelpMessageB5cxx1115HelpMessageMode
FNDA:0,_Z20CleanupBlockRevFilesv
FNDA:0,_Z12HandleSIGHUPi
FNDA:0,_ZL19BlockNotifyCallbackRK7uint256
FNDA:0,_ZL9InitErrorRKNSt7__cxx1112basic_stringIcSt11char_traitsIcESaIcEEE
FNDA:948,_ZL4BindRK8CServicej
FNDA:1,_Z13HandleSIGTERMi
FNDA:490,_Z12ThreadImportSt6vectorIN5boost10filesystem4pathESaIS2_EE
FNDA:490,_Z8Shutdownv
FNDA:489,_Z13StartShutdownv
FNDA:490,_Z25ThreadNotifyRecentlyAddedv
FNDA:0,_ZL11InitWarningRKNSt7__cxx1112basic_stringIcSt11char_traitsIcESaIcEEE
FNDA:1,_ZN13CImportingNowC2Ev
FNDA:490,_ZL13ZC_LoadParamsv
FNDA:68501,_Z15OnRPCPreCommandRK11CRPCCommand
FNF:23
FNH:17
DA:140,489
DA:142,489
DA:143,489
DA:144,426584
DA:146,426584
DA:152,980
DA:153,18858263
DA:154,18858263
DA:155,18858263
DA:156,0
DA:157,0
DA:158,0
DA:163,0
DA:164,0
DA:173,490
DA:175,490
DA:176,490
DA:177,490
DA:178,490
DA:179,490
DA:180,490
DA:181,490
DA:183,490
DA:185,490
DA:186,490
DA:187,490
DA:188,490
DA:189,0
DA:195,490
DA:196,490
DA:198,490
DA:199,490
DA:200,490
DA:201,490
DA:202,490
DA:204,490
DA:205,479
DA:209,490
DA:214,490
DA:215,490
DA:216,490
DA:218,490
DA:220,490
DA:221,490
DA:222,490
DA:223,490
DA:225,0
DA:226,490
DA:227,490
DA:229,490
DA:230,490
DA:231,490
DA:232,490
DA:234,490
DA:235,490
DA:236,490
DA:237,490
DA:238,490
DA:239,490
DA:240,980
DA:241,490
DA:242,0
DA:244,490
DA:245,479
DA:249,490
DA:250,1
DA:251,1
DA:252,1
DA:265,490
DA:266,980
DA:267,0
DA:268,0
DA:269,0
DA:271,490
DA:273,490
DA:274,490
DA:276,490
DA:277,490
DA:278,490
DA:279,490
DA:280,490
DA:281,490
DA:282,490
DA:287,1
DA:289,1
DA:290,1
DA:292,0
DA:294,0
DA:295,0
DA:297,0
DA:299,0
DA:300,0
DA:303,0
DA:305,0
DA:306,0
DA:309,948
DA:310,948
DA:312,948
DA:313,948
DA:314,0
DA:315,0
DA:319,948
DA:321,490
DA:323,490
DA:324,490
DA:325,490
DA:327,68501
DA:330,68501
DA:331,68545
DA:332,0
DA:333,0
DA:334,68501
DA:336,0
DA:338,0
DA:343,0
DA:344,0
DA:345,0
DA:346,0
DA:347,0
DA:348,0
DA:349,0
DA:350,0
DA:351,0
DA:354,0
DA:357,0
DA:358,0
DA:359,0
DA:360,0
DA:361,0
DA:362,0
DA:363,0
DA:364,0
DA:365,0
DA:366,0
DA:368,0
DA:370,0
DA:372,0
DA:373,0
DA:374,0
DA:376,0
DA:378,0
DA:379,0
DA:390,0
DA:391,0
DA:392,0
DA:393,0
DA:394,0
DA:395,0
DA:396,0
DA:397,0
DA:398,0
DA:399,0
DA:400,0
DA:401,0
DA:402,0
DA:403,0
DA:404,0
DA:405,0
DA:406,0
DA:407,0
DA:408,0
DA:409,0
DA:410,0
DA:411,0
DA:412,0
DA:413,0
DA:414,0
DA:415,0
DA:416,0
DA:417,0
DA:418,0
DA:419,0
DA:420,0
DA:421,0
DA:422,0
DA:423,0
DA:424,0
DA:432,0
DA:433,0
DA:434,0
DA:437,0
DA:438,0
DA:439,0
DA:440,0
DA:441,0
DA:442,0
DA:443,0
DA:444,0
DA:445,0
DA:446,0
DA:447,0
DA:448,0
DA:449,0
DA:450,0
DA:451,0
DA:452,0
DA:453,0
DA:454,0
DA:455,0
DA:456,0
DA:457,0
DA:461,0
DA:462,0
DA:463,0
DA:464,0
DA:465,0
DA:476,0
DA:477,0
DA:479,0
DA:480,0
DA:481,0
DA:482,0
DA:483,0
DA:484,0
DA:485,0
DA:486,0
DA:488,0
DA:489,0
DA:490,0
DA:491,0
DA:492,0
DA:493,0
DA:494,0
DA:495,0
DA:496,0
DA:497,0
DA:499,0
DA:500,0
DA:501,0
DA:503,0
DA:504,0
DA:505,0
DA:506,0
DA:508,0
DA:509,0
DA:510,0
DA:511,0
DA:513,0
DA:514,0
DA:515,0
DA:517,0
DA:518,0
DA:519,0
DA:521,0
DA:522,0
DA:523,0
DA:525,0
DA:527,0
DA:528,0
DA:529,0
DA:534,0
DA:535,0
DA:537,0
DA:538,0
DA:540,0
DA:541,0
DA:543,0
DA:544,0
DA:546,0
DA:547,0
DA:549,0
DA:550,0
DA:552,0
DA:553,0
DA:555,0
DA:557,0
DA:558,0
DA:560,0
DA:561,0
DA:563,0
DA:564,0
DA:566,0
DA:567,0
DA:569,0
DA:570,0
DA:573,0
DA:574,0
DA:575,0
DA:576,0
DA:577,0
DA:578,0
DA:579,0
DA:581,0
DA:585,0
DA:588,0
DA:589,0
DA:590,0
DA:591,0
DA:592,0
DA:593,0
DA:594,0
DA:595,0
DA:596,0
DA:597,0
DA:598,0
DA:599,0
DA:605,0
DA:606,0
DA:607,0
DA:608,0
DA:609,0
DA:612,0
DA:613,0
DA:615,0
DA:617,0
DA:619,0
DA:620,0
DA:621,0
DA:625,1
DA:626,1
DA:627,1
DA:628,1
DA:630,1
DA:631,1
DA:632,1
DA:633,1
DA:643,0
DA:645,0
DA:646,0
DA:651,0
DA:652,0
DA:653,0
DA:654,0
DA:655,0
DA:656,0
DA:658,0
DA:659,0
DA:660,0
DA:661,0
DA:663,0
DA:669,0
DA:670,0
DA:671,0
DA:672,0
DA:673,0
DA:675,0
DA:676,0
DA:677,0
DA:679,490
DA:681,490
DA:684,490
DA:686,1
DA:687,1
DA:688,1
DA:689,1
DA:691,0
DA:692,0
DA:694,0
DA:695,0
DA:696,0
DA:697,0
DA:698,0
DA:700,1
DA:701,0
DA:703,1
DA:704,2
DA:705,3
DA:707,2
DA:708,2
DA:710,1
DA:711,1
DA:712,1
DA:713,1
DA:714,1
DA:715,1
DA:717,1
DA:718,1
DA:719,1
DA:720,1
DA:721,1
DA:722,1
DA:725,1
DA:726,1
DA:729,490
DA:730,490
DA:731,0
DA:732,0
DA:733,0
DA:734,0
DA:735,0
DA:736,0
DA:737,0
DA:738,0
DA:739,0
DA:744,490
DA:745,0
DA:746,0
DA:747,0
DA:748,0
DA:749,0
DA:750,0
DA:751,0
DA:755,490
DA:756,0
DA:757,0
DA:759,490
DA:761,490
DA:763,26376
DA:765,26376
DA:766,26376
DA:767,26376
DA:768,26376
DA:769,26376
DA:771,26376
DA:773,25886
DA:781,490
DA:783,490
DA:784,0
DA:785,0
DA:787,490
DA:788,0
DA:794,490
DA:796,490
DA:797,490
DA:799,490
DA:800,490
DA:801,490
DA:802,490
DA:803,490
DA:805,980
DA:806,980
DA:807,980
DA:808,980
DA:809,490
DA:810,490
DA:812,0
DA:813,0
DA:818,0
DA:819,0
DA:822,490
DA:823,490
DA:825,490
DA:827,490
DA:828,490
DA:829,490
DA:831,490
DA:832,490
DA:833,490
DA:835,490
DA:836,490
DA:837,490
DA:838,490
DA:840,490
DA:849,490
DA:850,490
DA:851,490
DA:852,490
DA:854,490
DA:856,490
DA:857,490
DA:858,490
DA:860,490
DA:862,490
DA:864,980
DA:866,490
DA:868,980
DA:869,0
DA:876,490
DA:902,490
DA:903,0
DA:906,490
DA:908,0
DA:909,0
DA:912,490
DA:916,490
DA:917,490
DA:918,490
DA:919,490
DA:920,490
DA:921,490
DA:924,490
DA:925,490
DA:926,490
DA:927,490
DA:928,490
DA:931,490
DA:935,490
DA:938,490
DA:941,490
DA:942,950
DA:943,0
DA:945,950
DA:946,0
DA:947,950
DA:948,0
DA:953,490
DA:954,490
DA:955,490
DA:956,490
DA:958,490
DA:962,980
DA:963,0
DA:964,0
DA:966,980
DA:967,0
DA:968,0
DA:971,986
DA:973,6
DA:974,6
DA:975,6
DA:976,6
DA:979,980
DA:981,4
DA:982,0
DA:984,4
DA:985,0
DA:988,490
DA:990,16
DA:991,0
DA:992,16
DA:993,0
DA:996,980
DA:998,0
DA:999,0
DA:1002,490
DA:1004,0
DA:1005,0
DA:1009,490
DA:1010,13
DA:1011,13
DA:1015,1960
DA:1016,490
DA:1017,490
DA:1018,490
DA:1019,490
DA:1020,0
DA:1021,490
DA:1022,0
DA:1026,490
DA:1027,0
DA:1028,0
DA:1030,0
DA:1031,0
DA:1032,0
DA:1034,0
DA:1039,492
DA:1040,0
DA:1042,1470
DA:1044,5
DA:1045,5
DA:1047,4
DA:1054,4
DA:1055,4
DA:1056,0
DA:1058,4
DA:1059,4
DA:1061,4
DA:1066,490
DA:1068,490
DA:1069,980
DA:1070,0
DA:1073,490
DA:1074,18
DA:1075,18
DA:1076,18
DA:1077,36
DA:1082,490
DA:1083,0
DA:1085,980
DA:1086,0
DA:1088,490
DA:1089,0
DA:1091,490
DA:1092,0
DA:1095,490
DA:1096,490
DA:1097,490
DA:1100,490
DA:1101,490
DA:1102,490
DA:1103,490
DA:1104,0
DA:1105,490
DA:1106,0
DA:1108,490
DA:1111,490
DA:1112,490
DA:1113,0
DA:1115,490
DA:1116,490
DA:1117,0
DA:1118,0
DA:1120,0
DA:1121,0
DA:1126,490
DA:1129,490
DA:1130,490
DA:1131,0
DA:1139,980
DA:1141,1
DA:1142,2
DA:1143,1
DA:1145,0
DA:1149,980
DA:1151,0
DA:1152,0
DA:1153,0
DA:1155,0
DA:1157,980
DA:1159,1
DA:1160,1
DA:1161,0
DA:1162,1
DA:1163,0
DA:1164,1
DA:1165,1
DA:1167,0
DA:1168,0
DA:1171,980
DA:1173,0
DA:1174,0
DA:1175,0
DA:1176,0
DA:1177,0
DA:1178,0
DA:1179,0
DA:1181,0
DA:1182,0
DA:1185,490
DA:1186,490
DA:1187,490
DA:1189,980
DA:1192,490
DA:1193,490
DA:1195,490
DA:1198,490
DA:1201,980
DA:1202,0
DA:1203,0
DA:1204,0
DA:1205,0
DA:1206,0
DA:1208,0
DA:1212,980
DA:1213,4
DA:1214,4
DA:1215,0
DA:1216,4
DA:1217,4
DA:1224,490
DA:1229,490
DA:1230,980
DA:1233,490
DA:1234,0
DA:1238,980
DA:1239,0
DA:1242,490
DA:1243,490
DA:1244,490
DA:1246,490
DA:1247,490
DA:1248,490
DA:1249,0
DA:1251,0
DA:1252,0
DA:1253,0
DA:1256,490
DA:1257,0
DA:1260,490
DA:1261,0
DA:1264,490
DA:1266,490
DA:1268,490
DA:1269,189
DA:1271,490
DA:1273,490
DA:1274,490
DA:1276,490
DA:1278,490
DA:1280,490
DA:1281,0
DA:1282,490
DA:1283,490
DA:1287,490
DA:1288,490
DA:1290,490
DA:1291,490
DA:1292,3920
DA:1293,3430
DA:1297,490
DA:1298,1470
DA:1301,490
DA:1303,490
DA:1304,490
DA:1305,490
DA:1307,0
DA:1308,0
DA:1313,490
DA:1314,490
DA:1317,490
DA:1320,490
DA:1327,490
DA:1329,980
DA:1330,490
DA:1331,0
DA:1334,490
DA:1338,490
DA:1339,479
DA:1340,479
DA:1342,479
DA:1343,479
DA:1345,479
DA:1348,479
DA:1349,0
DA:1350,479
DA:1351,0
DA:1353,479
DA:1357,490
DA:1359,980
DA:1360,0
DA:1361,0
DA:1362,0
DA:1363,0
DA:1364,0
DA:1365,0
DA:1367,0
DA:1368,0
DA:1369,0
DA:1370,0
DA:1372,0
DA:1374,980
DA:1375,14
DA:1376,7
DA:1377,7
DA:1378,0
DA:1379,7
DA:1383,490
DA:1386,980
DA:1387,490
DA:1388,494
DA:1389,4
DA:1390,4
DA:1391,0
DA:1393,4
DA:1394,4
DA:1395,4
DA:1396,4
DA:1397,4
DA:1403,980
DA:1404,490
DA:1405,2
DA:1406,1
DA:1408,1
DA:1409,1
DA:1410,0
DA:1411,1
DA:1412,1
DA:1417,490
DA:1418,490
DA:1419,490
DA:1421,490
DA:1422,490
DA:1423,1896
DA:1424,0
DA:1425,0
DA:1426,0
DA:1427,0
DA:1428,0
DA:1430,0
DA:1431,0
DA:1432,0
DA:1433,0
DA:1434,0
DA:1435,0
DA:1436,0
DA:1440,474
DA:1441,474
DA:1442,474
DA:1443,474
DA:1445,474
DA:1446,0
DA:1449,980
DA:1450,0
DA:1451,0
DA:1452,0
DA:1453,0
DA:1454,0
DA:1458,490
DA:1459,0
DA:1461,980
DA:1462,0
DA:1463,0
DA:1464,0
DA:1465,0
DA:1467,980
DA:1468,0
DA:1469,0
DA:1470,0
DA:1471,0
DA:1473,980
DA:1474,0
DA:1475,0
DA:1476,0
DA:1477,0
DA:1480,490
DA:1482,490
DA:1483,1
DA:1504,490
DA:1505,490
DA:1508,490
DA:1509,490
DA:1511,310
DA:1512,310
DA:1513,310
DA:1514,930
DA:1515,310
DA:1516,0
DA:1517,0
DA:1518,0
DA:1519,0
DA:1520,0
DA:1521,0
DA:1524,0
DA:1525,0
DA:1526,0
DA:1527,310
DA:1528,310
DA:1530,0
DA:1535,490
DA:1536,490
DA:1543,490
DA:1544,490
DA:1545,490
DA:1548,490
DA:1549,490
DA:1550,490
DA:1551,490
DA:1559,1002
DA:1560,468
DA:1567,490
DA:1568,490
DA:1569,490
DA:1570,490
DA:1571,490
DA:1572,490
DA:1573,490
DA:1574,490
DA:1575,490
DA:1577,490
DA:1578,980
DA:1579,490
DA:1580,490
DA:1582,490
DA:1584,490
DA:1585,980
DA:1586,490
DA:1587,490
DA:1588,490
DA:1589,490
DA:1590,490
DA:1591,490
DA:1593,979
DA:1594,979
DA:1595,490
DA:1596,490
DA:1598,490
DA:1599,1
DA:1600,1
DA:1603,1
DA:1604,0
DA:1606,1
DA:1609,490
DA:1610,0
DA:1611,0
DA:1616,490
DA:1617,0
DA:1620,490
DA:1621,0
DA:1622,0
DA:1626,490
DA:1627,0
DA:1628,0
DA:1632,490
DA:1633,0
DA:1634,0
DA:1638,490
DA:1639,490
DA:1640,490
DA:1661,490
DA:1663,0
DA:1664,0
DA:1666,0
DA:1667,0
DA:1668,0
DA:1669,0
DA:1672,490
DA:1673,0
DA:1674,0
DA:1679,490
DA:1680,0
DA:1681,0
DA:1684,490
DA:1685,490
DA:1686,0
DA:1689,1470
DA:1690,980
DA:1691,0
DA:1692,0
DA:1694,0
DA:1695,0
DA:1696,0
DA:1697,0
DA:1698,0
DA:1700,490
DA:1703,490
DA:1705,0
DA:1706,0
DA:1707,0
DA:1708,0
DA:1710,0
DA:1711,0
DA:1712,490
DA:1714,0
DA:1718,0
DA:1721,490
DA:1726,490
DA:1728,0
DA:1731,490
DA:1733,490
DA:1734,490
DA:1736,490
DA:1737,116
DA:1738,490
DA:1743,490
DA:1744,11
DA:1745,11
DA:1749,479
DA:1751,479
DA:1752,13
DA:1754,13
DA:1755,13
DA:1756,13
DA:1757,0
DA:1758,0
DA:1761,13
DA:1762,13
DA:1765,479
DA:1767,479
DA:1768,479
DA:1769,479
DA:1770,479
DA:1771,479
DA:1774,0
DA:1777,0
DA:1778,0
DA:1780,0
DA:1781,0
DA:1782,0
DA:1784,0
DA:1786,0
DA:1787,0
DA:1789,0
DA:1792,0
DA:1793,0
DA:1794,0
DA:1797,0
DA:1800,479
DA:1802,313
DA:1803,313
DA:1805,313
DA:1806,313
DA:1807,313
DA:1810,0
DA:1811,313
DA:1812,0
DA:1813,313
DA:1816,479
DA:1819,313
DA:1820,313
DA:1821,313
DA:1822,313
DA:1823,0
DA:1826,626
DA:1829,479
DA:1830,479
DA:1832,479
DA:1834,479
DA:1835,479
DA:1837,21
DA:1838,21
DA:1842,458
DA:1843,458
DA:1844,458
DA:1845,458
DA:1847,458
DA:1848,916
DA:1849,479
DA:1851,158
DA:1852,158
DA:1853,158
DA:1854,158
DA:1855,158
DA:1856,158
DA:1857,158
DA:1860,177
DA:1862,1
DA:1864,10
DA:1866,9
DA:1867,9
DA:1868,9
DA:1870,7
DA:1871,7
DA:1872,7
DA:1873,7
DA:1874,7
DA:1875,7
DA:1876,7
DA:1877,7
DA:1878,7
DA:1879,7
DA:1882,1
DA:1884,479
DA:1885,479
DA:1900,980
DA:1902,0
DA:1903,0
DA:1905,0
DA:1906,0
DA:1907,0
DA:1908,0
DA:1909,0
DA:1910,0
DA:1911,0
DA:1921,490
DA:1922,0
DA:1923,0
DA:1924,0
DA:1925,0
DA:1926,0
DA:1932,980
DA:1933,0
DA:1935,490
DA:1937,490
DA:1938,490
DA:1939,0
DA:1941,490
DA:1942,980
DA:1944,0
DA:1945,0
DA:1947,980
DA:1948,490
DA:1949,1
DA:1950,2
DA:1951,1
DA:1956,490
DA:1959,490
DA:1960,0
DA:1963,490
DA:1964,490
DA:1966,490
DA:1967,490
DA:1968,490
DA:1973,490
DA:1975,490
DA:1976,0
DA:1978,490
DA:1981,490
DA:1982,490
DA:1983,490
DA:1984,980
DA:1989,523
DA:1990,958
DA:1996,490
DA:1998,490
DA:2003,490
DA:2004,490
DA:2007,490
DA:2009,479
DA:2012,479
DA:2017,490
DA:2020,490
DA:2023,490
DA:2027,490
DA:2028,4036
LF:1074
LH:587
end_of_record
TN:
SF:/home/apetrini/dev/src/zen/src/key.cpp
FN:36,_ZL21ec_privkey_import_derPK24secp256k1_context_structPhPKhm
FN:93,_ZL21ec_privkey_export_derPK24secp256k1_context_structPhPmPKhi
FN:158,_ZN4CKey5CheckEPKh
FN:162,_ZN4CKey10MakeNewKeyEb
FN:170,_ZN4CKey10SetPrivKeyERKSt6vectorIh16secure_allocatorIhEEb
FN:178,_ZNK4CKey10GetPrivKeyEv
FN:191,_ZNK4CKey9GetPubKeyEv
FN:204,_ZNK4CKey4SignERK7uint256RSt6vectorIhSaIhEEj
FN:219,_ZNK4CKey12VerifyPubKeyERK7CPubKey
FN:233,_ZNK4CKey11SignCompactERK7uint256RSt6vectorIhSaIhEE
FN:248,_ZN4CKey4LoadERSt6vectorIh16secure_allocatorIhEER7CPubKeyb
FN:260,_ZNK4CKey6DeriveERS_R7uint256jRKS1_
FN:282,_ZNK7CExtKey6DeriveERS_j
FN:290,_ZN7CExtKey9SetMasterEPKhj
FN:303,_ZNK7CExtKey6NeuterEv
FN:313,_ZNK7CExtKey6EncodeEPh
FN:324,_ZN7CExtKey6DecodeEPKh
FN:332,_Z19ECC_InitSanityCheckv
FN:339,_Z9ECC_Startv
FN:358,_Z8ECC_Stopv
FNDA:19587,_ZNK4CKey9GetPubKeyEv
FNDA:0,_ZN4CKey10SetPrivKeyERKSt6vectorIh16secure_allocatorIhEEb
FNDA:0,_ZNK4CKey6DeriveERS_R7uint256jRKS1_
FNDA:9028,_ZL21ec_privkey_export_derPK24secp256k1_context_structPhPmPKhi
FNDA:10065,_ZN4CKey5CheckEPKh
FNDA:490,_Z8ECC_Stopv
FNDA:0,_ZN7CExtKey6DecodeEPKh
FNDA:490,_Z19ECC_InitSanityCheckv
FNDA:0,_ZN7CExtKey9SetMasterEPKhj
FNDA:9735,_ZNK4CKey12VerifyPubKeyERK7CPubKey
FNDA:19237,_ZNK4CKey4SignERK7uint256RSt6vectorIhSaIhEEj
FNDA:0,_ZNK4CKey11SignCompactERK7uint256RSt6vectorIhSaIhEE
FNDA:9028,_ZNK4CKey10GetPrivKeyEv
FNDA:0,_ZNK7CExtKey6EncodeEPh
FNDA:9208,_ZN4CKey10MakeNewKeyEb
FNDA:1320,_ZN4CKey4LoadERSt6vectorIh16secure_allocatorIhEER7CPubKeyb
FNDA:0,_ZNK7CExtKey6DeriveERS_j
FNDA:490,_Z9ECC_Startv
FNDA:1320,_ZL21ec_privkey_import_derPK24secp256k1_context_structPhPKhm
FNDA:0,_ZNK7CExtKey6NeuterEv
FNF:20
FNH:12
DA:36,1320
DA:37,1320
DA:38,1320
DA:40,1320
DA:43,1320
DA:45,1320
DA:48,1320
DA:49,1320
DA:52,1320
DA:56,1320
DA:57,1320
DA:58,1320
DA:62,1320
DA:65,1320
DA:67,1320
DA:70,1320
DA:71,1320
DA:72,1320
DA:75,1320
DA:76,1320
DA:77,0
DA:78,0
DA:93,9028
DA:94,9028
DA:95,9028
DA:98,9028
DA:99,9028
DA:100,9028
DA:101,0
DA:102,0
DA:104,9028
DA:105,9028
DA:108,9028
DA:119,9028
DA:120,9028
DA:121,9028
DA:122,9028
DA:123,9028
DA:124,9028
DA:125,9028
DA:126,9028
DA:127,9028
DA:129,0
DA:132,0
DA:145,0
DA:146,0
DA:147,0
DA:148,0
DA:149,0
DA:150,0
DA:151,0
DA:152,0
DA:153,0
DA:158,10065
DA:159,10065
DA:162,9208
DA:163,9208
DA:164,9208
DA:165,9208
DA:166,9208
DA:167,9208
DA:168,9208
DA:170,0
DA:171,0
DA:173,0
DA:174,0
DA:175,0
DA:178,9028
DA:179,9028
DA:180,9028
DA:181,9028
DA:182,9028
DA:183,9028
DA:184,9028
DA:185,9028
DA:186,9028
DA:187,9028
DA:188,9028
DA:189,0
DA:191,19587
DA:192,19587
DA:193,19587
DA:194,19587
DA:195,19587
DA:196,19587
DA:197,19587
DA:198,19587
DA:199,19587
DA:200,19587
DA:201,19587
DA:204,19237
DA:205,19237
DA:207,19237
DA:208,19237
DA:209,19237
DA:210,19237
DA:211,19237
DA:212,38474
DA:213,19237
DA:214,19237
DA:215,19237
DA:219,9735
DA:220,9735
DA:223,9735
DA:224,9735
DA:225,9735
DA:226,9735
DA:227,9735
DA:228,9735
DA:229,9735
DA:230,9735
DA:231,19470
DA:233,0
DA:234,0
DA:236,0
DA:237,0
DA:238,0
DA:239,0
DA:240,0
DA:241,0
DA:242,0
DA:243,0
DA:244,0
DA:245,0
DA:248,1320
DA:249,1320
DA:251,1320
DA:252,1320
DA:254,1320
DA:257,0
DA:260,0
DA:261,0
DA:262,0
DA:263,0
DA:264,0
DA:265,0
DA:266,0
DA:267,0
DA:268,0
DA:270,0
DA:271,0
DA:273,0
DA:274,0
DA:275,0
DA:276,0
DA:277,0
DA:278,0
DA:279,0
DA:282,0
DA:283,0
DA:284,0
DA:285,0
DA:286,0
DA:287,0
DA:290,0
DA:291,0
DA:292,0
DA:293,0
DA:294,0
DA:295,0
DA:296,0
DA:297,0
DA:298,0
DA:299,0
DA:300,0
DA:301,0
DA:303,0
DA:304,0
DA:305,0
DA:306,0
DA:307,0
DA:308,0
DA:309,0
DA:310,0
DA:313,0
DA:314,0
DA:315,0
DA:316,0
DA:317,0
DA:318,0
DA:319,0
DA:320,0
DA:321,0
DA:322,0
DA:324,0
DA:325,0
DA:326,0
DA:327,0
DA:328,0
DA:329,0
DA:330,0
DA:332,490
DA:333,490
DA:334,490
DA:335,490
DA:336,490
DA:337,490
DA:339,490
DA:340,490
DA:342,490
DA:343,490
DA:345,490
DA:347,490
DA:348,490
DA:349,490
DA:350,490
DA:351,490
DA:352,490
DA:355,490
DA:356,490
DA:358,490
DA:359,490
DA:360,490
DA:362,490
DA:363,490
DA:365,490
LF:216
LH:121
end_of_record
TN:
SF:/home/apetrini/dev/src/zen/src/key.h
FN:61,_ZN4CKeyC2ERKS_
FN:73,_ZeqRK4CKeyS1_
FN:81,_ZN4CKey3SetIPhEEvT_S2_b
FN:81,_ZN4CKey3SetIN9__gnu_cxx17__normal_iteratorIPhSt6vectorIh16secure_allocatorIhEEEEEEvT_S9_b
FN:81,_ZN4CKey3SetIPKhEEvT_S3_b
FN:81,_ZN4CKey3SetIN9__gnu_cxx17__normal_iteratorIPhSt6vectorIh25zero_after_free_allocatorIhEEEEEEvT_S9_b
FN:81,_ZN4CKey3SetIN9__gnu_cxx17__normal_iteratorIPhSt6vectorIhSaIhEEEEEEvT_S8_b
FN:163,_ZeqRK7CExtKeyS1_
FNDA:0,_ZN4CKey3SetIPhEEvT_S2_b
FNDA:0,_ZeqRK4CKeyS1_
FNDA:165,_ZN4CKey3SetIN9__gnu_cxx17__normal_iteratorIPhSt6vectorIh16secure_allocatorIhEEEEEEvT_S9_b
FNDA:0,_ZeqRK7CExtKeyS1_
FNDA:0,_ZN4CKey3SetIN9__gnu_cxx17__normal_iteratorIPhSt6vectorIhSaIhEEEEEEvT_S8_b
FNDA:0,_ZN4CKeyC2ERKS_
FNDA:0,_ZN4CKey3SetIPKhEEvT_S3_b
FNDA:692,_ZN4CKey3SetIN9__gnu_cxx17__normal_iteratorIPhSt6vectorIh25zero_after_free_allocatorIhEEEEEEvT_S9_b
FNF:8
FNH:2
DA:55,41481
DA:57,41481
DA:58,2370
DA:61,0
DA:63,0
DA:64,0
DA:65,0
DA:68,41481
DA:70,41481
DA:71,31128
DA:73,0
DA:75,0
DA:76,0
DA:81,857
DA:83,857
DA:84,0
DA:85,0
DA:87,857
DA:88,857
DA:89,857
DA:90,857
DA:92,0
DA:97,77
DA:98,49860
DA:99,77
DA:102,695
DA:105,688
DA:156,0
DA:163,0
DA:165,0
DA:166,0
LF:31
LH:17
end_of_record
TN:
SF:/home/apetrini/dev/src/zen/src/keystore.cpp
FN:13,_ZNK9CKeyStore9GetPubKeyERK6CKeyIDR7CPubKey
FN:22,_ZN9CKeyStore6AddKeyERK4CKey
FN:26,_ZN14CBasicKeyStore12AddKeyPubKeyERK4CKeyRK7CPubKey
FN:33,_ZN14CBasicKeyStore10AddCScriptERK7CScript
FN:43,_ZNK14CBasicKeyStore11HaveCScriptERK9CScriptID
FN:49,_ZNK14CBasicKeyStore10GetCScriptERK9CScriptIDR7CScript
FN:61,_ZN14CBasicKeyStore12AddWatchOnlyERK7CScript
FN:68,_ZN14CBasicKeyStore15RemoveWatchOnlyERK7CScript
FN:75,_ZNK14CBasicKeyStore13HaveWatchOnlyERK7CScript
FN:82,_ZZNK14CBasicKeyStore13HaveWatchOnlyERK7CScriptENKUlS2_E_clES2_
FN:90,_ZNK14CBasicKeyStore13HaveWatchOnlyEv
FN:96,_ZN14CBasicKeyStore14AddSpendingKeyERKN8libzcash11SpendingKeyE
FN:105,_ZN14CBasicKeyStore13AddViewingKeyERKN8libzcash10ViewingKeyE
FN:114,_ZN14CBasicKeyStore16RemoveViewingKeyERKN8libzcash10ViewingKeyE
FN:121,_ZNK14CBasicKeyStore14HaveViewingKeyERKN8libzcash14PaymentAddressE
FN:127,_ZNK14CBasicKeyStore13GetViewingKeyERKN8libzcash14PaymentAddressERNS0_10ViewingKeyE
FNDA:0,_ZNK14CBasicKeyStore11HaveCScriptERK9CScriptID
FNDA:3,_ZN14CBasicKeyStore12AddWatchOnlyERK7CScript
FNDA:10353,_ZN14CBasicKeyStore12AddKeyPubKeyERK4CKeyRK7CPubKey
FNDA:9661,_ZNK9CKeyStore9GetPubKeyERK6CKeyIDR7CPubKey
FNDA:2,_ZN14CBasicKeyStore13AddViewingKeyERKN8libzcash10ViewingKeyE
FNDA:178,_ZN14CBasicKeyStore14AddSpendingKeyERKN8libzcash11SpendingKeyE
FNDA:2,_ZNK14CBasicKeyStore13GetViewingKeyERKN8libzcash14PaymentAddressERNS0_10ViewingKeyE
FNDA:5301472,_ZNK14CBasicKeyStore10GetCScriptERK9CScriptIDR7CScript
FNDA:1456,_ZZNK14CBasicKeyStore13HaveWatchOnlyERK7CScriptENKUlS2_E_clES2_
FNDA:5,_ZN9CKeyStore6AddKeyERK4CKey
FNDA:7279142,_ZNK14CBasicKeyStore13HaveWatchOnlyERK7CScript
FNDA:180,_ZNK14CBasicKeyStore14HaveViewingKeyERKN8libzcash14PaymentAddressE
FNDA:0,_ZN14CBasicKeyStore16RemoveViewingKeyERKN8libzcash10ViewingKeyE
FNDA:0,_ZN14CBasicKeyStore15RemoveWatchOnlyERK7CScript
FNDA:0,_ZNK14CBasicKeyStore13HaveWatchOnlyEv
FNDA:8,_ZN14CBasicKeyStore10AddCScriptERK7CScript
FNF:16
FNH:12
DA:13,9661
DA:15,9661
DA:16,9661
DA:18,9661
DA:20,9661
DA:22,5
DA:23,5
DA:26,10353
DA:28,10353
DA:29,10353
DA:30,10353
DA:31,10353
DA:33,8
DA:35,8
DA:36,0
DA:38,8
DA:39,8
DA:40,8
DA:41,8
DA:43,0
DA:45,0
DA:46,0
DA:47,0
DA:49,5301472
DA:51,5301472
DA:52,5301472
DA:53,5301472
DA:55,5301472
DA:59,5301472
DA:61,3
DA:63,3
DA:64,3
DA:65,3
DA:66,3
DA:68,0
DA:70,0
DA:71,0
DA:72,0
DA:73,0
DA:75,7279142
DA:77,7279142
DA:82,7282054
DA:83,1456
DA:84,1456
DA:85,7279142
DA:87,7279142
DA:88,7279142
DA:90,0
DA:92,0
DA:93,0
DA:94,0
DA:96,178
DA:98,178
DA:99,178
DA:100,178
DA:101,178
DA:102,178
DA:103,178
DA:105,2
DA:107,2
DA:108,2
DA:109,2
DA:110,2
DA:111,2
DA:112,2
DA:114,0
DA:116,0
DA:117,0
DA:118,0
DA:119,0
DA:121,180
DA:123,180
DA:124,360
DA:125,180
DA:127,2
DA:130,2
DA:131,2
DA:132,2
DA:133,0
DA:134,0
DA:137,2
LF:81
LH:60
end_of_record
TN:
SF:/home/apetrini/dev/src/zen/src/keystore.h
FN:28,_ZN9CKeyStoreD2Ev
FN:28,_ZN9CKeyStoreD0Ev
FN:86,_ZNK14CBasicKeyStore7HaveKeyERK6CKeyID
FN:95,_ZNK14CBasicKeyStore7GetKeysERSt3setI6CKeyIDSt4lessIS1_ESaIS1_EE
FN:108,_ZNK14CBasicKeyStore6GetKeyERK6CKeyIDR4CKey
FN:131,_ZNK14CBasicKeyStore15HaveSpendingKeyERKN8libzcash14PaymentAddressE
FN:140,_ZNK14CBasicKeyStore14GetSpendingKeyERKN8libzcash14PaymentAddressERNS0_11SpendingKeyE
FN:153,_ZNK14CBasicKeyStore16GetNoteDecryptorERKN8libzcash14PaymentAddressERNS0_14NoteDecryptionILm585EEE
FN:166,_ZNK14CBasicKeyStore19GetPaymentAddressesERSt3setIN8libzcash14PaymentAddressESt4lessIS2_ESaIS2_EE
FNDA:1805,_ZN9CKeyStoreD2Ev
FNDA:57,_ZNK14CBasicKeyStore14GetSpendingKeyERKN8libzcash14PaymentAddressERNS0_11SpendingKeyE
FNDA:0,_ZN9CKeyStoreD0Ev
FNDA:10025929,_ZNK14CBasicKeyStore7HaveKeyERK6CKeyID
FNDA:19743,_ZNK14CBasicKeyStore6GetKeyERK6CKeyIDR4CKey
FNDA:4,_ZNK14CBasicKeyStore19GetPaymentAddressesERSt3setIN8libzcash14PaymentAddressESt4lessIS2_ESaIS2_EE
FNDA:42,_ZNK14CBasicKeyStore16GetNoteDecryptorERKN8libzcash14PaymentAddressERNS0_14NoteDecryptionILm585EEE
FNDA:215,_ZNK14CBasicKeyStore15HaveSpendingKeyERKN8libzcash14PaymentAddressE
FNDA:6,_ZNK14CBasicKeyStore7GetKeysERSt3setI6CKeyIDSt4lessIS1_ESaIS1_EE
FNF:9
FNH:8
DA:28,1805
DA:86,10025929
DA:88,10025929
DA:89,10025929
DA:90,10025929
DA:91,20051858
DA:92,10025929
DA:93,10025929
DA:95,6
DA:97,6
DA:98,6
DA:99,6
DA:100,6
DA:101,6
DA:103,685
DA:104,691
DA:106,6
DA:107,6
DA:108,19743
DA:110,19743
DA:111,19743
DA:112,19743
DA:113,19743
DA:115,19741
DA:116,19741
DA:118,19741
DA:119,2
DA:131,215
DA:133,215
DA:134,215
DA:135,215
DA:136,430
DA:137,215
DA:138,215
DA:140,57
DA:142,57
DA:143,57
DA:144,57
DA:145,57
DA:147,54
DA:148,54
DA:150,54
DA:151,3
DA:153,42
DA:155,42
DA:156,42
DA:157,42
DA:158,42
DA:160,42
DA:161,42
DA:163,42
DA:164,0
DA:166,4
DA:168,4
DA:169,4
DA:170,4
DA:171,4
DA:172,4
DA:174,4
DA:175,8
DA:177,4
DA:178,4
DA:180,2
DA:181,6
DA:183,4
DA:184,4
LF:66
LH:65
end_of_record
TN:
SF:/home/apetrini/dev/src/zen/src/leveldb/db/builder.cc
FN:17,_ZN7leveldb10BuildTableERKNSt7__cxx1112basic_stringIcSt11char_traitsIcESaIcEEEPNS_3EnvERKNS_7OptionsEPNS_10TableCacheEPNS_8IteratorEPNS_12FileMetaDataE
FNDA:358,_ZN7leveldb10BuildTableERKNSt7__cxx1112basic_stringIcSt11char_traitsIcESaIcEEEPNS_3EnvERKNS_7OptionsEPNS_10TableCacheEPNS_8IteratorEPNS_12FileMetaDataE
FNF:1
FNH:1
DA:17,358
DA:23,358
DA:25,358
DA:27,358
DA:28,358
DA:29,358
DA:30,358
DA:31,358
DA:32,0
DA:35,358
DA:36,358
DA:37,102276
DA:38,101918
DA:39,101918
DA:40,101918
DA:44,358
DA:45,358
DA:46,358
DA:47,358
DA:48,358
DA:51,0
DA:53,358
DA:56,358
DA:57,716
DA:59,358
DA:60,716
DA:62,358
DA:63,358
DA:65,358
DA:67,358
DA:70,358
DA:71,358
DA:76,358
DA:77,0
DA:80,358
DA:83,0
DA:86,358
LF:37
LH:33
end_of_record
TN:
SF:/home/apetrini/dev/src/zen/src/leveldb/db/c.cc
FN:69,_ZN20leveldb_comparator_tD0Ev
FN:69,_ZN20leveldb_comparator_tD2Ev
FN:73,_ZNK20leveldb_comparator_t7CompareERKN7leveldb5SliceES3_
FN:77,_ZNK20leveldb_comparator_t4NameEv
FN:82,_ZNK20leveldb_comparator_t21FindShortestSeparatorEPNSt7__cxx1112basic_stringIcSt11char_traitsIcESaIcEEERKN7leveldb5SliceE
FN:83,_ZNK20leveldb_comparator_t18FindShortSuccessorEPNSt7__cxx1112basic_stringIcSt11char_traitsIcESaIcEEE
FN:100,_ZN22leveldb_filterpolicy_tD2Ev
FN:100,_ZN22leveldb_filterpolicy_tD0Ev
FN:104,_ZNK22leveldb_filterpolicy_t4NameEv
FN:108,_ZNK22leveldb_filterpolicy_t12CreateFilterEPKN7leveldb5SliceEiPNSt7__cxx1112basic_stringIcSt11char_traitsIcESaIcEEE
FN:121,_ZNK22leveldb_filterpolicy_t11KeyMayMatchERKN7leveldb5SliceES3_
FN:132,SaveError
FN:146,CopyString
FN:152,leveldb_open
FN:165,leveldb_close
FN:170,leveldb_put
FN:180,leveldb_delete
FN:189,leveldb_write
FN:197,leveldb_get
FN:218,leveldb_create_iterator
FN:226,leveldb_create_snapshot
FN:233,leveldb_release_snapshot
FN:240,leveldb_property_value
FN:252,leveldb_approximate_sizes
FN:267,leveldb_compact_range
FN:278,leveldb_destroy_db
FN:285,leveldb_repair_db
FN:292,leveldb_iter_destroy
FN:297,leveldb_iter_valid
FN:301,leveldb_iter_seek_to_first
FN:305,leveldb_iter_seek_to_last
FN:309,leveldb_iter_seek
FN:313,leveldb_iter_next
FN:317,leveldb_iter_prev
FN:321,leveldb_iter_key
FN:327,leveldb_iter_value
FN:333,leveldb_iter_get_error
FN:337,leveldb_writebatch_create
FN:341,leveldb_writebatch_destroy
FN:345,leveldb_writebatch_clear
FN:349,leveldb_writebatch_put
FN:356,leveldb_writebatch_delete
FN:362,leveldb_writebatch_iterate
FN:372,_ZZ26leveldb_writebatch_iterateEN1H3PutERKN7leveldb5SliceES3_
FN:375,_ZZ26leveldb_writebatch_iterateEN1H6DeleteERKN7leveldb5SliceE
FN:386,leveldb_options_create
FN:390,leveldb_options_destroy
FN:394,leveldb_options_set_comparator
FN:400,leveldb_options_set_filter_policy
FN:406,leveldb_options_set_create_if_missing
FN:411,leveldb_options_set_error_if_exists
FN:416,leveldb_options_set_paranoid_checks
FN:421,leveldb_options_set_env
FN:425,leveldb_options_set_info_log
FN:429,leveldb_options_set_write_buffer_size
FN:433,leveldb_options_set_max_open_files
FN:437,leveldb_options_set_cache
FN:441,leveldb_options_set_block_size
FN:445,leveldb_options_set_block_restart_interval
FN:449,leveldb_options_set_compression
FN:453,leveldb_comparator_create
FN:469,leveldb_comparator_destroy
FN:473,leveldb_filterpolicy_create
FN:495,leveldb_filterpolicy_destroy
FN:499,leveldb_filterpolicy_create_bloom
FN:505,_ZZ33leveldb_filterpolicy_create_bloomEN7WrapperD0Ev
FN:505,_ZZ33leveldb_filterpolicy_create_bloomEN7WrapperD2Ev
FN:506,_ZZ33leveldb_filterpolicy_create_bloomENK7Wrapper4NameEv
FN:507,_ZZ33leveldb_filterpolicy_create_bloomENK7Wrapper12CreateFilterEPKN7leveldb5SliceEiPNSt7__cxx1112basic_stringIcSt11char_traitsIcESaIcEEE
FN:510,_ZZ33leveldb_filterpolicy_create_bloomENK7Wrapper11KeyMayMatchERKN7leveldb5SliceES3_
FN:513,_ZZ33leveldb_filterpolicy_create_bloomEN7Wrapper9DoNothingEPv
FN:522,leveldb_readoptions_create
FN:526,leveldb_readoptions_destroy
FN:530,leveldb_readoptions_set_verify_checksums
FN:536,leveldb_readoptions_set_fill_cache
FN:541,leveldb_readoptions_set_snapshot
FN:547,leveldb_writeoptions_create
FN:551,leveldb_writeoptions_destroy
FN:555,leveldb_writeoptions_set_sync
FN:560,leveldb_cache_create_lru
FN:566,leveldb_cache_destroy
FN:571,leveldb_create_default_env
FN:578,leveldb_env_destroy
FN:583,leveldb_free
FN:587,leveldb_major_version
FN:591,leveldb_minor_version
FNDA:0,leveldb_writebatch_destroy
FNDA:0,leveldb_free
FNDA:0,leveldb_options_destroy
FNDA:0,_ZNK22leveldb_filterpolicy_t12CreateFilterEPKN7leveldb5SliceEiPNSt7__cxx1112basic_stringIcSt11char_traitsIcESaIcEEE
FNDA:0,leveldb_iter_valid
FNDA:0,leveldb_options_create
FNDA:0,leveldb_comparator_create
FNDA:0,leveldb_readoptions_destroy
FNDA:0,leveldb_delete
FNDA:0,_ZZ33leveldb_filterpolicy_create_bloomENK7Wrapper4NameEv
FNDA:0,_ZNK20leveldb_comparator_t7CompareERKN7leveldb5SliceES3_
FNDA:0,leveldb_options_set_info_log
FNDA:0,leveldb_writebatch_delete
FNDA:0,leveldb_property_value
FNDA:0,_ZZ33leveldb_filterpolicy_create_bloomEN7Wrapper9DoNothingEPv
FNDA:0,leveldb_readoptions_set_snapshot
FNDA:0,leveldb_readoptions_create
FNDA:0,_ZZ26leveldb_writebatch_iterateEN1H3PutERKN7leveldb5SliceES3_
FNDA:0,_ZNK20leveldb_comparator_t18FindShortSuccessorEPNSt7__cxx1112basic_stringIcSt11char_traitsIcESaIcEEE
FNDA:0,leveldb_iter_key
FNDA:0,CopyString
FNDA:0,leveldb_iter_prev
FNDA:0,leveldb_options_set_comparator
FNDA:0,leveldb_approximate_sizes
FNDA:0,_ZZ33leveldb_filterpolicy_create_bloomENK7Wrapper12CreateFilterEPKN7leveldb5SliceEiPNSt7__cxx1112basic_stringIcSt11char_traitsIcESaIcEEE
FNDA:0,leveldb_options_set_filter_policy
FNDA:0,leveldb_writebatch_put
FNDA:0,leveldb_writebatch_clear
FNDA:0,_ZN20leveldb_comparator_tD0Ev
FNDA:0,_ZZ26leveldb_writebatch_iterateEN1H6DeleteERKN7leveldb5SliceE
FNDA:0,leveldb_options_set_paranoid_checks
FNDA:0,leveldb_options_set_block_size
FNDA:0,leveldb_options_set_cache
FNDA:0,leveldb_filterpolicy_create_bloom
FNDA:0,leveldb_iter_destroy
FNDA:0,leveldb_iter_next
FNDA:0,leveldb_release_snapshot
FNDA:0,_ZNK22leveldb_filterpolicy_t11KeyMayMatchERKN7leveldb5SliceES3_
FNDA:0,leveldb_options_set_create_if_missing
FNDA:0,leveldb_create_snapshot
FNDA:0,leveldb_open
FNDA:0,leveldb_options_set_write_buffer_size
FNDA:0,_ZNK20leveldb_comparator_t4NameEv
FNDA:0,_ZZ33leveldb_filterpolicy_create_bloomEN7WrapperD0Ev
FNDA:0,leveldb_write
FNDA:0,_ZNK22leveldb_filterpolicy_t4NameEv
FNDA:0,SaveError
FNDA:0,leveldb_writeoptions_set_sync
FNDA:0,leveldb_cache_destroy
FNDA:0,leveldb_destroy_db
FNDA:0,leveldb_minor_version
FNDA:0,leveldb_writebatch_create
FNDA:0,_ZZ33leveldb_filterpolicy_create_bloomENK7Wrapper11KeyMayMatchERKN7leveldb5SliceES3_
FNDA:0,leveldb_filterpolicy_create
FNDA:0,leveldb_iter_seek
FNDA:0,leveldb_writeoptions_create
FNDA:0,leveldb_create_iterator
FNDA:0,leveldb_options_set_env
FNDA:0,leveldb_iter_value
FNDA:0,_ZNK20leveldb_comparator_t21FindShortestSeparatorEPNSt7__cxx1112basic_stringIcSt11char_traitsIcESaIcEEERKN7leveldb5SliceE
FNDA:0,_ZN20leveldb_comparator_tD2Ev
FNDA:0,leveldb_writeoptions_destroy
FNDA:0,leveldb_readoptions_set_fill_cache
FNDA:0,leveldb_options_set_compression
FNDA:0,leveldb_env_destroy
FNDA:0,leveldb_major_version
FNDA:0,_ZN22leveldb_filterpolicy_tD0Ev
FNDA:0,leveldb_options_set_block_restart_interval
FNDA:0,leveldb_get
FNDA:0,leveldb_options_set_error_if_exists
FNDA:0,leveldb_iter_get_error
FNDA:0,leveldb_compact_range
FNDA:0,leveldb_cache_create_lru
FNDA:0,leveldb_writebatch_iterate
FNDA:0,leveldb_options_set_max_open_files
FNDA:0,leveldb_put
FNDA:0,leveldb_create_default_env
FNDA:0,leveldb_repair_db
FNDA:0,leveldb_filterpolicy_destroy
FNDA:0,leveldb_readoptions_set_verify_checksums
FNDA:0,_ZZ33leveldb_filterpolicy_create_bloomEN7WrapperD2Ev
FNDA:0,leveldb_close
FNDA:0,leveldb_iter_seek_to_last
FNDA:0,leveldb_iter_seek_to_first
FNDA:0,_ZN22leveldb_filterpolicy_tD2Ev
FNDA:0,leveldb_comparator_destroy
FNF:86
FNH:0
DA:48,0
DA:50,0
DA:51,0
DA:52,0
DA:60,0
DA:69,0
DA:70,0
DA:71,0
DA:73,0
DA:74,0
DA:77,0
DA:78,0
DA:82,0
DA:83,0
DA:86,0
DA:100,0
DA:101,0
DA:102,0
DA:104,0
DA:105,0
DA:108,0
DA:109,0
DA:110,0
DA:111,0
DA:112,0
DA:113,0
DA:115,0
DA:116,0
DA:117,0
DA:118,0
DA:119,0
DA:121,0
DA:122,0
DA:123,0
DA:132,0
DA:133,0
DA:134,0
DA:136,0
DA:137,0
DA:140,0
DA:141,0
DA:146,0
DA:147,0
DA:148,0
DA:149,0
DA:152,0
DA:156,0
DA:157,0
DA:160,0
DA:161,0
DA:162,0
DA:165,0
DA:166,0
DA:167,0
DA:168,0
DA:170,0
DA:176,0
DA:177,0
DA:178,0
DA:180,0
DA:185,0
DA:186,0
DA:189,0
DA:194,0
DA:195,0
DA:197,0
DA:203,0
DA:204,0
DA:205,0
DA:206,0
DA:207,0
DA:208,0
DA:210,0
DA:211,0
DA:212,0
DA:215,0
DA:216,0
DA:218,0
DA:221,0
DA:222,0
DA:223,0
DA:226,0
DA:228,0
DA:229,0
DA:230,0
DA:233,0
DA:236,0
DA:237,0
DA:238,0
DA:240,0
DA:243,0
DA:244,0
DA:246,0
DA:250,0
DA:252,0
DA:258,0
DA:259,0
DA:260,0
DA:261,0
DA:263,0
DA:264,0
DA:265,0
DA:267,0
DA:271,0
DA:272,0
DA:274,0
DA:275,0
DA:276,0
DA:278,0
DA:282,0
DA:283,0
DA:285,0
DA:289,0
DA:290,0
DA:292,0
DA:293,0
DA:294,0
DA:295,0
DA:297,0
DA:298,0
DA:301,0
DA:302,0
DA:303,0
DA:305,0
DA:306,0
DA:307,0
DA:309,0
DA:310,0
DA:311,0
DA:313,0
DA:314,0
DA:315,0
DA:317,0
DA:318,0
DA:319,0
DA:321,0
DA:322,0
DA:323,0
DA:324,0
DA:327,0
DA:328,0
DA:329,0
DA:330,0
DA:333,0
DA:334,0
DA:335,0
DA:337,0
DA:338,0
DA:341,0
DA:342,0
DA:343,0
DA:345,0
DA:346,0
DA:347,0
DA:349,0
DA:353,0
DA:354,0
DA:356,0
DA:359,0
DA:360,0
DA:362,0
DA:367,0
DA:372,0
DA:373,0
DA:374,0
DA:375,0
DA:376,0
DA:377,0
DA:379,0
DA:380,0
DA:381,0
DA:382,0
DA:383,0
DA:384,0
DA:386,0
DA:387,0
DA:390,0
DA:391,0
DA:392,0
DA:394,0
DA:397,0
DA:398,0
DA:400,0
DA:403,0
DA:404,0
DA:406,0
DA:408,0
DA:409,0
DA:411,0
DA:413,0
DA:414,0
DA:416,0
DA:418,0
DA:419,0
DA:421,0
DA:422,0
DA:423,0
DA:425,0
DA:426,0
DA:427,0
DA:429,0
DA:430,0
DA:431,0
DA:433,0
DA:434,0
DA:435,0
DA:437,0
DA:438,0
DA:439,0
DA:441,0
DA:442,0
DA:443,0
DA:445,0
DA:446,0
DA:447,0
DA:449,0
DA:450,0
DA:451,0
DA:453,0
DA:461,0
DA:462,0
DA:463,0
DA:464,0
DA:465,0
DA:466,0
DA:469,0
DA:470,0
DA:471,0
DA:473,0
DA:486,0
DA:487,0
DA:488,0
DA:489,0
DA:490,0
DA:491,0
DA:492,0
DA:495,0
DA:496,0
DA:497,0
DA:499,0
DA:503,0
DA:505,0
DA:506,0
DA:507,0
DA:508,0
DA:510,0
DA:511,0
DA:513,0
DA:515,0
DA:516,0
DA:517,0
DA:518,0
DA:519,0
DA:522,0
DA:523,0
DA:526,0
DA:527,0
DA:528,0
DA:530,0
DA:533,0
DA:534,0
DA:536,0
DA:538,0
DA:539,0
DA:541,0
DA:544,0
DA:545,0
DA:547,0
DA:548,0
DA:551,0
DA:552,0
DA:553,0
DA:555,0
DA:557,0
DA:558,0
DA:560,0
DA:561,0
DA:562,0
DA:563,0
DA:566,0
DA:567,0
DA:568,0
DA:569,0
DA:571,0
DA:572,0
DA:573,0
DA:574,0
DA:575,0
DA:578,0
DA:579,0
DA:580,0
DA:581,0
DA:583,0
DA:584,0
DA:585,0
DA:587,0
DA:588,0
DA:591,0
DA:592,0
LF:299
LH:0
end_of_record
TN:
SF:/home/apetrini/dev/src/zen/src/leveldb/db/db_impl.cc
FN:48,_ZN7leveldb6DBImpl6WriterC2EPNS_4port5MutexE
FN:86,_ZN7leveldbL11ClipToRangeImiEEvPT_T0_S3_
FN:86,_ZN7leveldbL11ClipToRangeIiiEEvPT_T0_S3_
FN:90,_ZN7leveldb15SanitizeOptionsERKNSt7__cxx1112basic_stringIcSt11char_traitsIcESaIcEEEPKNS_21InternalKeyComparatorEPKNS_20InternalFilterPolicyERKNS_7OptionsE
FN:116,_ZN7leveldb6DBImplC2ERKNS_7OptionsERKNSt7__cxx1112basic_stringIcSt11char_traitsIcESaIcEEE
FN:148,_ZN7leveldb6DBImplD0Ev
FN:148,_ZN7leveldb6DBImplD2Ev
FN:177,_ZN7leveldb6DBImpl5NewDBEv
FN:209,_ZNK7leveldb6DBImpl16MaybeIgnoreErrorEPNS_6StatusE
FN:218,_ZN7leveldb6DBImpl19DeleteObsoleteFilesEv
FN:274,_ZN7leveldb6DBImpl7RecoverEPNS_11VersionEditE
FN:362,_ZN7leveldb6DBImpl14RecoverLogFileEmPNS_11VersionEditEPm
FN:370,_ZZN7leveldb6DBImpl14RecoverLogFileEmPNS_11VersionEditEPmEN11LogReporter10CorruptionEmRKNS_6StatusE
FN:457,_ZN7leveldb6DBImpl16WriteLevel0TableEPNS_8MemTableEPNS_11VersionEditEPNS_7VersionE
FN:503,_ZN7leveldb6DBImpl15CompactMemTableEv
FN:536,_ZN7leveldb6DBImpl12CompactRangeEPKNS_5SliceES3_
FN:553,_ZN7leveldb6DBImpl17TEST_CompactRangeEiPKNS_5SliceES3_
FN:590,_ZN7leveldb6DBImpl20TEST_CompactMemTableEv
FN:606,_ZN7leveldb6DBImpl21RecordBackgroundErrorERKNS_6StatusE
FN:614,_ZN7leveldb6DBImpl23MaybeScheduleCompactionEv
FN:632,_ZN7leveldb6DBImpl6BGWorkEPv
FN:636,_ZN7leveldb6DBImpl14BackgroundCallEv
FN:655,_ZN7leveldb6DBImpl20BackgroundCompactionEv
FN:740,_ZN7leveldb6DBImpl17CleanupCompactionEPNS0_15CompactionStateE
FN:757,_ZN7leveldb6DBImpl24OpenCompactionOutputFileEPNS0_15CompactionStateE
FN:782,_ZN7leveldb6DBImpl26FinishCompactionOutputFileEPNS0_15CompactionStateEPNS_8IteratorE
FN:834,_ZN7leveldb6DBImpl24InstallCompactionResultsEPNS0_15CompactionStateE
FN:855,_ZN7leveldb6DBImpl16DoCompactionWorkEPNS0_15CompactionStateE
FN:1024,_ZN7leveldb12_GLOBAL__N_1L20CleanupIteratorStateEPvS1_
FN:1035,_ZN7leveldb6DBImpl19NewInternalIteratorERKNS_11ReadOptionsEPmPj
FN:1066,_ZN7leveldb6DBImpl24TEST_NewInternalIteratorEv
FN:1072,_ZN7leveldb6DBImpl33TEST_MaxNextLevelOverlappingBytesEv
FN:1077,_ZN7leveldb6DBImpl3GetERKNS_11ReadOptionsERKNS_5SliceEPNSt7__cxx1112basic_stringIcSt11char_traitsIcESaIcEEE
FN:1124,_ZN7leveldb6DBImpl11NewIteratorERKNS_11ReadOptionsE
FN:1136,_ZN7leveldb6DBImpl16RecordReadSampleENS_5SliceE
FN:1143,_ZN7leveldb6DBImpl11GetSnapshotEv
FN:1148,_ZN7leveldb6DBImpl15ReleaseSnapshotEPKNS_8SnapshotE
FN:1154,_ZN7leveldb6DBImpl3PutERKNS_12WriteOptionsERKNS_5SliceES6_
FN:1158,_ZN7leveldb6DBImpl6DeleteERKNS_12WriteOptionsERKNS_5SliceE
FN:1162,_ZN7leveldb6DBImpl5WriteERKNS_12WriteOptionsEPNS_10WriteBatchE
FN:1237,_ZN7leveldb6DBImpl15BuildBatchGroupEPPNS0_6WriterE
FN:1286,_ZN7leveldb6DBImpl16MakeRoomForWriteEb
FN:1349,_ZN7leveldb6DBImpl11GetPropertyERKNS_5SliceEPNSt7__cxx1112basic_stringIcSt11char_traitsIcESaIcEEE
FN:1403,_ZN7leveldb6DBImpl19GetApproximateSizesEPKNS_5RangeEiPm
FN:1431,_ZN7leveldb2DB3PutERKNS_12WriteOptionsERKNS_5SliceES6_
FN:1437,_ZN7leveldb2DB6DeleteERKNS_12WriteOptionsERKNS_5SliceE
FN:1443,_ZN7leveldb2DBD2Ev
FN:1443,_ZN7leveldb2DBD0Ev
FN:1445,_ZN7leveldb2DB4OpenERKNS_7OptionsERKNSt7__cxx1112basic_stringIcSt11char_traitsIcESaIcEEEPPS0_
FN:1479,_ZN7leveldb8SnapshotD2Ev
FN:1479,_ZN7leveldb8SnapshotD0Ev
FN:1482,_ZN7leveldb9DestroyDBERKNSt7__cxx1112basic_stringIcSt11char_traitsIcESaIcEEERKNS_7OptionsE
FNDA:982,_ZN7leveldb15SanitizeOptionsERKNSt7__cxx1112basic_stringIcSt11char_traitsIcESaIcEEEPKNS_21InternalKeyComparatorEPKNS_20InternalFilterPolicyERKNS_7OptionsE
FNDA:624,_ZN7leveldb6DBImpl5NewDBEv
FNDA:0,_ZN7leveldb6DBImpl6DeleteERKNS_12WriteOptionsERKNS_5SliceE
FNDA:0,_ZN7leveldb6DBImpl24TEST_NewInternalIteratorEv
FNDA:1964,_ZN7leveldbL11ClipToRangeImiEEvPT_T0_S3_
FNDA:22,_ZN7leveldb6DBImpl24OpenCompactionOutputFileEPNS0_15CompactionStateE
FNDA:2098,_ZN7leveldb12_GLOBAL__N_1L20CleanupIteratorStateEPvS1_
FNDA:982,_ZN7leveldb6DBImplC2ERKNS_7OptionsERKNSt7__cxx1112basic_stringIcSt11char_traitsIcESaIcEEE
FNDA:0,_ZN7leveldb6DBImpl19GetApproximateSizesEPKNS_5RangeEiPm
FNDA:2098,_ZN7leveldb6DBImpl11NewIteratorERKNS_11ReadOptionsE
FNDA:982,_ZN7leveldb2DBD2Ev
FNDA:1018,_ZN7leveldb6DBImpl23MaybeScheduleCompactionEv
FNDA:4,_ZN7leveldb2DB3PutERKNS_12WriteOptionsERKNS_5SliceES6_
FNDA:0,_ZN7leveldb6DBImpl11GetSnapshotEv
FNDA:0,_ZN7leveldb6DBImpl21RecordBackgroundErrorERKNS_6StatusE
FNDA:22,_ZN7leveldb6DBImpl24InstallCompactionResultsEPNS0_15CompactionStateE
FNDA:982,_ZN7leveldb2DB4OpenERKNS_7OptionsERKNSt7__cxx1112basic_stringIcSt11char_traitsIcESaIcEEEPPS0_
FNDA:982,_ZN7leveldb6DBImplD2Ev
FNDA:22,_ZN7leveldb6DBImpl6BGWorkEPv
FNDA:22,_ZN7leveldb6DBImpl17CleanupCompactionEPNS0_15CompactionStateE
FNDA:0,_ZN7leveldb2DBD0Ev
FNDA:982,_ZN7leveldbL11ClipToRangeIiiEEvPT_T0_S3_
FNDA:0,_ZN7leveldb6DBImpl20TEST_CompactMemTableEv
FNDA:10772,_ZN7leveldb6DBImpl5WriteERKNS_12WriteOptionsEPNS_10WriteBatchE
FNDA:176,_ZN7leveldb6DBImpl16RecordReadSampleENS_5SliceE
FNDA:0,_ZN7leveldb8SnapshotD0Ev
FNDA:0,_ZN7leveldb6DBImpl33TEST_MaxNextLevelOverlappingBytesEv
FNDA:358,_ZN7leveldb6DBImpl14RecoverLogFileEmPNS_11VersionEditEPm
FNDA:1004,_ZN7leveldb6DBImpl19DeleteObsoleteFilesEv
FNDA:10772,_ZN7leveldb6DBImpl6WriterC2EPNS_4port5MutexE
FNDA:982,_ZN7leveldb8SnapshotD2Ev
FNDA:22,_ZN7leveldb6DBImpl26FinishCompactionOutputFileEPNS0_15CompactionStateEPNS_8IteratorE
FNDA:982,_ZN7leveldb6DBImpl7RecoverEPNS_11VersionEditE
FNDA:0,_ZN7leveldb6DBImpl11GetPropertyERKNS_5SliceEPNSt7__cxx1112basic_stringIcSt11char_traitsIcESaIcEEE
FNDA:10772,_ZN7leveldb6DBImpl15BuildBatchGroupEPPNS0_6WriterE
FNDA:0,_ZZN7leveldb6DBImpl14RecoverLogFileEmPNS_11VersionEditEPmEN11LogReporter10CorruptionEmRKNS_6StatusE
FNDA:22,_ZN7leveldb6DBImpl16DoCompactionWorkEPNS0_15CompactionStateE
FNDA:4,_ZN7leveldb6DBImpl3PutERKNS_12WriteOptionsERKNS_5SliceES6_
FNDA:10772,_ZN7leveldb6DBImpl16MakeRoomForWriteEb
FNDA:2098,_ZN7leveldb6DBImpl19NewInternalIteratorERKNS_11ReadOptionsEPmPj
FNDA:22,_ZN7leveldb6DBImpl14BackgroundCallEv
FNDA:982,_ZN7leveldb6DBImplD0Ev
FNDA:19109681,_ZN7leveldb6DBImpl3GetERKNS_11ReadOptionsERKNS_5SliceEPNSt7__cxx1112basic_stringIcSt11char_traitsIcESaIcEEE
FNDA:0,_ZN7leveldb2DB6DeleteERKNS_12WriteOptionsERKNS_5SliceE
FNDA:1043,_ZNK7leveldb6DBImpl16MaybeIgnoreErrorEPNS_6StatusE
FNDA:22,_ZN7leveldb6DBImpl20BackgroundCompactionEv
FNDA:0,_ZN7leveldb6DBImpl15ReleaseSnapshotEPKNS_8SnapshotE
FNDA:0,_ZN7leveldb6DBImpl15CompactMemTableEv
FNDA:2,_ZN7leveldb9DestroyDBERKNSt7__cxx1112basic_stringIcSt11char_traitsIcESaIcEEERKNS_7OptionsE
FNDA:0,_ZN7leveldb6DBImpl12CompactRangeEPKNS_5SliceES3_
FNDA:358,_ZN7leveldb6DBImpl16WriteLevel0TableEPNS_8MemTableEPNS_11VersionEditEPNS_7VersionE
FNDA:0,_ZN7leveldb6DBImpl17TEST_CompactRangeEiPKNS_5SliceES3_
FNF:52
FNH:36
DA:48,10772
DA:51,22
DA:61,22
DA:74,5738
DA:76,22
DA:77,22
DA:78,22
DA:79,22
DA:80,22
DA:86,2946
DA:87,2946
DA:88,2946
DA:89,2946
DA:90,982
DA:94,982
DA:95,982
DA:96,982
DA:97,982
DA:98,982
DA:99,982
DA:100,982
DA:102,982
DA:103,2946
DA:104,982
DA:105,982
DA:107,0
DA:109,982
DA:110,982
DA:111,2
DA:113,982
DA:116,982
DA:117,982
DA:118,982
DA:119,982
DA:120,982
DA:122,982
DA:123,982
DA:124,982
DA:125,982
DA:126,982
DA:127,982
DA:128,982
DA:129,982
DA:130,982
DA:131,982
DA:132,982
DA:133,982
DA:134,982
DA:135,982
DA:136,10802
DA:137,982
DA:138,982
DA:141,982
DA:142,982
DA:144,1964
DA:145,982
DA:146,982
DA:148,1964
DA:150,982
DA:151,982
DA:152,982
DA:153,0
DA:155,982
DA:157,982
DA:158,982
DA:161,982
DA:162,982
DA:163,982
DA:164,982
DA:165,982
DA:166,982
DA:167,982
DA:169,982
DA:170,982
DA:172,982
DA:173,2
DA:175,2946
DA:177,624
DA:178,624
DA:179,624
DA:180,624
DA:181,624
DA:182,624
DA:184,624
DA:185,624
DA:186,624
DA:187,624
DA:190,624
DA:191,624
DA:192,624
DA:193,624
DA:194,624
DA:195,624
DA:196,1248
DA:198,624
DA:199,624
DA:200,624
DA:202,1248
DA:204,0
DA:207,624
DA:209,1043
DA:210,1043
DA:213,0
DA:214,0
DA:216,1043
DA:218,1004
DA:219,1004
DA:222,0
DA:226,1004
DA:227,1004
DA:229,1004
DA:230,1004
DA:231,1004
DA:232,1004
DA:233,10322
DA:234,9318
DA:235,7310
DA:236,7310
DA:237,1362
DA:238,1362
DA:239,358
DA:241,1986
DA:244,1986
DA:245,1986
DA:246,570
DA:247,570
DA:248,570
DA:249,0
DA:252,0
DA:253,0
DA:261,3918
DA:262,1406
DA:263,66
DA:265,1406
DA:268,4218
DA:272,1004
DA:274,982
DA:275,982
DA:280,982
DA:281,982
DA:282,982
DA:283,982
DA:284,0
DA:287,1964
DA:288,624
DA:289,624
DA:290,624
DA:291,0
DA:294,0
DA:295,0
DA:298,358
DA:299,0
DA:300,0
DA:304,982
DA:305,982
DA:306,982
DA:315,982
DA:316,982
DA:317,982
DA:318,982
DA:319,982
DA:320,0
DA:322,982
DA:323,982
DA:324,982
DA:325,982
DA:326,982
DA:327,7714
DA:328,6732
DA:329,4768
DA:330,4768
DA:331,358
DA:334,982
DA:335,0
DA:336,0
DA:337,0
DA:338,0
DA:342,982
DA:343,1340
DA:344,358
DA:349,358
DA:352,982
DA:353,982
DA:354,358
DA:357,982
DA:359,1964
DA:360,982
DA:362,358
DA:365,358
DA:370,0
DA:371,0
DA:372,0
DA:373,0
DA:374,0
DA:375,0
DA:378,358
DA:381,358
DA:382,358
DA:383,358
DA:384,358
DA:385,0
DA:390,358
DA:391,358
DA:392,358
DA:393,358
DA:394,358
DA:399,358
DA:400,358
DA:401,358
DA:405,358
DA:406,358
DA:407,358
DA:409,1401
DA:410,1043
DA:411,1043
DA:412,0
DA:413,0
DA:414,0
DA:416,1043
DA:418,1043
DA:419,358
DA:420,358
DA:422,1043
DA:423,1043
DA:424,1043
DA:427,1043
DA:428,1043
DA:429,1043
DA:430,1043
DA:431,1043
DA:434,1043
DA:435,4
DA:436,4
DA:441,4
DA:442,4
DA:446,358
DA:447,708
DA:452,358
DA:453,358
DA:454,358
DA:455,1269
DA:457,358
DA:459,358
DA:460,358
DA:461,358
DA:462,358
DA:463,358
DA:464,358
DA:465,358
DA:466,358
DA:468,358
DA:469,358
DA:470,358
DA:471,358
DA:472,358
DA:475,716
DA:476,358
DA:477,358
DA:478,358
DA:479,358
DA:480,358
DA:485,358
DA:486,358
DA:487,358
DA:488,358
DA:489,358
DA:490,0
DA:492,358
DA:496,358
DA:497,358
DA:498,358
DA:499,358
DA:500,358
DA:501,358
DA:503,0
DA:504,0
DA:505,0
DA:508,0
DA:509,0
DA:510,0
DA:511,0
DA:512,0
DA:514,0
DA:515,0
DA:519,0
DA:520,0
DA:521,0
DA:522,0
DA:525,0
DA:527,0
DA:528,0
DA:529,0
DA:530,0
DA:532,0
DA:534,0
DA:536,0
DA:537,0
DA:538,0
DA:539,0
DA:540,0
DA:541,0
DA:542,0
DA:543,0
DA:546,0
DA:547,0
DA:548,0
DA:549,0
DA:551,0
DA:553,0
DA:554,0
DA:555,0
DA:557,0
DA:559,0
DA:560,0
DA:561,0
DA:562,0
DA:563,0
DA:565,0
DA:566,0
DA:568,0
DA:569,0
DA:571,0
DA:572,0
DA:575,0
DA:576,0
DA:577,0
DA:578,0
DA:579,0
DA:581,0
DA:584,0
DA:586,0
DA:588,0
DA:590,0
DA:592,0
DA:593,0
DA:595,0
DA:596,0
DA:597,0
DA:599,0
DA:600,0
DA:602,0
DA:603,0
DA:604,0
DA:606,0
DA:607,0
DA:608,0
DA:609,0
DA:610,0
DA:612,0
DA:614,1018
DA:615,1018
DA:616,1018
DA:618,1018
DA:620,1018
DA:622,2036
DA:623,1018
DA:624,1018
DA:627,22
DA:628,22
DA:630,1018
DA:632,22
DA:633,22
DA:634,22
DA:636,22
DA:637,22
DA:638,22
DA:639,22
DA:641,22
DA:644,22
DA:647,22
DA:651,22
DA:652,22
DA:653,22
DA:655,22
DA:656,22
DA:658,22
DA:659,0
DA:660,0
DA:663,22
DA:664,22
DA:665,22
DA:666,22
DA:667,0
DA:668,0
DA:669,0
DA:670,0
DA:671,0
DA:673,0
DA:676,0
DA:677,0
DA:678,0
DA:680,22
DA:683,22
DA:684,22
DA:686,22
DA:688,0
DA:689,0
DA:690,0
DA:691,0
DA:692,0
DA:693,0
DA:694,0
DA:695,0
DA:697,0
DA:698,0
DA:699,0
DA:700,0
DA:701,0
DA:702,0
DA:703,0
DA:705,22
DA:706,22
DA:707,22
DA:708,0
DA:710,22
DA:711,22
DA:712,22
DA:714,22
DA:716,22
DA:718,0
DA:721,0
DA:722,0
DA:725,22
DA:726,0
DA:727,0
DA:728,0
DA:730,0
DA:733,0
DA:734,0
DA:736,0
DA:738,22
DA:740,22
DA:741,22
DA:742,22
DA:744,0
DA:745,0
DA:747,22
DA:749,22
DA:750,44
DA:751,22
DA:752,22
DA:754,44
DA:755,22
DA:757,22
DA:758,22
DA:759,22
DA:760,22
DA:761,22
DA:762,22
DA:763,22
DA:764,22
DA:765,22
DA:766,22
DA:767,22
DA:768,22
DA:769,22
DA:770,22
DA:771,22
DA:774,22
DA:775,22
DA:776,22
DA:777,22
DA:779,22
DA:780,22
DA:782,22
DA:784,22
DA:785,22
DA:786,22
DA:788,22
DA:789,22
DA:792,22
DA:793,22
DA:794,22
DA:795,44
DA:797,0
DA:799,22
DA:800,22
DA:801,22
DA:802,22
DA:803,22
DA:806,22
DA:807,44
DA:809,22
DA:810,44
DA:812,22
DA:813,22
DA:815,22
DA:817,22
DA:820,22
DA:821,22
DA:822,22
DA:823,22
DA:830,22
DA:831,0
DA:834,22
DA:835,22
DA:836,22
DA:837,22
DA:838,22
DA:839,22
DA:840,22
DA:841,22
DA:844,22
DA:845,22
DA:846,44
DA:847,22
DA:848,22
DA:850,22
DA:852,22
DA:855,22
DA:856,22
DA:857,22
DA:859,22
DA:860,22
DA:861,22
DA:862,22
DA:863,22
DA:865,22
DA:866,22
DA:867,22
DA:868,22
DA:869,22
DA:871,0
DA:875,22
DA:877,22
DA:878,22
DA:879,22
DA:880,22
DA:881,22
DA:882,22
DA:883,22
DA:884,5855
DA:886,5833
DA:887,0
DA:888,0
DA:889,0
DA:890,0
DA:891,0
DA:893,0
DA:894,0
DA:897,5833
DA:898,5833
DA:899,0
DA:900,0
DA:901,0
DA:907,5833
DA:908,5833
DA:910,0
DA:911,0
DA:912,0
DA:914,11644
DA:915,5811
DA:916,5946
DA:918,5698
DA:923,5833
DA:926,5724
DA:927,5724
DA:928,26
DA:939,5833
DA:951,5833
DA:953,5672
DA:954,22
DA:955,22
DA:959,5672
DA:960,22
DA:962,5672
DA:963,5672
DA:966,5672
DA:967,5672
DA:968,0
DA:969,0
DA:975,5833
DA:978,22
DA:979,0
DA:981,22
DA:982,44
DA:984,22
DA:985,44
DA:987,22
DA:988,22
DA:990,22
DA:991,22
DA:992,66
DA:993,110
DA:994,66
DA:997,44
DA:998,22
DA:1001,22
DA:1002,22
DA:1004,22
DA:1005,44
DA:1007,22
DA:1008,0
DA:1010,22
DA:1011,22
DA:1012,22
DA:1013,22
DA:1014,22
DA:1024,2098
DA:1025,2098
DA:1026,2098
DA:1027,2098
DA:1028,2098
DA:1029,2098
DA:1030,2098
DA:1031,2098
DA:1032,2098
DA:1035,2098
DA:1038,2098
DA:1039,2098
DA:1040,2098
DA:1043,2098
DA:1044,2098
DA:1045,2098
DA:1046,2098
DA:1047,0
DA:1048,0
DA:1050,2098
DA:1051,2098
DA:1052,2098
DA:1053,2098
DA:1055,2098
DA:1056,2098
DA:1057,2098
DA:1058,2098
DA:1059,2098
DA:1061,2098
DA:1062,2098
DA:1063,2098
DA:1064,2098
DA:1066,0
DA:1067,0
DA:1068,0
DA:1069,0
DA:1072,0
DA:1073,0
DA:1074,0
DA:1075,0
DA:1077,19109681
DA:1080,19109681
DA:1081,19109681
DA:1082,19109681
DA:1083,19109681
DA:1084,0
DA:1086,19109681
DA:1089,19109681
DA:1090,19109681
DA:1091,19109681
DA:1092,19109681
DA:1093,19109681
DA:1094,19109681
DA:1096,19109681
DA:1097,19109681
DA:1100,19109681
DA:1101,19109681
DA:1103,19109681
DA:1104,19109681
DA:1106,19109336
DA:1109,19109336
DA:1110,19109336
DA:1112,19109681
DA:1113,19109681
DA:1115,19109681
DA:1116,14
DA:1118,19109681
DA:1119,19109681
DA:1120,19109681
DA:1121,19109681
DA:1122,19109681
DA:1124,2098
DA:1125,2098
DA:1126,2098
DA:1127,2098
DA:1128,2098
DA:1130,2098
DA:1133,2098
DA:1136,176
DA:1137,176
DA:1138,176
DA:1139,0
DA:1141,176
DA:1143,0
DA:1144,0
DA:1145,0
DA:1146,0
DA:1148,0
DA:1149,0
DA:1150,0
DA:1151,0
DA:1154,4
DA:1155,4
DA:1158,0
DA:1159,0
DA:1162,10772
DA:1163,10772
DA:1164,10772
DA:1165,10772
DA:1166,10772
DA:1168,10772
DA:1169,10772
DA:1170,10772
DA:1171,0
DA:1173,10772
DA:1174,0
DA:1178,10772
DA:1179,10772
DA:1180,10772
DA:1181,10772
DA:1182,10772
DA:1183,10772
DA:1184,10772
DA:1190,10772
DA:1191,10772
DA:1192,10772
DA:1193,10772
DA:1194,10772
DA:1195,800
DA:1196,800
DA:1197,0
DA:1200,10772
DA:1201,21544
DA:1203,10772
DA:1204,10772
DA:1208,0
DA:1211,10772
DA:1213,10772
DA:1216,10772
DA:1217,10772
DA:1218,10772
DA:1219,10772
DA:1220,0
DA:1221,0
DA:1222,0
DA:1224,10772
DA:1228,10772
DA:1229,0
DA:1232,10772
DA:1233,10772
DA:1237,10772
DA:1238,10772
DA:1239,10772
DA:1240,10772
DA:1241,10772
DA:1243,10772
DA:1248,10772
DA:1249,10772
DA:1250,10725
DA:1253,10772
DA:1254,10772
DA:1255,10772
DA:1256,10772
DA:1257,0
DA:1258,0
DA:1263,0
DA:1264,0
DA:1265,0
DA:1271,0
DA:1273,0
DA:1274,0
DA:1275,0
DA:1277,0
DA:1279,0
DA:1281,10772
DA:1286,10772
DA:1287,10772
DA:1288,10772
DA:1289,10772
DA:1290,10772
DA:1291,10772
DA:1292,10772
DA:1294,0
DA:1296,10772
DA:1297,21544
DA:1298,10772
DA:1305,0
DA:1306,0
DA:1307,0
DA:1308,0
DA:1309,10772
DA:1310,10772
DA:1313,0
DA:1316,0
DA:1317,0
DA:1318,0
DA:1320,0
DA:1321,0
DA:1324,0
DA:1325,0
DA:1326,0
DA:1327,0
DA:1328,0
DA:1330,0
DA:1331,0
DA:1333,0
DA:1334,0
DA:1335,0
DA:1336,0
DA:1337,0
DA:1338,0
DA:1339,0
DA:1340,0
DA:1341,0
DA:1342,0
DA:1343,0
DA:1346,10772
DA:1347,0
DA:1349,0
DA:1350,0
DA:1352,0
DA:1353,0
DA:1354,0
DA:1355,0
DA:1356,0
DA:1358,0
DA:1359,0
DA:1360,0
DA:1361,0
DA:1362,0
DA:1365,0
DA:1366,0
DA:1367,0
DA:1368,0
DA:1369,0
DA:1371,0
DA:1372,0
DA:1373,0
DA:1378,0
DA:1379,0
DA:1380,0
DA:1381,0
DA:1382,0
DA:1387,0
DA:1389,0
DA:1390,0
DA:1391,0
DA:1394,0
DA:1395,0
DA:1396,0
DA:1397,0
DA:1401,0
DA:1403,0
DA:1407,0
DA:1408,0
DA:1409,0
DA:1410,0
DA:1411,0
DA:1412,0
DA:1414,0
DA:1416,0
DA:1417,0
DA:1418,0
DA:1419,0
DA:1420,0
DA:1421,0
DA:1423,0
DA:1424,0
DA:1425,0
DA:1426,0
DA:1427,0
DA:1431,4
DA:1432,4
DA:1433,4
DA:1434,8
DA:1435,4
DA:1437,0
DA:1438,0
DA:1439,0
DA:1440,0
DA:1441,0
DA:1443,982
DA:1445,982
DA:1447,982
DA:1449,982
DA:1450,982
DA:1451,982
DA:1452,982
DA:1453,982
DA:1454,982
DA:1455,982
DA:1456,1964
DA:1458,982
DA:1459,982
DA:1460,982
DA:1461,982
DA:1462,982
DA:1463,1964
DA:1465,982
DA:1466,982
DA:1467,982
DA:1470,982
DA:1471,982
DA:1472,982
DA:1474,0
DA:1476,982
DA:1477,982
DA:1479,982
DA:1480,982
DA:1482,2
DA:1483,2
DA:1484,2
DA:1486,2
DA:1487,2
DA:1488,0
DA:1491,2
DA:1492,2
DA:1493,2
DA:1494,2
DA:1497,16
DA:1498,14
DA:1499,10
DA:1500,16
DA:1501,8
DA:1502,0
DA:1504,8
DA:1506,2
DA:1507,2
DA:1508,4
DA:1510,2
DA:1511,4
LF:919
LH:622
end_of_record
TN:
SF:/home/apetrini/dev/src/zen/src/leveldb/db/db_impl.h
FNF:0
FNH:0
DA:162,0
DA:183,7254
DA:185,380
DA:186,380
DA:187,380
DA:188,380
DA:197,8533
DA:198,8533
LF:8
LH:7
end_of_record
TN:
SF:/home/apetrini/dev/src/zen/src/leveldb/db/db_iter.cc
FN:51,_ZN7leveldb12_GLOBAL__N_16DBIterC2EPNS_6DBImplEPKNS_10ComparatorEPNS_8IteratorEmj
FN:62,_ZN7leveldb12_GLOBAL__N_16DBIterD2Ev
FN:62,_ZN7leveldb12_GLOBAL__N_16DBIterD0Ev
FN:65,_ZNK7leveldb12_GLOBAL__N_16DBIter5ValidEv
FN:66,_ZNK7leveldb12_GLOBAL__N_16DBIter3keyEv
FN:70,_ZNK7leveldb12_GLOBAL__N_16DBIter5valueEv
FN:74,_ZNK7leveldb12_GLOBAL__N_16DBIter6statusEv
FN:97,_ZN7leveldb12_GLOBAL__N_16DBIter15ClearSavedValueEv
FN:107,_ZN7leveldb12_GLOBAL__N_16DBIter12RandomPeriodEv
FN:130,_ZN7leveldb12_GLOBAL__N_16DBIter8ParseKeyEPNS_17ParsedInternalKeyE
FN:146,_ZN7leveldb12_GLOBAL__N_16DBIter4NextEv
FN:173,_ZN7leveldb12_GLOBAL__N_16DBIter17FindNextUserEntryEbPNSt7__cxx1112basic_stringIcSt11char_traitsIcESaIcEEE
FN:205,_ZN7leveldb12_GLOBAL__N_16DBIter4PrevEv
FN:232,_ZN7leveldb12_GLOBAL__N_16DBIter17FindPrevUserEntryEv
FN:274,_ZN7leveldb12_GLOBAL__N_16DBIter4SeekERKNS_5SliceE
FN:288,_ZN7leveldb12_GLOBAL__N_16DBIter11SeekToFirstEv
FN:299,_ZN7leveldb12_GLOBAL__N_16DBIter10SeekToLastEv
FN:308,_ZN7leveldb13NewDBIteratorEPNS_6DBImplEPKNS_10ComparatorEPNS_8IteratorEmj
FNDA:58510,_ZN7leveldb12_GLOBAL__N_16DBIter4NextEv
FNDA:2098,_ZN7leveldb12_GLOBAL__N_16DBIter15ClearSavedValueEv
FNDA:2274,_ZN7leveldb12_GLOBAL__N_16DBIter12RandomPeriodEv
FNDA:58390,_ZNK7leveldb12_GLOBAL__N_16DBIter5valueEv
FNDA:2098,_ZN7leveldb12_GLOBAL__N_16DBIter4SeekERKNS_5SliceE
FNDA:60608,_ZNK7leveldb12_GLOBAL__N_16DBIter5ValidEv
FNDA:0,_ZN7leveldb12_GLOBAL__N_16DBIter11SeekToFirstEv
FNDA:2098,_ZN7leveldb12_GLOBAL__N_16DBIterC2EPNS_6DBImplEPKNS_10ComparatorEPNS_8IteratorEmj
FNDA:0,_ZN7leveldb12_GLOBAL__N_16DBIter10SeekToLastEv
FNDA:2098,_ZN7leveldb12_GLOBAL__N_16DBIterD2Ev
FNDA:60237,_ZNK7leveldb12_GLOBAL__N_16DBIter3keyEv
FNDA:0,_ZN7leveldb12_GLOBAL__N_16DBIter4PrevEv
FNDA:0,_ZNK7leveldb12_GLOBAL__N_16DBIter6statusEv
FNDA:0,_ZN7leveldb12_GLOBAL__N_16DBIter17FindPrevUserEntryEv
FNDA:2098,_ZN7leveldb12_GLOBAL__N_16DBIterD0Ev
FNDA:2098,_ZN7leveldb13NewDBIteratorEPNS_6DBImplEPKNS_10ComparatorEPNS_8IteratorEmj
FNDA:122043,_ZN7leveldb12_GLOBAL__N_16DBIter8ParseKeyEPNS_17ParsedInternalKeyE
FNDA:60164,_ZN7leveldb12_GLOBAL__N_16DBIter17FindNextUserEntryEbPNSt7__cxx1112basic_stringIcSt11char_traitsIcESaIcEEE
FNF:18
FNH:13
DA:51,2098
DA:53,4196
DA:54,2098
DA:55,2098
DA:56,2098
DA:57,2098
DA:58,2098
DA:59,2098
DA:60,2098
DA:61,2098
DA:62,4196
DA:63,2098
DA:64,6032
DA:65,60608
DA:66,60237
DA:67,60237
DA:68,60237
DA:70,58390
DA:71,58390
DA:72,58390
DA:74,0
DA:75,0
DA:76,0
DA:78,0
DA:93,60214
DA:94,60214
DA:95,1704
DA:97,2098
DA:98,2098
DA:99,0
DA:100,0
DA:101,0
DA:102,2098
DA:104,2098
DA:107,2274
DA:108,2274
DA:130,122043
DA:131,122043
DA:132,122043
DA:133,122043
DA:134,122219
DA:135,176
DA:136,176
DA:138,122043
DA:139,0
DA:140,0
DA:146,58510
DA:147,58510
DA:149,58510
DA:150,0
DA:154,0
DA:155,0
DA:157,0
DA:159,0
DA:160,0
DA:161,0
DA:162,0
DA:167,58510
DA:170,58510
DA:173,60164
DA:175,60164
DA:176,60164
DA:177,122043
DA:178,122043
DA:179,122043
DA:180,122043
DA:181,1704
DA:184,1704
DA:187,120339
DA:188,240316
DA:189,180191
DA:192,60125
DA:193,60125
DA:194,60125
DA:199,61918
DA:200,61918
DA:201,39
DA:202,39
DA:205,0
DA:206,0
DA:208,0
DA:211,0
DA:212,0
DA:213,0
DA:214,0
DA:215,0
DA:216,0
DA:217,0
DA:218,0
DA:219,0
DA:221,0
DA:222,0
DA:226,0
DA:229,0
DA:232,0
DA:233,0
DA:235,0
DA:236,0
DA:237,0
DA:238,0
DA:239,0
DA:240,0
DA:241,0
DA:245,0
DA:246,0
DA:247,0
DA:248,0
DA:250,0
DA:251,0
DA:252,0
DA:253,0
DA:254,0
DA:255,0
DA:256,0
DA:259,0
DA:260,0
DA:263,0
DA:265,0
DA:266,0
DA:267,0
DA:268,0
DA:270,0
DA:272,0
DA:274,2098
DA:275,2098
DA:276,2098
DA:277,2098
DA:278,2098
DA:279,2098
DA:280,2098
DA:281,2098
DA:282,1654
DA:284,444
DA:286,2098
DA:288,0
DA:289,0
DA:290,0
DA:291,0
DA:292,0
DA:293,0
DA:295,0
DA:297,0
DA:299,0
DA:300,0
DA:301,0
DA:302,0
DA:303,0
DA:304,0
DA:308,2098
DA:314,2098
LF:150
LH:74
end_of_record
TN:
SF:/home/apetrini/dev/src/zen/src/leveldb/db/dbformat.cc
FN:12,_ZN7leveldbL19PackSequenceAndTypeEmNS_9ValueTypeE
FN:18,_ZN7leveldb17AppendInternalKeyEPNSt7__cxx1112basic_stringIcSt11char_traitsIcESaIcEEERKNS_17ParsedInternalKeyE
FN:23,_ZNK7leveldb17ParsedInternalKey11DebugStringB5cxx11Ev
FN:34,_ZNK7leveldb11InternalKey11DebugStringB5cxx11Ev
FN:46,_ZNK7leveldb21InternalKeyComparator4NameEv
FN:50,_ZNK7leveldb21InternalKeyComparator7CompareERKNS_5SliceES3_
FN:68,_ZNK7leveldb21InternalKeyComparator21FindShortestSeparatorEPNSt7__cxx1112basic_stringIcSt11char_traitsIcESaIcEEERKNS_5SliceE
FN:87,_ZNK7leveldb21InternalKeyComparator18FindShortSuccessorEPNSt7__cxx1112basic_stringIcSt11char_traitsIcESaIcEEE
FN:101,_ZNK7leveldb20InternalFilterPolicy4NameEv
FN:105,_ZNK7leveldb20InternalFilterPolicy12CreateFilterEPKNS_5SliceEiPNSt7__cxx1112basic_stringIcSt11char_traitsIcESaIcEEE
FN:117,_ZNK7leveldb20InternalFilterPolicy11KeyMayMatchERKNS_5SliceES3_
FN:121,_ZN7leveldb9LookupKeyC2ERKNS_5SliceEm
FNDA:78840120,_ZNK7leveldb21InternalKeyComparator7CompareERKNS_5SliceES3_
FNDA:2098,_ZN7leveldb17AppendInternalKeyEPNSt7__cxx1112basic_stringIcSt11char_traitsIcESaIcEEERKNS_17ParsedInternalKeyE
FNDA:4961,_ZNK7leveldb21InternalKeyComparator21FindShortestSeparatorEPNSt7__cxx1112basic_stringIcSt11char_traitsIcESaIcEEERKNS_5SliceE
FNDA:0,_ZNK7leveldb21InternalKeyComparator4NameEv
FNDA:19115211,_ZN7leveldbL19PackSequenceAndTypeEmNS_9ValueTypeE
FNDA:380,_ZNK7leveldb21InternalKeyComparator18FindShortSuccessorEPNSt7__cxx1112basic_stringIcSt11char_traitsIcESaIcEEE
FNDA:0,_ZNK7leveldb17ParsedInternalKey11DebugStringB5cxx11Ev
FNDA:0,_ZNK7leveldb11InternalKey11DebugStringB5cxx11Ev
FNDA:879,_ZNK7leveldb20InternalFilterPolicy4NameEv
FNDA:19109681,_ZN7leveldb9LookupKeyC2ERKNS_5SliceEm
FNDA:15626116,_ZNK7leveldb20InternalFilterPolicy11KeyMayMatchERKNS_5SliceES3_
FNDA:5341,_ZNK7leveldb20InternalFilterPolicy12CreateFilterEPKNS_5SliceEiPNSt7__cxx1112basic_stringIcSt11char_traitsIcESaIcEEE
FNF:12
FNH:9
DA:12,19115211
DA:13,19115211
DA:14,19115211
DA:15,19115211
DA:18,2098
DA:19,2098
DA:20,2098
DA:21,2098
DA:23,0
DA:24,0
DA:25,0
DA:26,0
DA:27,0
DA:28,0
DA:29,0
DA:30,0
DA:31,0
DA:32,0
DA:34,0
DA:35,0
DA:36,0
DA:37,0
DA:38,0
DA:40,0
DA:41,0
DA:43,0
DA:44,0
DA:46,0
DA:47,0
DA:50,78840120
DA:55,78840120
DA:56,78840120
DA:57,59551
DA:58,59551
DA:59,59551
DA:61,58018
DA:62,57557
DA:65,78840120
DA:68,4961
DA:72,4961
DA:73,4961
DA:74,4961
DA:75,4961
DA:76,8216
DA:77,4961
DA:80,3255
DA:81,3255
DA:82,3255
DA:83,3255
DA:85,4961
DA:87,380
DA:88,380
DA:89,380
DA:90,380
DA:91,557
DA:92,380
DA:95,177
DA:96,177
DA:97,177
DA:99,380
DA:101,879
DA:102,879
DA:105,5341
DA:109,5341
DA:110,112931
DA:111,107590
DA:114,5341
DA:115,5341
DA:117,15626116
DA:118,15626116
DA:121,19109681
DA:122,19109681
DA:123,19109681
DA:124,19109681
DA:125,19109681
DA:126,19109681
DA:128,0
DA:130,19109681
DA:131,19109681
DA:132,19109681
DA:133,19109681
DA:134,19109681
DA:135,19109681
DA:136,19109681
DA:137,19109681
DA:138,19109681
LF:86
LH:64
end_of_record
TN:
SF:/home/apetrini/dev/src/zen/src/leveldb/db/dbformat.h
FN:98,_ZN7leveldb14ExtractUserKeyERKNS_5SliceE
FN:149,_ZN7leveldb11InternalKeyC2ERKNS_5SliceEmNS_9ValueTypeE
FN:154,_ZNK7leveldb11InternalKey6EncodeEv
FN:171,_ZNK7leveldb21InternalKeyComparator7CompareERKNS_11InternalKeyES3_
FN:176,_ZN7leveldb16ParseInternalKeyERKNS_5SliceEPNS_17ParsedInternalKeyE
FN:224,_ZN7leveldb9LookupKeyD2Ev
FNDA:0,_ZN7leveldb11InternalKeyC2ERKNS_5SliceEmNS_9ValueTypeE
FNDA:205232212,_ZN7leveldb14ExtractUserKeyERKNS_5SliceE
FNDA:19109681,_ZN7leveldb9LookupKeyD2Ev
FNDA:6984,_ZNK7leveldb11InternalKey6EncodeEv
FNDA:409,_ZNK7leveldb21InternalKeyComparator7CompareERKNS_11InternalKeyES3_
FNDA:326484,_ZN7leveldb16ParseInternalKeyERKNS_5SliceEPNS_17ParsedInternalKeyE
FNF:6
FNH:5
DA:75,320673
DA:76,2098
DA:77,2098
DA:98,205232212
DA:99,205232212
DA:100,205232212
DA:113,8306
DA:117,982
DA:125,19120103
DA:131,982
DA:135,982
DA:144,3382
DA:148,2328
DA:149,0
DA:150,0
DA:151,0
DA:153,108258
DA:154,6984
DA:155,6984
DA:156,6984
DA:159,31688761
DA:166,88
DA:171,409
DA:173,409
DA:176,326484
DA:178,326484
DA:179,326484
DA:180,326484
DA:181,326484
DA:182,326484
DA:183,326484
DA:184,326484
DA:185,326484
DA:198,19109681
DA:201,19109336
DA:204,19109686
DA:224,19109681
DA:225,19109681
DA:226,19109681
LF:39
LH:36
end_of_record
TN:
SF:/home/apetrini/dev/src/zen/src/leveldb/db/dumpfile.cc
FN:23,_ZN7leveldb12_GLOBAL__N_19GuessTypeERKNSt7__cxx1112basic_stringIcSt11char_traitsIcESaIcEEEPNS_8FileTypeE
FN:39,_ZN7leveldb12_GLOBAL__N_118CorruptionReporter10CorruptionEmRKNS_6StatusE
FN:50,_ZN7leveldb12_GLOBAL__N_116PrintLogContentsEPNS_3EnvERKNSt7__cxx1112basic_stringIcSt11char_traitsIcESaIcEEEPFvmNS_5SliceEPNS_12WritableFileEESD_
FN:74,_ZN7leveldb12_GLOBAL__N_121WriteBatchItemPrinter3PutERKNS_5SliceES4_
FN:82,_ZN7leveldb12_GLOBAL__N_121WriteBatchItemPrinter6DeleteERKNS_5SliceE
FN:93,_ZN7leveldb12_GLOBAL__N_1L17WriteBatchPrinterEmNS_5SliceEPNS_12WritableFileE
FN:118,_ZN7leveldb12_GLOBAL__N_17DumpLogEPNS_3EnvERKNSt7__cxx1112basic_stringIcSt11char_traitsIcESaIcEEEPNS_12WritableFileE
FN:124,_ZN7leveldb12_GLOBAL__N_1L18VersionEditPrinterEmNS_5SliceEPNS_12WritableFileE
FN:139,_ZN7leveldb12_GLOBAL__N_114DumpDescriptorEPNS_3EnvERKNSt7__cxx1112basic_stringIcSt11char_traitsIcESaIcEEEPNS_12WritableFileE
FN:143,_ZN7leveldb12_GLOBAL__N_19DumpTableEPNS_3EnvERKNSt7__cxx1112basic_stringIcSt11char_traitsIcESaIcEEEPNS_12WritableFileE
FN:210,_ZN7leveldb8DumpFileEPNS_3EnvERKNSt7__cxx1112basic_stringIcSt11char_traitsIcESaIcEEEPNS_12WritableFileE
FNDA:0,_ZN7leveldb12_GLOBAL__N_121WriteBatchItemPrinter3PutERKNS_5SliceES4_
FNDA:0,_ZN7leveldb8DumpFileEPNS_3EnvERKNSt7__cxx1112basic_stringIcSt11char_traitsIcESaIcEEEPNS_12WritableFileE
FNDA:0,_ZN7leveldb12_GLOBAL__N_116PrintLogContentsEPNS_3EnvERKNSt7__cxx1112basic_stringIcSt11char_traitsIcESaIcEEEPFvmNS_5SliceEPNS_12WritableFileEESD_
FNDA:0,_ZN7leveldb12_GLOBAL__N_114DumpDescriptorEPNS_3EnvERKNSt7__cxx1112basic_stringIcSt11char_traitsIcESaIcEEEPNS_12WritableFileE
FNDA:0,_ZN7leveldb12_GLOBAL__N_121WriteBatchItemPrinter6DeleteERKNS_5SliceE
FNDA:0,_ZN7leveldb12_GLOBAL__N_118CorruptionReporter10CorruptionEmRKNS_6StatusE
FNDA:0,_ZN7leveldb12_GLOBAL__N_1L18VersionEditPrinterEmNS_5SliceEPNS_12WritableFileE
FNDA:0,_ZN7leveldb12_GLOBAL__N_1L17WriteBatchPrinterEmNS_5SliceEPNS_12WritableFileE
FNDA:0,_ZN7leveldb12_GLOBAL__N_19DumpTableEPNS_3EnvERKNSt7__cxx1112basic_stringIcSt11char_traitsIcESaIcEEEPNS_12WritableFileE
FNDA:0,_ZN7leveldb12_GLOBAL__N_19GuessTypeERKNSt7__cxx1112basic_stringIcSt11char_traitsIcESaIcEEEPNS_8FileTypeE
FNDA:0,_ZN7leveldb12_GLOBAL__N_17DumpLogEPNS_3EnvERKNSt7__cxx1112basic_stringIcSt11char_traitsIcESaIcEEEPNS_12WritableFileE
FNF:11
FNH:0
DA:23,0
DA:24,0
DA:25,0
DA:26,0
DA:27,0
DA:29,0
DA:31,0
DA:32,0
DA:33,0
DA:36,0
DA:39,0
DA:40,0
DA:41,0
DA:42,0
DA:43,0
DA:44,0
DA:45,0
DA:46,0
DA:50,0
DA:53,0
DA:54,0
DA:55,0
DA:56,0
DA:58,0
DA:59,0
DA:60,0
DA:61,0
DA:62,0
DA:63,0
DA:64,0
DA:66,0
DA:67,0
DA:68,0
DA:71,0
DA:74,0
DA:75,0
DA:76,0
DA:77,0
DA:78,0
DA:79,0
DA:80,0
DA:81,0
DA:82,0
DA:83,0
DA:84,0
DA:85,0
DA:86,0
DA:87,0
DA:93,0
DA:94,0
DA:95,0
DA:96,0
DA:97,0
DA:98,0
DA:99,0
DA:100,0
DA:101,0
DA:102,0
DA:104,0
DA:105,0
DA:106,0
DA:107,0
DA:108,0
DA:109,0
DA:110,0
DA:111,0
DA:112,0
DA:113,0
DA:114,0
DA:116,0
DA:118,0
DA:119,0
DA:124,0
DA:125,0
DA:126,0
DA:127,0
DA:128,0
DA:129,0
DA:130,0
DA:131,0
DA:132,0
DA:134,0
DA:136,0
DA:137,0
DA:139,0
DA:140,0
DA:143,0
DA:144,0
DA:145,0
DA:146,0
DA:147,0
DA:148,0
DA:149,0
DA:151,0
DA:156,0
DA:158,0
DA:159,0
DA:160,0
DA:161,0
DA:164,0
DA:165,0
DA:166,0
DA:167,0
DA:168,0
DA:169,0
DA:170,0
DA:171,0
DA:172,0
DA:173,0
DA:174,0
DA:175,0
DA:176,0
DA:177,0
DA:179,0
DA:180,0
DA:181,0
DA:182,0
DA:183,0
DA:184,0
DA:185,0
DA:186,0
DA:187,0
DA:189,0
DA:191,0
DA:192,0
DA:193,0
DA:194,0
DA:197,0
DA:198,0
DA:199,0
DA:202,0
DA:203,0
DA:204,0
DA:205,0
DA:206,0
DA:210,0
DA:211,0
DA:212,0
DA:213,0
DA:215,0
DA:216,0
DA:217,0
DA:218,0
DA:219,0
DA:220,0
DA:222,0
LF:146
LH:0
end_of_record
TN:
SF:/home/apetrini/dev/src/zen/src/leveldb/db/filename.cc
FN:18,_ZN7leveldbL12MakeFileNameERKNSt7__cxx1112basic_stringIcSt11char_traitsIcESaIcEEEmPKc
FN:27,_ZN7leveldb11LogFileNameERKNSt7__cxx1112basic_stringIcSt11char_traitsIcESaIcEEEm
FN:32,_ZN7leveldb13TableFileNameERKNSt7__cxx1112basic_stringIcSt11char_traitsIcESaIcEEEm
FN:37,_ZN7leveldb16SSTTableFileNameERKNSt7__cxx1112basic_stringIcSt11char_traitsIcESaIcEEEm
FN:42,_ZN7leveldb18DescriptorFileNameERKNSt7__cxx1112basic_stringIcSt11char_traitsIcESaIcEEEm
FN:50,_ZN7leveldb15CurrentFileNameERKNSt7__cxx1112basic_stringIcSt11char_traitsIcESaIcEEE
FN:54,_ZN7leveldb12LockFileNameERKNSt7__cxx1112basic_stringIcSt11char_traitsIcESaIcEEE
FN:58,_ZN7leveldb12TempFileNameERKNSt7__cxx1112basic_stringIcSt11char_traitsIcESaIcEEEm
FN:63,_ZN7leveldb15InfoLogFileNameERKNSt7__cxx1112basic_stringIcSt11char_traitsIcESaIcEEE
FN:68,_ZN7leveldb18OldInfoLogFileNameERKNSt7__cxx1112basic_stringIcSt11char_traitsIcESaIcEEE
FN:80,_ZN7leveldb13ParseFileNameERKNSt7__cxx1112basic_stringIcSt11char_traitsIcESaIcEEEPmPNS_8FileTypeE
FN:126,_ZN7leveldb14SetCurrentFileEPNS_3EnvERKNSt7__cxx1112basic_stringIcSt11char_traitsIcESaIcEEEm
FNDA:3570,_ZN7leveldb15CurrentFileNameERKNSt7__cxx1112basic_stringIcSt11char_traitsIcESaIcEEE
FNDA:1964,_ZN7leveldb15InfoLogFileNameERKNSt7__cxx1112basic_stringIcSt11char_traitsIcESaIcEEE
FNDA:16064,_ZN7leveldb13ParseFileNameERKNSt7__cxx1112basic_stringIcSt11char_traitsIcESaIcEEEPmPNS_8FileTypeE
FNDA:1340,_ZN7leveldb11LogFileNameERKNSt7__cxx1112basic_stringIcSt11char_traitsIcESaIcEEEm
FNDA:982,_ZN7leveldb18OldInfoLogFileNameERKNSt7__cxx1112basic_stringIcSt11char_traitsIcESaIcEEE
FNDA:984,_ZN7leveldb12LockFileNameERKNSt7__cxx1112basic_stringIcSt11char_traitsIcESaIcEEE
FNDA:3825,_ZN7leveldbL12MakeFileNameERKNSt7__cxx1112basic_stringIcSt11char_traitsIcESaIcEEEmPKc
FNDA:879,_ZN7leveldb13TableFileNameERKNSt7__cxx1112basic_stringIcSt11char_traitsIcESaIcEEEm
FNDA:0,_ZN7leveldb16SSTTableFileNameERKNSt7__cxx1112basic_stringIcSt11char_traitsIcESaIcEEEm
FNDA:1606,_ZN7leveldb14SetCurrentFileEPNS_3EnvERKNSt7__cxx1112basic_stringIcSt11char_traitsIcESaIcEEEm
FNDA:3212,_ZN7leveldb18DescriptorFileNameERKNSt7__cxx1112basic_stringIcSt11char_traitsIcESaIcEEEm
FNDA:1606,_ZN7leveldb12TempFileNameERKNSt7__cxx1112basic_stringIcSt11char_traitsIcESaIcEEEm
FNF:12
FNH:11
DA:18,3825
DA:20,3825
DA:21,3825
DA:24,3825
DA:27,1340
DA:28,1340
DA:29,1340
DA:32,879
DA:33,879
DA:34,879
DA:37,0
DA:38,0
DA:39,0
DA:42,3212
DA:43,3212
DA:44,3212
DA:45,3212
DA:47,3212
DA:50,3570
DA:51,3570
DA:54,984
DA:55,984
DA:58,1606
DA:59,1606
DA:60,1606
DA:63,1964
DA:64,1964
DA:68,982
DA:69,982
DA:80,16064
DA:83,16064
DA:84,16064
DA:85,1988
DA:86,1988
DA:87,14076
DA:88,1988
DA:89,1988
DA:90,12088
DA:91,2726
DA:92,2726
DA:93,9362
DA:94,2970
DA:95,2970
DA:96,2970
DA:97,0
DA:99,2970
DA:102,2970
DA:103,2970
DA:107,6392
DA:108,6392
DA:109,3976
DA:111,2416
DA:112,2416
DA:113,1722
DA:114,694
DA:115,694
DA:116,0
DA:117,0
DA:121,2416
DA:126,1606
DA:129,1606
DA:130,1606
DA:131,1606
DA:132,1606
DA:133,1606
DA:134,3212
DA:135,1606
DA:136,4818
DA:138,1606
DA:139,0
DA:141,1606
DA:142,3212
LF:72
LH:65
end_of_record
TN:
SF:/home/apetrini/dev/src/zen/src/leveldb/db/log_reader.cc
FN:15,_ZN7leveldb3log6Reader8ReporterD0Ev
FN:15,_ZN7leveldb3log6Reader8ReporterD2Ev
FN:18,_ZN7leveldb3log6ReaderC2EPNS_14SequentialFileEPNS1_8ReporterEbm
FN:31,_ZN7leveldb3log6ReaderD2Ev
FN:35,_ZN7leveldb3log6Reader18SkipToInitialBlockEv
FN:59,_ZN7leveldb3log6Reader10ReadRecordEPNS_5SliceEPNSt7__cxx1112basic_stringIcSt11char_traitsIcESaIcEEE
FN:166,_ZN7leveldb3log6Reader16LastRecordOffsetEv
FN:170,_ZN7leveldb3log6Reader16ReportCorruptionEmPKc
FN:174,_ZN7leveldb3log6Reader10ReportDropEmRKNS_6StatusE
FN:181,_ZN7leveldb3log6Reader18ReadPhysicalRecordEPNS_5SliceE
FNDA:1340,_ZN7leveldb3log6ReaderD2Ev
FNDA:0,_ZN7leveldb3log6Reader18SkipToInitialBlockEv
FNDA:1340,_ZN7leveldb3log6Reader8ReporterD2Ev
FNDA:4157,_ZN7leveldb3log6Reader18ReadPhysicalRecordEPNS_5SliceE
FNDA:0,_ZN7leveldb3log6Reader8ReporterD0Ev
FNDA:3727,_ZN7leveldb3log6Reader10ReadRecordEPNS_5SliceEPNSt7__cxx1112basic_stringIcSt11char_traitsIcESaIcEEE
FNDA:1340,_ZN7leveldb3log6ReaderC2EPNS_14SequentialFileEPNS1_8ReporterEbm
FNDA:0,_ZN7leveldb3log6Reader16LastRecordOffsetEv
FNDA:0,_ZN7leveldb3log6Reader16ReportCorruptionEmPKc
FNDA:0,_ZN7leveldb3log6Reader10ReportDropEmRKNS_6StatusE
FNF:10
FNH:5
DA:15,1340
DA:16,1340
DA:18,1340
DA:19,1340
DA:20,1340
DA:21,1340
DA:22,1340
DA:23,1340
DA:24,1340
DA:25,1340
DA:26,1340
DA:27,1340
DA:28,1340
DA:29,1340
DA:31,1340
DA:32,1340
DA:33,1340
DA:35,0
DA:36,0
DA:37,0
DA:40,0
DA:41,0
DA:42,0
DA:45,0
DA:48,0
DA:49,0
DA:50,0
DA:51,0
DA:52,0
DA:54,0
DA:59,3727
DA:60,3727
DA:61,0
DA:66,3727
DA:67,3727
DA:68,3727
DA:71,3727
DA:73,3727
DA:74,4157
DA:75,4157
DA:76,4157
DA:77,4157
DA:78,2192
DA:79,2192
DA:84,0
DA:85,2192
DA:87,0
DA:90,2192
DA:91,2192
DA:92,2192
DA:93,2192
DA:94,2192
DA:96,195
DA:97,195
DA:102,0
DA:103,195
DA:105,0
DA:108,195
DA:109,195
DA:113,235
DA:114,235
DA:115,0
DA:118,235
DA:122,195
DA:123,195
DA:124,0
DA:127,195
DA:128,195
DA:129,195
DA:130,195
DA:134,1340
DA:135,1340
DA:139,0
DA:143,0
DA:144,0
DA:145,0
DA:146,0
DA:147,4157
DA:151,0
DA:152,0
DA:153,0
DA:154,0
DA:155,0
DA:157,0
DA:158,0
DA:159,0
DA:166,0
DA:167,0
DA:170,0
DA:171,0
DA:172,0
DA:174,0
DA:175,0
DA:176,0
DA:177,0
DA:179,0
DA:181,4157
DA:182,5927
DA:183,5927
DA:184,3110
DA:186,1770
DA:187,1770
DA:188,1770
DA:189,1770
DA:190,0
DA:191,0
DA:192,0
DA:193,0
DA:194,1770
DA:195,1340
DA:197,1770
DA:198,1770
DA:203,1340
DA:204,1340
DA:209,2817
DA:210,2817
DA:211,2817
DA:212,2817
DA:213,2817
DA:214,2817
DA:215,0
DA:216,0
DA:217,0
DA:218,0
DA:219,0
DA:227,2817
DA:231,0
DA:232,0
DA:236,2817
DA:237,2817
DA:238,2817
DA:239,2817
DA:244,0
DA:245,0
DA:246,0
DA:247,0
DA:251,2817
DA:254,2817
DA:255,2817
DA:256,0
DA:257,0
DA:260,2817
DA:261,2817
LF:143
LH:83
end_of_record
TN:
SF:/home/apetrini/dev/src/zen/src/leveldb/db/log_reader.h
FNF:0
FNH:0
DA:23,1340
LF:1
LH:1
end_of_record
TN:
SF:/home/apetrini/dev/src/zen/src/leveldb/db/log_writer.cc
FN:15,_ZN7leveldb3log6WriterC2EPNS_12WritableFileE
FN:24,_ZN7leveldb3log6WriterD2Ev
FN:27,_ZN7leveldb3log6Writer9AddRecordERKNS_5SliceE
FN:75,_ZN7leveldb3log6Writer18EmitPhysicalRecordENS0_10RecordTypeEPKcm
FNDA:2588,_ZN7leveldb3log6WriterC2EPNS_12WritableFileE
FNDA:14435,_ZN7leveldb3log6Writer18EmitPhysicalRecordENS0_10RecordTypeEPKcm
FNDA:13382,_ZN7leveldb3log6Writer9AddRecordERKNS_5SliceE
FNDA:2588,_ZN7leveldb3log6WriterD2Ev
FNF:4
FNH:4
DA:15,2588
DA:16,2588
DA:17,2588
DA:18,15528
DA:19,12940
DA:20,12940
DA:22,2588
DA:24,2588
DA:25,2588
DA:27,13382
DA:28,13382
DA:29,13382
DA:34,13382
DA:35,13382
DA:36,14435
DA:37,14435
DA:38,14435
DA:39,14435
DA:41,1053
DA:43,0
DA:44,0
DA:46,1053
DA:50,14435
DA:52,14435
DA:53,14435
DA:55,14435
DA:56,14435
DA:57,14435
DA:59,1518
DA:61,1053
DA:64,588
DA:67,14435
DA:68,14435
DA:69,14435
DA:70,14435
DA:71,14435
DA:72,13382
DA:73,0
DA:75,14435
DA:76,14435
DA:77,14435
DA:80,14435
DA:81,14435
DA:82,14435
DA:83,14435
DA:86,14435
DA:87,14435
DA:88,14435
DA:91,14435
DA:92,14435
DA:93,14435
DA:94,14435
DA:95,28870
DA:98,14435
DA:99,14435
DA:100,0
LF:56
LH:52
end_of_record
TN:
SF:/home/apetrini/dev/src/zen/src/leveldb/db/memtable.cc
FN:14,_ZN7leveldbL22GetLengthPrefixedSliceEPKc
FN:21,_ZN7leveldb8MemTableC2ERKNS_21InternalKeyComparatorE
FN:27,_ZN7leveldb8MemTableD2Ev
FN:31,_ZN7leveldb8MemTable22ApproximateMemoryUsageEv
FN:33,_ZNK7leveldb8MemTable13KeyComparatorclEPKcS3_
FN:44,_ZN7leveldbL9EncodeKeyEPNSt7__cxx1112basic_stringIcSt11char_traitsIcESaIcEEERKNS_5SliceE
FN:55,_ZNK7leveldb16MemTableIterator5ValidEv
FN:56,_ZN7leveldb16MemTableIterator4SeekERKNS_5SliceE
FN:57,_ZN7leveldb16MemTableIterator11SeekToFirstEv
FN:58,_ZN7leveldb16MemTableIterator10SeekToLastEv
FN:59,_ZN7leveldb16MemTableIterator4NextEv
FN:60,_ZN7leveldb16MemTableIterator4PrevEv
FN:61,_ZNK7leveldb16MemTableIterator3keyEv
FN:62,_ZNK7leveldb16MemTableIterator5valueEv
FN:67,_ZNK7leveldb16MemTableIterator6statusEv
FN:78,_ZN7leveldb8MemTable11NewIteratorEv
FN:82,_ZN7leveldb8MemTable3AddEmNS_9ValueTypeERKNS_5SliceES4_
FN:108,_ZN7leveldb8MemTable3GetERKNS_9LookupKeyEPNSt7__cxx1112basic_stringIcSt11char_traitsIcESaIcEEEPNS_6StatusE
FNDA:348721,_ZN7leveldb8MemTable3AddEmNS_9ValueTypeERKNS_5SliceES4_
FNDA:2456,_ZN7leveldb8MemTable11NewIteratorEv
FNDA:11815,_ZN7leveldb8MemTable22ApproximateMemoryUsageEv
FNDA:358,_ZN7leveldb16MemTableIterator11SeekToFirstEv
FNDA:0,_ZN7leveldb16MemTableIterator4PrevEv
FNDA:1340,_ZN7leveldb8MemTableC2ERKNS_21InternalKeyComparatorE
FNDA:16582411,_ZN7leveldbL22GetLengthPrefixedSliceEPKc
FNDA:0,_ZN7leveldb16MemTableIterator10SeekToLastEv
FNDA:358,_ZNK7leveldb16MemTableIterator6statusEv
FNDA:2098,_ZN7leveldbL9EncodeKeyEPNSt7__cxx1112basic_stringIcSt11char_traitsIcESaIcEEERKNS_5SliceE
FNDA:2098,_ZN7leveldb16MemTableIterator4SeekERKNS_5SliceE
FNDA:19109681,_ZN7leveldb8MemTable3GetERKNS_9LookupKeyEPNSt7__cxx1112basic_stringIcSt11char_traitsIcESaIcEEEPNS_6StatusE
FNDA:109924,_ZNK7leveldb16MemTableIterator5ValidEv
FNDA:106762,_ZNK7leveldb16MemTableIterator5valueEv
FNDA:8129993,_ZNK7leveldb8MemTable13KeyComparatorclEPKcS3_
FNDA:1340,_ZN7leveldb8MemTableD2Ev
FNDA:105334,_ZN7leveldb16MemTableIterator4NextEv
FNDA:108556,_ZNK7leveldb16MemTableIterator3keyEv
FNF:18
FNH:16
DA:14,16582411
DA:15,16582411
DA:16,16582411
DA:17,16582411
DA:18,16582411
DA:21,1340
DA:22,1340
DA:23,1340
DA:24,1340
DA:25,1340
DA:27,1340
DA:28,1340
DA:29,1340
DA:31,11815
DA:33,8129993
DA:36,8129993
DA:37,8129993
DA:38,8129993
DA:44,2098
DA:45,2098
DA:46,2098
DA:47,2098
DA:48,2098
DA:53,2456
DA:55,109924
DA:56,2098
DA:57,358
DA:58,0
DA:59,105334
DA:60,0
DA:61,108556
DA:62,106762
DA:63,106762
DA:64,106762
DA:67,358
DA:78,2456
DA:79,2456
DA:82,348721
DA:90,348721
DA:91,348721
DA:92,348721
DA:93,348721
DA:94,348721
DA:95,348721
DA:96,348721
DA:97,348721
DA:98,348721
DA:99,348721
DA:100,348721
DA:101,348721
DA:102,348721
DA:103,348721
DA:104,348721
DA:105,348721
DA:106,348721
DA:108,19109681
DA:109,19109681
DA:110,19109681
DA:111,19109681
DA:112,19109681
DA:122,350
DA:123,350
DA:124,350
DA:125,350
DA:126,700
DA:127,350
DA:129,345
DA:130,345
DA:131,345
DA:132,345
DA:133,345
DA:134,345
DA:136,0
DA:137,0
DA:138,0
LF:75
LH:70
end_of_record
TN:
SF:/home/apetrini/dev/src/zen/src/leveldb/db/memtable.h
FN:30,_ZN7leveldb8MemTable5UnrefEv
FNDA:19113119,_ZN7leveldb8MemTable5UnrefEv
FNF:1
FNH:1
DA:27,19113119
DA:30,19113119
DA:31,19113119
DA:32,19113119
DA:33,19113119
DA:34,1340
DA:36,19113119
DA:69,4020
DA:71,1340
LF:9
LH:9
end_of_record
TN:
SF:/home/apetrini/dev/src/zen/src/leveldb/db/repair.cc
FN:47,_ZN7leveldb12_GLOBAL__N_18RepairerC2ERKNSt7__cxx1112basic_stringIcSt11char_traitsIcESaIcEEERKNS_7OptionsE
FN:60,_ZN7leveldb12_GLOBAL__N_18RepairerD2Ev
FN:70,_ZN7leveldb12_GLOBAL__N_18Repairer3RunEv
FN:116,_ZN7leveldb12_GLOBAL__N_18Repairer9FindFilesEv
FN:149,_ZN7leveldb12_GLOBAL__N_18Repairer23ConvertLogFilesToTablesEv
FN:162,_ZN7leveldb12_GLOBAL__N_18Repairer17ConvertLogToTableEm
FN:167,_ZZN7leveldb12_GLOBAL__N_18Repairer17ConvertLogToTableEmEN11LogReporter10CorruptionEmRKNS_6StatusE
FN:244,_ZN7leveldb12_GLOBAL__N_18Repairer15ExtractMetaDataEv
FN:250,_ZN7leveldb12_GLOBAL__N_18Repairer16NewTableIteratorERKNS_12FileMetaDataE
FN:258,_ZN7leveldb12_GLOBAL__N_18Repairer9ScanTableEm
FN:321,_ZN7leveldb12_GLOBAL__N_18Repairer11RepairTableERKNSt7__cxx1112basic_stringIcSt11char_traitsIcESaIcEEENS1_9TableInfoE
FN:375,_ZN7leveldb12_GLOBAL__N_18Repairer15WriteDescriptorEv
FN:434,_ZN7leveldb12_GLOBAL__N_18Repairer11ArchiveFileERKNSt7__cxx1112basic_stringIcSt11char_traitsIcESaIcEEE
FN:456,_ZN7leveldb8RepairDBERKNSt7__cxx1112basic_stringIcSt11char_traitsIcESaIcEEERKNS_7OptionsE
FNDA:0,_ZN7leveldb12_GLOBAL__N_18RepairerD2Ev
FNDA:0,_ZN7leveldb12_GLOBAL__N_18Repairer11RepairTableERKNSt7__cxx1112basic_stringIcSt11char_traitsIcESaIcEEENS1_9TableInfoE
FNDA:0,_ZZN7leveldb12_GLOBAL__N_18Repairer17ConvertLogToTableEmEN11LogReporter10CorruptionEmRKNS_6StatusE
FNDA:0,_ZN7leveldb12_GLOBAL__N_18Repairer9FindFilesEv
FNDA:0,_ZN7leveldb12_GLOBAL__N_18RepairerC2ERKNSt7__cxx1112basic_stringIcSt11char_traitsIcESaIcEEERKNS_7OptionsE
FNDA:0,_ZN7leveldb12_GLOBAL__N_18Repairer15WriteDescriptorEv
FNDA:0,_ZN7leveldb12_GLOBAL__N_18Repairer16NewTableIteratorERKNS_12FileMetaDataE
FNDA:0,_ZN7leveldb12_GLOBAL__N_18Repairer9ScanTableEm
FNDA:0,_ZN7leveldb12_GLOBAL__N_18Repairer17ConvertLogToTableEm
FNDA:0,_ZN7leveldb12_GLOBAL__N_18Repairer3RunEv
FNDA:0,_ZN7leveldb12_GLOBAL__N_18Repairer23ConvertLogFilesToTablesEv
FNDA:0,_ZN7leveldb12_GLOBAL__N_18Repairer15ExtractMetaDataEv
FNDA:0,_ZN7leveldb8RepairDBERKNSt7__cxx1112basic_stringIcSt11char_traitsIcESaIcEEERKNS_7OptionsE
FNDA:0,_ZN7leveldb12_GLOBAL__N_18Repairer11ArchiveFileERKNSt7__cxx1112basic_stringIcSt11char_traitsIcESaIcEEE
FNF:14
FNH:0
DA:47,0
DA:48,0
DA:49,0
DA:50,0
DA:51,0
DA:52,0
DA:53,0
DA:54,0
DA:55,0
DA:57,0
DA:58,0
DA:60,0
DA:61,0
DA:62,0
DA:63,0
DA:65,0
DA:66,0
DA:68,0
DA:70,0
DA:71,0
DA:72,0
DA:73,0
DA:74,0
DA:75,0
DA:77,0
DA:79,0
DA:80,0
DA:82,0
DA:88,0
DA:91,0
DA:92,0
DA:95,0
DA:116,0
DA:117,0
DA:118,0
DA:119,0
DA:120,0
DA:122,0
DA:123,0
DA:128,0
DA:129,0
DA:130,0
DA:131,0
DA:133,0
DA:134,0
DA:136,0
DA:137,0
DA:138,0
DA:139,0
DA:146,0
DA:147,0
DA:149,0
DA:150,0
DA:151,0
DA:152,0
DA:153,0
DA:154,0
DA:155,0
DA:156,0
DA:158,0
DA:159,0
DA:160,0
DA:162,0
DA:163,0
DA:167,0
DA:169,0
DA:170,0
DA:172,0
DA:173,0
DA:177,0
DA:178,0
DA:179,0
DA:180,0
DA:185,0
DA:186,0
DA:187,0
DA:188,0
DA:193,0
DA:194,0
DA:197,0
DA:198,0
DA:199,0
DA:200,0
DA:201,0
DA:202,0
DA:203,0
DA:204,0
DA:205,0
DA:206,0
DA:207,0
DA:209,0
DA:210,0
DA:211,0
DA:212,0
DA:214,0
DA:216,0
DA:217,0
DA:220,0
DA:224,0
DA:225,0
DA:226,0
DA:227,0
DA:228,0
DA:229,0
DA:230,0
DA:231,0
DA:232,0
DA:233,0
DA:236,0
DA:239,0
DA:240,0
DA:241,0
DA:242,0
DA:244,0
DA:245,0
DA:246,0
DA:248,0
DA:250,0
DA:253,0
DA:254,0
DA:255,0
DA:258,0
DA:259,0
DA:260,0
DA:261,0
DA:262,0
DA:263,0
DA:265,0
DA:266,0
DA:267,0
DA:268,0
DA:270,0
DA:271,0
DA:272,0
DA:273,0
DA:274,0
DA:275,0
DA:276,0
DA:277,0
DA:281,0
DA:282,0
DA:283,0
DA:284,0
DA:285,0
DA:286,0
DA:287,0
DA:288,0
DA:289,0
DA:290,0
DA:291,0
DA:292,0
DA:295,0
DA:296,0
DA:297,0
DA:298,0
DA:300,0
DA:301,0
DA:302,0
DA:305,0
DA:306,0
DA:308,0
DA:309,0
DA:310,0
DA:312,0
DA:314,0
DA:315,0
DA:317,0
DA:319,0
DA:321,0
DA:326,0
DA:327,0
DA:328,0
DA:329,0
DA:330,0
DA:332,0
DA:335,0
DA:336,0
DA:337,0
DA:338,0
DA:339,0
DA:341,0
DA:343,0
DA:344,0
DA:345,0
DA:347,0
DA:348,0
DA:349,0
DA:352,0
DA:353,0
DA:355,0
DA:356,0
DA:358,0
DA:359,0
DA:361,0
DA:362,0
DA:363,0
DA:364,0
DA:365,0
DA:366,0
DA:367,0
DA:369,0
DA:370,0
DA:371,0
DA:373,0
DA:375,0
DA:376,0
DA:377,0
DA:378,0
DA:379,0
DA:384,0
DA:385,0
DA:390,0
DA:391,0
DA:392,0
DA:393,0
DA:395,0
DA:397,0
DA:398,0
DA:399,0
DA:403,0
DA:404,0
DA:405,0
DA:406,0
DA:407,0
DA:408,0
DA:409,0
DA:410,0
DA:412,0
DA:413,0
DA:415,0
DA:416,0
DA:419,0
DA:420,0
DA:424,0
DA:425,0
DA:426,0
DA:428,0
DA:432,0
DA:434,0
DA:439,0
DA:440,0
DA:441,0
DA:442,0
DA:444,0
DA:445,0
DA:446,0
DA:447,0
DA:448,0
DA:449,0
DA:450,0
DA:451,0
DA:452,0
DA:456,0
DA:457,0
DA:458,0
DA:459,0
LF:256
LH:0
end_of_record
TN:
SF:/home/apetrini/dev/src/zen/src/leveldb/db/skiplist.h
FN:154,_ZN7leveldb8SkipListIPKcNS_8MemTable13KeyComparatorEE4Node4NextEi
FN:160,_ZN7leveldb8SkipListIPKcNS_8MemTable13KeyComparatorEE4Node7SetNextEiPS6_
FN:168,_ZN7leveldb8SkipListIPKcNS_8MemTable13KeyComparatorEE4Node14NoBarrier_NextEi
FN:172,_ZN7leveldb8SkipListIPKcNS_8MemTable13KeyComparatorEE4Node17NoBarrier_SetNextEiPS6_
FN:184,_ZN7leveldb8SkipListIPKcNS_8MemTable13KeyComparatorEE7NewNodeERKS2_i
FN:202,_ZNK7leveldb8SkipListIPKcNS_8MemTable13KeyComparatorEE8Iterator3keyEv
FN:208,_ZN7leveldb8SkipListIPKcNS_8MemTable13KeyComparatorEE8Iterator4NextEv
FN:214,_ZN7leveldb8SkipListIPKcNS_8MemTable13KeyComparatorEE8Iterator4PrevEv
FN:235,_ZN7leveldb8SkipListIPKcNS_8MemTable13KeyComparatorEE8Iterator10SeekToLastEv
FN:243,_ZN7leveldb8SkipListIPKcNS_8MemTable13KeyComparatorEE12RandomHeightEv
FN:256,_ZNK7leveldb8SkipListIPKcNS_8MemTable13KeyComparatorEE14KeyIsAfterNodeERKS2_PNS5_4NodeE
FN:262,_ZNK7leveldb8SkipListIPKcNS_8MemTable13KeyComparatorEE18FindGreaterOrEqualERKS2_PPNS5_4NodeE
FN:285,_ZNK7leveldb8SkipListIPKcNS_8MemTable13KeyComparatorEE12FindLessThanERKS2_
FN:305,_ZNK7leveldb8SkipListIPKcNS_8MemTable13KeyComparatorEE8FindLastEv
FN:325,_ZN7leveldb8SkipListIPKcNS_8MemTable13KeyComparatorEEC2ES4_PNS_5ArenaE
FN:337,_ZN7leveldb8SkipListIPKcNS_8MemTable13KeyComparatorEE6InsertERKS2_
FNDA:350061,_ZN7leveldb8SkipListIPKcNS_8MemTable13KeyComparatorEE7NewNodeERKS2_i
FNDA:30555977,_ZN7leveldb8SkipListIPKcNS_8MemTable13KeyComparatorEE4Node4NextEi
FNDA:457304,_ZN7leveldb8SkipListIPKcNS_8MemTable13KeyComparatorEE4Node14NoBarrier_NextEi
FNDA:0,_ZN7leveldb8SkipListIPKcNS_8MemTable13KeyComparatorEE8Iterator10SeekToLastEv
FNDA:0,_ZNK7leveldb8SkipListIPKcNS_8MemTable13KeyComparatorEE12FindLessThanERKS2_
FNDA:215668,_ZNK7leveldb8SkipListIPKcNS_8MemTable13KeyComparatorEE8Iterator3keyEv
FNDA:1340,_ZN7leveldb8SkipListIPKcNS_8MemTable13KeyComparatorEEC2ES4_PNS_5ArenaE
FNDA:0,_ZN7leveldb8SkipListIPKcNS_8MemTable13KeyComparatorEE8Iterator4PrevEv
FNDA:473384,_ZN7leveldb8SkipListIPKcNS_8MemTable13KeyComparatorEE4Node7SetNextEiPS6_
FNDA:457304,_ZN7leveldb8SkipListIPKcNS_8MemTable13KeyComparatorEE4Node17NoBarrier_SetNextEiPS6_
FNDA:348721,_ZN7leveldb8SkipListIPKcNS_8MemTable13KeyComparatorEE12RandomHeightEv
FNDA:0,_ZNK7leveldb8SkipListIPKcNS_8MemTable13KeyComparatorEE8FindLastEv
FNDA:105334,_ZN7leveldb8SkipListIPKcNS_8MemTable13KeyComparatorEE8Iterator4NextEv
FNDA:348721,_ZN7leveldb8SkipListIPKcNS_8MemTable13KeyComparatorEE6InsertERKS2_
FNDA:19460500,_ZNK7leveldb8SkipListIPKcNS_8MemTable13KeyComparatorEE18FindGreaterOrEqualERKS2_PPNS5_4NodeE
FNDA:30555977,_ZNK7leveldb8SkipListIPKcNS_8MemTable13KeyComparatorEE14KeyIsAfterNodeERKS2_PNS5_4NodeE
FNF:16
FNH:12
DA:41,1340
DA:110,19809221
DA:112,19809221
DA:120,342294
DA:148,700122
DA:154,30661669
DA:155,30555977
DA:158,30555977
DA:160,473384
DA:161,473384
DA:164,473384
DA:165,473384
DA:168,457304
DA:169,457304
DA:170,457304
DA:172,457304
DA:173,457304
DA:174,457304
DA:175,457304
DA:184,350061
DA:185,700122
DA:186,350061
DA:187,350061
DA:191,19112137
DA:192,19109681
DA:193,2456
DA:197,430926
DA:198,430926
DA:202,215668
DA:203,215668
DA:204,215668
DA:208,105334
DA:209,105334
DA:210,105334
DA:211,105334
DA:214,0
DA:217,0
DA:218,0
DA:219,0
DA:220,0
DA:222,0
DA:225,19111779
DA:226,19111779
DA:230,358
DA:231,358
DA:235,0
DA:236,0
DA:237,0
DA:238,0
DA:240,0
DA:243,348721
DA:246,348721
DA:247,457304
DA:248,108583
DA:250,348721
DA:251,348721
DA:252,348721
DA:256,30555977
DA:258,30555977
DA:262,19460500
DA:264,19460500
DA:265,19460500
DA:267,30555977
DA:268,30555977
DA:272,24232925
DA:273,24232925
DA:274,19460500
DA:277,4772425
DA:285,0
DA:286,0
DA:287,0
DA:289,0
DA:290,0
DA:291,0
DA:292,0
DA:293,0
DA:296,0
DA:305,0
DA:307,0
DA:308,0
DA:310,0
DA:311,0
DA:312,0
DA:313,0
DA:316,0
DA:325,1340
DA:326,1340
DA:327,1340
DA:328,1340
DA:329,1340
DA:330,1340
DA:331,17420
DA:332,16080
DA:334,1340
DA:337,348721
DA:341,348721
DA:344,348721
DA:346,348721
DA:347,348721
DA:348,9117
DA:349,5010
DA:360,4107
DA:363,348721
DA:364,806025
DA:367,457304
DA:368,457304
DA:370,348721
LF:107
LH:79
end_of_record
TN:
SF:/home/apetrini/dev/src/zen/src/leveldb/db/snapshot.h
FN:38,_ZNK7leveldb12SnapshotList6oldestEv
FN:41,_ZN7leveldb12SnapshotList3NewEm
FN:52,_ZN7leveldb12SnapshotList6DeleteEPKNS_12SnapshotImplE
FNDA:0,_ZN7leveldb12SnapshotList3NewEm
FNDA:0,_ZNK7leveldb12SnapshotList6oldestEv
FNDA:0,_ZN7leveldb12SnapshotList6DeleteEPKNS_12SnapshotImplE
FNF:3
FNH:0
DA:16,1964
DA:30,982
DA:32,982
DA:33,982
DA:34,982
DA:37,22
DA:38,0
DA:41,0
DA:42,0
DA:43,0
DA:44,0
DA:45,0
DA:46,0
DA:47,0
DA:48,0
DA:49,0
DA:52,0
DA:53,0
DA:54,0
DA:55,0
DA:56,0
DA:57,0
LF:22
LH:6
end_of_record
TN:
SF:/home/apetrini/dev/src/zen/src/leveldb/db/table_cache.cc
FN:19,_ZN7leveldbL11DeleteEntryERKNS_5SliceEPv
FN:26,_ZN7leveldbL10UnrefEntryEPvS0_
FN:32,_ZN7leveldb10TableCacheC2ERKNSt7__cxx1112basic_stringIcSt11char_traitsIcESaIcEEEPKNS_7OptionsEi
FN:41,_ZN7leveldb10TableCacheD2Ev
FN:45,_ZN7leveldb10TableCache9FindTableEmmPPNS_5Cache6HandleE
FN:82,_ZN7leveldb10TableCache11NewIteratorERKNS_11ReadOptionsEmmPPNS_5TableE
FN:105,_ZN7leveldb10TableCache3GetERKNS_11ReadOptionsEmmRKNS_5SliceEPvPFvS7_S6_S6_E
FN:121,_ZN7leveldb10TableCache5EvictEm
FNDA:854,_ZN7leveldbL10UnrefEntryEPvS0_
FNDA:854,_ZN7leveldb10TableCache11NewIteratorERKNS_11ReadOptionsEmmPPNS_5TableE
FNDA:982,_ZN7leveldb10TableCacheD2Ev
FNDA:15626116,_ZN7leveldb10TableCache3GetERKNS_11ReadOptionsEmmRKNS_5SliceEPvPFvS7_S6_S6_E
FNDA:982,_ZN7leveldb10TableCacheC2ERKNSt7__cxx1112basic_stringIcSt11char_traitsIcESaIcEEEPKNS_7OptionsEi
FNDA:66,_ZN7leveldb10TableCache5EvictEm
FNDA:499,_ZN7leveldbL11DeleteEntryERKNS_5SliceEPv
FNDA:15626970,_ZN7leveldb10TableCache9FindTableEmmPPNS_5Cache6HandleE
FNF:8
FNH:8
DA:19,499
DA:20,499
DA:21,499
DA:22,499
DA:23,499
DA:24,499
DA:26,854
DA:27,854
DA:28,854
DA:29,854
DA:30,854
DA:32,982
DA:34,982
DA:35,982
DA:36,982
DA:37,982
DA:38,982
DA:39,982
DA:41,982
DA:42,982
DA:43,982
DA:45,15626970
DA:47,15626970
DA:48,15626970
DA:49,15626970
DA:50,15626970
DA:51,15626970
DA:52,15626970
DA:53,499
DA:54,499
DA:55,499
DA:56,499
DA:57,499
DA:58,0
DA:59,0
DA:60,0
DA:62,0
DA:63,499
DA:64,998
DA:67,499
DA:68,0
DA:69,0
DA:73,499
DA:74,499
DA:75,499
DA:76,499
DA:78,499
DA:79,15626970
DA:80,0
DA:82,854
DA:86,854
DA:87,0
DA:90,854
DA:91,854
DA:92,854
DA:93,0
DA:96,854
DA:97,854
DA:98,854
DA:99,854
DA:100,0
DA:103,854
DA:105,15626116
DA:111,15626116
DA:112,15626116
DA:113,15626116
DA:114,15626116
DA:115,15626116
DA:116,15626116
DA:118,15626116
DA:119,0
DA:121,66
DA:122,66
DA:123,66
DA:124,66
DA:125,66
LF:76
LH:65
end_of_record
TN:
SF:/home/apetrini/dev/src/zen/src/leveldb/db/version_edit.cc
FN:26,_ZN7leveldb11VersionEdit5ClearEv
FN:41,_ZNK7leveldb11VersionEdit8EncodeToEPNSt7__cxx1112basic_stringIcSt11char_traitsIcESaIcEEE
FN:88,_ZN7leveldbL14GetInternalKeyEPNS_5SliceEPNS_11InternalKeyE
FN:98,_ZN7leveldbL8GetLevelEPNS_5SliceEPi
FN:109,_ZN7leveldb11VersionEdit10DecodeFromERKNS_5SliceE
FN:212,_ZNK7leveldb11VersionEdit11DebugStringB5cxx11Ev
FNDA:2610,_ZNK7leveldb11VersionEdit8EncodeToEPNSt7__cxx1112basic_stringIcSt11char_traitsIcESaIcEEE
FNDA:298,_ZN7leveldbL14GetInternalKeyEPNS_5SliceEPNS_11InternalKeyE
FNDA:1344,_ZN7leveldb11VersionEdit10DecodeFromERKNS_5SliceE
FNDA:0,_ZNK7leveldb11VersionEdit11DebugStringB5cxx11Ev
FNDA:5298,_ZN7leveldb11VersionEdit5ClearEv
FNDA:174,_ZN7leveldbL8GetLevelEPNS_5SliceEPi
FNF:6
FNH:5
DA:26,5298
DA:27,5298
DA:28,5298
DA:29,5298
DA:30,5298
DA:31,5298
DA:32,5298
DA:33,5298
DA:34,5298
DA:35,5298
DA:36,5298
DA:37,5298
DA:38,5298
DA:39,5298
DA:41,2610
DA:42,2610
DA:43,1606
DA:44,1606
DA:46,2610
DA:47,1628
DA:48,1628
DA:50,2610
DA:51,1004
DA:52,1004
DA:54,2610
DA:55,1628
DA:56,1628
DA:58,2610
DA:59,1628
DA:60,1628
DA:63,2644
DA:64,34
DA:65,34
DA:66,34
DA:69,2676
DA:70,2676
DA:71,2676
DA:72,66
DA:73,66
DA:74,66
DA:77,3114
DA:78,504
DA:79,504
DA:80,504
DA:81,504
DA:82,504
DA:83,504
DA:84,504
DA:86,2610
DA:88,298
DA:89,298
DA:90,298
DA:91,298
DA:92,298
DA:98,174
DA:99,174
DA:100,174
DA:101,174
DA:102,174
DA:103,174
DA:109,1344
DA:110,1344
DA:111,1344
DA:112,1344
DA:113,1344
DA:116,1344
DA:117,1344
DA:118,1344
DA:119,1344
DA:120,1344
DA:122,5820
DA:123,4476
DA:124,982
DA:125,982
DA:126,982
DA:127,982
DA:133,986
DA:134,986
DA:135,986
DA:141,362
DA:142,362
DA:143,362
DA:149,986
DA:150,986
DA:151,986
DA:157,986
DA:158,986
DA:159,986
DA:165,14
DA:166,28
DA:167,14
DA:168,28
DA:174,18
DA:175,36
DA:176,18
DA:177,18
DA:183,142
DA:184,284
DA:185,284
DA:186,284
DA:187,426
DA:188,142
DA:189,284
DA:201,1344
DA:205,1344
DA:206,1344
DA:207,0
DA:209,2688
DA:210,1344
DA:212,0
DA:213,0
DA:214,0
DA:215,0
DA:216,0
DA:217,0
DA:219,0
DA:220,0
DA:221,0
DA:223,0
DA:224,0
DA:225,0
DA:227,0
DA:228,0
DA:229,0
DA:231,0
DA:232,0
DA:233,0
DA:235,0
DA:236,0
DA:237,0
DA:238,0
DA:239,0
DA:241,0
DA:242,0
DA:243,0
DA:244,0
DA:245,0
DA:246,0
DA:247,0
DA:249,0
DA:250,0
DA:251,0
DA:252,0
DA:253,0
DA:254,0
DA:255,0
DA:256,0
DA:257,0
DA:258,0
DA:259,0
DA:260,0
DA:262,0
DA:263,0
DA:264,0
LF:154
LH:108
end_of_record
TN:
SF:/home/apetrini/dev/src/zen/src/leveldb/db/version_edit.h
FN:30,_ZN7leveldb11VersionEditC2Ev
FN:31,_ZN7leveldb11VersionEditD2Ev
FN:35,_ZN7leveldb11VersionEdit17SetComparatorNameERKNS_5SliceE
FN:55,_ZN7leveldb11VersionEdit17SetCompactPointerEiRKNS_11InternalKeyE
FN:62,_ZN7leveldb11VersionEdit7AddFileEimmRKNS_11InternalKeyES3_
FNDA:1606,_ZN7leveldb11VersionEdit17SetComparatorNameERKNS_5SliceE
FNDA:3954,_ZN7leveldb11VersionEditC2Ev
FNDA:34,_ZN7leveldb11VersionEdit17SetCompactPointerEiRKNS_11InternalKeyE
FNDA:504,_ZN7leveldb11VersionEdit7AddFileEimmRKNS_11InternalKeyES3_
FNDA:3954,_ZN7leveldb11VersionEditD2Ev
FNF:5
FNH:5
DA:25,1702
DA:30,3954
DA:31,3954
DA:35,1606
DA:36,1606
DA:37,1606
DA:38,1606
DA:39,1628
DA:40,1628
DA:41,1628
DA:42,22
DA:43,1004
DA:44,1004
DA:45,1004
DA:46,1004
DA:47,2610
DA:48,2610
DA:49,2610
DA:51,1628
DA:52,1628
DA:53,1628
DA:55,34
DA:56,34
DA:57,34
DA:62,504
DA:66,504
DA:67,504
DA:68,504
DA:69,504
DA:70,504
DA:71,1008
DA:72,504
DA:75,66
DA:76,66
LF:34
LH:34
end_of_record
TN:
SF:/home/apetrini/dev/src/zen/src/leveldb/db/version_set.cc
FN:34,_ZN7leveldbL16MaxBytesForLevelEi
FN:45,_ZN7leveldbL19MaxFileSizeForLevelEi
FN:49,_ZN7leveldbL13TotalFileSizeERKSt6vectorIPNS_12FileMetaDataESaIS2_EE
FN:57,_ZN7leveldb7VersionD2Ev
FN:77,_ZN7leveldb8FindFileERKNS_21InternalKeyComparatorERKSt6vectorIPNS_12FileMetaDataESaIS5_EERKNS_5SliceE
FN:98,_ZN7leveldbL9AfterFileEPKNS_10ComparatorEPKNS_5SliceEPKNS_12FileMetaDataE
FN:105,_ZN7leveldbL10BeforeFileEPKNS_10ComparatorEPKNS_5SliceEPKNS_12FileMetaDataE
FN:112,_ZN7leveldb21SomeFileOverlapsRangeERKNS_21InternalKeyComparatorEbRKSt6vectorIPNS_12FileMetaDataESaIS5_EEPKNS_5SliceESC_
FN:156,_ZN7leveldb7Version20LevelFileNumIteratorC2ERKNS_21InternalKeyComparatorEPKSt6vectorIPNS_12FileMetaDataESaIS7_EE
FN:162,_ZNK7leveldb7Version20LevelFileNumIterator5ValidEv
FN:165,_ZN7leveldb7Version20LevelFileNumIterator4SeekERKNS_5SliceE
FN:168,_ZN7leveldb7Version20LevelFileNumIterator11SeekToFirstEv
FN:169,_ZN7leveldb7Version20LevelFileNumIterator10SeekToLastEv
FN:172,_ZN7leveldb7Version20LevelFileNumIterator4NextEv
FN:176,_ZN7leveldb7Version20LevelFileNumIterator4PrevEv
FN:184,_ZNK7leveldb7Version20LevelFileNumIterator3keyEv
FN:188,_ZNK7leveldb7Version20LevelFileNumIterator5valueEv
FN:194,_ZNK7leveldb7Version20LevelFileNumIterator6statusEv
FN:204,_ZN7leveldbL15GetFileIteratorEPvRKNS_11ReadOptionsERKNS_5SliceE
FN:218,_ZNK7leveldb7Version24NewConcatenatingIteratorERKNS_11ReadOptionsEi
FN:225,_ZN7leveldb7Version12AddIteratorsERKNS_11ReadOptionsEPSt6vectorIPNS_8IteratorESaIS6_EE
FN:259,_ZN7leveldbL9SaveValueEPvRKNS_5SliceES3_
FN:274,_ZN7leveldbL11NewestFirstEPNS_12FileMetaDataES1_
FN:278,_ZN7leveldb7Version18ForEachOverlappingENS_5SliceES1_PvPFbS2_iPNS_12FileMetaDataEE
FN:323,_ZN7leveldb7Version3GetERKNS_11ReadOptionsERKNS_9LookupKeyEPNSt7__cxx1112basic_stringIcSt11char_traitsIcESaIcEEEPNS0_8GetStatsE
FN:422,_ZN7leveldb7Version11UpdateStatsERKNS0_8GetStatsE
FN:435,_ZN7leveldb7Version16RecordReadSampleENS_5SliceE
FN:445,_ZZN7leveldb7Version16RecordReadSampleENS_5SliceEEN5State5MatchEPviPNS_12FileMetaDataE
FN:473,_ZN7leveldb7Version3RefEv
FN:477,_ZN7leveldb7Version5UnrefEv
FN:486,_ZN7leveldb7Version14OverlapInLevelEiPKNS_5SliceES3_
FN:493,_ZN7leveldb7Version26PickLevelForMemTableOutputERKNS_5SliceES3_
FN:522,_ZN7leveldb7Version20GetOverlappingInputsEiPKNS_11InternalKeyES3_PSt6vectorIPNS_12FileMetaDataESaIS6_EE
FN:565,_ZNK7leveldb7Version11DebugStringB5cxx11Ev
FN:600,_ZNK7leveldb10VersionSet7Builder13BySmallestKeyclEPNS_12FileMetaDataES4_
FN:623,_ZN7leveldb10VersionSet7BuilderC2EPS0_PNS_7VersionE
FN:634,_ZN7leveldb10VersionSet7BuilderD2Ev
FN:656,_ZN7leveldb10VersionSet7Builder5ApplyEPNS_11VersionEditE
FN:702,_ZN7leveldb10VersionSet7Builder6SaveToEPNS_7VersionE
FN:750,_ZN7leveldb10VersionSet7Builder12MaybeAddFileEPNS_7VersionEiPNS_12FileMetaDataE
FN:766,_ZN7leveldb10VersionSetC2ERKNSt7__cxx1112basic_stringIcSt11char_traitsIcESaIcEEEPKNS_7OptionsEPNS_10TableCacheEPKNS_21InternalKeyComparatorE
FN:787,_ZN7leveldb10VersionSetD2Ev
FN:794,_ZN7leveldb10VersionSet13AppendVersionEPNS_7VersionE
FN:811,_ZN7leveldb10VersionSet11LogAndApplyEPNS_11VersionEditEPNS_4port5MutexE
FN:896,_ZN7leveldb10VersionSet7RecoverEv
FN:899,_ZZN7leveldb10VersionSet7RecoverEvEN11LogReporter10CorruptionEmRKNS_6StatusE
FN:1011,_ZN7leveldb10VersionSet18MarkFileNumberUsedEm
FN:1017,_ZN7leveldb10VersionSet8FinalizeEPNS_7VersionE
FN:1054,_ZN7leveldb10VersionSet13WriteSnapshotEPNS_3log6WriterE
FN:1084,_ZNK7leveldb10VersionSet13NumLevelFilesEi
FN:1090,_ZNK7leveldb10VersionSet12LevelSummaryEPNS0_19LevelSummaryStorageE
FN:1105,_ZN7leveldb10VersionSet19ApproximateOffsetOfEPNS_7VersionERKNS_11InternalKeyE
FN:1137,_ZN7leveldb10VersionSet12AddLiveFilesEPSt3setImSt4lessImESaImEE
FN:1150,_ZNK7leveldb10VersionSet13NumLevelBytesEi
FN:1156,_ZN7leveldb10VersionSet28MaxNextLevelOverlappingBytesEv
FN:1176,_ZN7leveldb10VersionSet8GetRangeERKSt6vectorIPNS_12FileMetaDataESaIS3_EEPNS_11InternalKeyES9_
FN:1201,_ZN7leveldb10VersionSet9GetRange2ERKSt6vectorIPNS_12FileMetaDataESaIS3_EES7_PNS_11InternalKeyES9_
FN:1210,_ZN7leveldb10VersionSet17MakeInputIteratorEPNS_10CompactionE
FN:1243,_ZN7leveldb10VersionSet14PickCompactionEv
FN:1297,_ZN7leveldb10VersionSet16SetupOtherInputsEPNS_10CompactionE
FN:1364,_ZN7leveldb10VersionSet12CompactRangeEiPKNS_11InternalKeyES3_
FN:1399,_ZN7leveldb10CompactionC2Ei
FN:1411,_ZN7leveldb10CompactionD2Ev
FN:1417,_ZNK7leveldb10Compaction13IsTrivialMoveEv
FN:1426,_ZN7leveldb10Compaction17AddInputDeletionsEPNS_11VersionEditE
FN:1434,_ZN7leveldb10Compaction17IsBaseLevelForKeyERKNS_5SliceE
FN:1455,_ZN7leveldb10Compaction16ShouldStopBeforeERKNS_5SliceE
FN:1477,_ZN7leveldb10Compaction13ReleaseInputsEv
FNDA:66,_ZN7leveldb10VersionSet8GetRangeERKSt6vectorIPNS_12FileMetaDataESaIS3_EEPNS_11InternalKeyES9_
FNDA:5043,_ZN7leveldb8FindFileERKNS_21InternalKeyComparatorERKSt6vectorIPNS_12FileMetaDataESaIS5_EERKNS_5SliceE
FNDA:22,_ZNK7leveldb10VersionSet12LevelSummaryEPNS0_19LevelSummaryStorageE
FNDA:2968,_ZN7leveldb10VersionSet13AppendVersionEPNS_7VersionE
FNDA:982,_ZN7leveldb10VersionSet13WriteSnapshotEPNS_3log6WriterE
FNDA:982,_ZN7leveldb10VersionSet7RecoverEv
FNDA:22,_ZN7leveldb7Version20LevelFileNumIteratorC2ERKNS_21InternalKeyComparatorEPKSt6vectorIPNS_12FileMetaDataESaIS7_EE
FNDA:0,_ZN7leveldb10VersionSet12CompactRangeEiPKNS_11InternalKeyES3_
FNDA:10794,_ZNK7leveldb10VersionSet13NumLevelFilesEi
FNDA:9936,_ZN7leveldbL13TotalFileSizeERKSt6vectorIPNS_12FileMetaDataESaIS2_EE
FNDA:1986,_ZN7leveldb10VersionSet8FinalizeEPNS_7VersionE
FNDA:4,_ZN7leveldb7Version20LevelFileNumIterator4NextEv
FNDA:1986,_ZN7leveldb10VersionSet7Builder6SaveToEPNS_7VersionE
FNDA:22,_ZN7leveldb10Compaction13ReleaseInputsEv
FNDA:15,_ZNK7leveldb7Version20LevelFileNumIterator3keyEv
FNDA:176,_ZN7leveldb7Version16RecordReadSampleENS_5SliceE
FNDA:1986,_ZN7leveldb10VersionSet7BuilderC2EPS0_PNS_7VersionE
FNDA:22,_ZN7leveldbL19MaxFileSizeForLevelEi
FNDA:22,_ZNK7leveldb10Compaction13IsTrivialMoveEv
FNDA:19109347,_ZN7leveldb7Version11UpdateStatsERKNS0_8GetStatsE
FNDA:20,_ZNK7leveldb7Version24NewConcatenatingIteratorERKNS_11ReadOptionsEi
FNDA:176,_ZN7leveldb7Version18ForEachOverlappingENS_5SliceES1_PvPFbS2_iPNS_12FileMetaDataEE
FNDA:2322,_ZN7leveldb10VersionSet18MarkFileNumberUsedEm
FNDA:0,_ZN7leveldb7Version14OverlapInLevelEiPKNS_5SliceES3_
FNDA:22,_ZN7leveldb10CompactionC2Ei
FNDA:15,_ZN7leveldbL15GetFileIteratorEPvRKNS_11ReadOptionsERKNS_5SliceE
FNDA:0,_ZNK7leveldb7Version11DebugStringB5cxx11Ev
FNDA:1986,_ZN7leveldb10VersionSet12AddLiveFilesEPSt3setImSt4lessImESaImEE
FNDA:0,_ZNK7leveldb10VersionSet13NumLevelBytesEi
FNDA:0,_ZN7leveldbL9AfterFileEPKNS_10ComparatorEPKNS_5SliceEPKNS_12FileMetaDataE
FNDA:0,_ZN7leveldb10VersionSet28MaxNextLevelOverlappingBytesEv
FNDA:9930,_ZN7leveldbL16MaxBytesForLevelEi
FNDA:0,_ZZN7leveldb10VersionSet7RecoverEvEN11LogReporter10CorruptionEmRKNS_6StatusE
FNDA:982,_ZN7leveldb10VersionSetD2Ev
FNDA:0,_ZN7leveldb21SomeFileOverlapsRangeERKNS_21InternalKeyComparatorEbRKSt6vectorIPNS_12FileMetaDataESaIS5_EEPKNS_5SliceESC_
FNDA:187,_ZZN7leveldb7Version16RecordReadSampleENS_5SliceEEN5State5MatchEPviPNS_12FileMetaDataE
FNDA:22,_ZN7leveldb10VersionSet14PickCompactionEv
FNDA:3950,_ZN7leveldb7VersionD2Ev
FNDA:4,_ZNK7leveldb7Version20LevelFileNumIterator6statusEv
FNDA:22,_ZN7leveldb10Compaction17AddInputDeletionsEPNS_11VersionEditE
FNDA:26,_ZN7leveldb10Compaction17IsBaseLevelForKeyERKNS_5SliceE
FNDA:5833,_ZN7leveldb10Compaction16ShouldStopBeforeERKNS_5SliceE
FNDA:2,_ZN7leveldb7Version20LevelFileNumIterator11SeekToFirstEv
FNDA:68,_ZN7leveldb7Version20GetOverlappingInputsEiPKNS_11InternalKeyES3_PSt6vectorIPNS_12FileMetaDataESaIS6_EE
FNDA:15,_ZNK7leveldb7Version20LevelFileNumIterator5valueEv
FNDA:20,_ZN7leveldb7Version20LevelFileNumIterator4SeekERKNS_5SliceE
FNDA:19109336,_ZN7leveldb7Version3GetERKNS_11ReadOptionsERKNS_9LookupKeyEPNSt7__cxx1112basic_stringIcSt11char_traitsIcESaIcEEEPNS0_8GetStatsE
FNDA:2348,_ZN7leveldb10VersionSet7Builder5ApplyEPNS_11VersionEditE
FNDA:19116755,_ZN7leveldb7Version3RefEv
FNDA:982,_ZN7leveldb10VersionSetC2ERKNSt7__cxx1112basic_stringIcSt11char_traitsIcESaIcEEEPKNS_7OptionsEPNS_10TableCacheEPKNS_21InternalKeyComparatorE
FNDA:0,_ZN7leveldb7Version20LevelFileNumIterator4PrevEv
FNDA:19116755,_ZN7leveldb7Version5UnrefEv
FNDA:0,_ZN7leveldb7Version20LevelFileNumIterator10SeekToLastEv
FNDA:1986,_ZN7leveldb10VersionSet7BuilderD2Ev
FNDA:1004,_ZN7leveldb10VersionSet11LogAndApplyEPNS_11VersionEditEPNS_4port5MutexE
FNDA:2098,_ZN7leveldb7Version12AddIteratorsERKNS_11ReadOptionsEPSt6vectorIPNS_8IteratorESaIS6_EE
FNDA:237,_ZNK7leveldb10VersionSet7Builder13BySmallestKeyclEPNS_12FileMetaDataES4_
FNDA:0,_ZN7leveldbL10BeforeFileEPKNS_10ComparatorEPKNS_5SliceEPKNS_12FileMetaDataE
FNDA:712,_ZN7leveldb10VersionSet7Builder12MaybeAddFileEPNS_7VersionEiPNS_12FileMetaDataE
FNDA:22,_ZN7leveldb10VersionSet17MakeInputIteratorEPNS_10CompactionE
FNDA:22,_ZN7leveldb10VersionSet16SetupOtherInputsEPNS_10CompactionE
FNDA:22,_ZN7leveldb10CompactionD2Ev
FNDA:10085,_ZN7leveldbL11NewestFirstEPNS_12FileMetaDataES1_
FNDA:82,_ZNK7leveldb7Version20LevelFileNumIterator5ValidEv
FNDA:0,_ZN7leveldb10VersionSet19ApproximateOffsetOfEPNS_7VersionERKNS_11InternalKeyE
FNDA:22,_ZN7leveldb10VersionSet9GetRange2ERKSt6vectorIPNS_12FileMetaDataESaIS3_EES7_PNS_11InternalKeyES9_
FNDA:0,_ZN7leveldb7Version26PickLevelForMemTableOutputERKNS_5SliceES3_
FNDA:198432,_ZN7leveldbL9SaveValueEPvRKNS_5SliceES3_
FNF:68
FNH:55
DA:34,9930
DA:37,9930
DA:38,29790
DA:39,19860
DA:40,19860
DA:42,9930
DA:45,22
DA:46,22
DA:49,9936
DA:50,9936
DA:51,10000
DA:52,64
DA:54,9936
DA:57,31600
DA:58,3950
DA:61,3950
DA:62,3950
DA:65,31600
DA:66,28278
DA:67,628
DA:68,628
DA:69,628
DA:70,628
DA:71,504
DA:75,35550
DA:77,5043
DA:80,5043
DA:81,5043
DA:82,10086
DA:83,5043
DA:84,5043
DA:85,5043
DA:88,1501
DA:95,5043
DA:98,0
DA:101,0
DA:102,0
DA:105,0
DA:108,0
DA:109,0
DA:112,0
DA:118,0
DA:119,0
DA:121,0
DA:122,0
DA:123,0
DA:124,0
DA:134,0
DA:135,0
DA:137,0
DA:138,0
DA:139,0
DA:141,0
DA:146,0
DA:156,22
DA:158,44
DA:159,22
DA:160,22
DA:161,22
DA:162,82
DA:163,82
DA:165,20
DA:166,20
DA:167,20
DA:168,2
DA:169,0
DA:170,0
DA:171,0
DA:172,4
DA:173,4
DA:174,4
DA:175,4
DA:176,0
DA:177,0
DA:178,0
DA:179,0
DA:181,0
DA:183,0
DA:184,15
DA:185,15
DA:186,15
DA:188,15
DA:189,15
DA:190,15
DA:191,15
DA:192,15
DA:194,4
DA:204,15
DA:207,15
DA:208,15
DA:209,0
DA:210,0
DA:212,15
DA:214,15
DA:218,20
DA:220,20
DA:221,20
DA:222,40
DA:225,2098
DA:228,2493
DA:229,790
DA:230,395
DA:231,395
DA:237,14686
DA:238,12588
DA:239,20
DA:242,2098
DA:252,15626116
DA:259,198432
DA:260,198432
DA:261,198432
DA:262,198432
DA:263,0
DA:265,198432
DA:266,49533
DA:267,49533
DA:268,49145
DA:272,198432
DA:274,10085
DA:275,10085
DA:278,176
DA:282,176
DA:285,176
DA:286,176
DA:287,388
DA:288,212
DA:289,390
DA:290,212
DA:291,178
DA:294,176
DA:295,167
DA:296,334
DA:297,178
DA:304,1155
DA:305,990
DA:306,990
DA:309,9
DA:310,9
DA:311,9
DA:312,9
DA:315,9
DA:321,176
DA:323,19109336
DA:327,19109336
DA:328,19109336
DA:329,19109336
DA:330,19109336
DA:332,19109336
DA:333,19109336
DA:334,19109336
DA:335,19109336
DA:340,19109336
DA:341,19109336
DA:342,152530313
DA:343,133470510
DA:344,133470510
DA:347,15824342
DA:348,15824342
DA:351,15819328
DA:352,31661638
DA:353,15842310
DA:354,31684250
DA:355,16059527
DA:356,15624723
DA:359,15819328
DA:361,15619649
DA:362,15619649
DA:363,15619649
DA:366,5014
DA:367,5014
DA:371,3520
DA:372,3520
DA:377,3520
DA:378,3520
DA:383,31201246
DA:384,15626116
DA:386,2947
DA:387,2947
DA:390,15626116
DA:391,15626116
DA:392,15626116
DA:394,15626116
DA:395,15626116
DA:396,15626116
DA:397,15626116
DA:398,15626116
DA:399,15626116
DA:401,15626116
DA:402,0
DA:404,15626116
DA:407,49145
DA:408,49145
DA:409,388
DA:410,388
DA:411,388
DA:412,0
DA:413,0
DA:414,49533
DA:419,19059803
DA:420,19109724
DA:422,19109347
DA:423,19109347
DA:424,19109347
DA:425,2958
DA:426,2958
DA:427,14
DA:428,14
DA:429,14
DA:435,176
DA:436,176
DA:437,176
DA:441,176
DA:445,187
DA:446,187
DA:447,187
DA:448,187
DA:450,176
DA:451,176
DA:454,187
DA:458,176
DA:459,176
DA:460,176
DA:466,176
DA:468,11
DA:473,19116755
DA:474,19116755
DA:475,19116755
DA:477,19116755
DA:478,19116755
DA:479,19116755
DA:480,19116755
DA:481,19116755
DA:482,2968
DA:484,19116755
DA:486,0
DA:489,0
DA:490,0
DA:493,0
DA:496,0
DA:497,0
DA:500,0
DA:501,0
DA:502,0
DA:503,0
DA:504,0
DA:507,0
DA:509,0
DA:510,0
DA:511,0
DA:517,0
DA:518,0
DA:522,68
DA:527,68
DA:528,68
DA:529,68
DA:530,68
DA:531,68
DA:532,68
DA:534,68
DA:535,68
DA:537,68
DA:538,166
DA:539,98
DA:540,98
DA:541,98
DA:542,98
DA:544,98
DA:547,98
DA:548,98
DA:551,96
DA:552,0
DA:553,0
DA:555,96
DA:556,9
DA:557,107
DA:563,68
DA:565,0
DA:566,0
DA:567,0
DA:572,0
DA:573,0
DA:574,0
DA:576,0
DA:577,0
DA:578,0
DA:579,0
DA:580,0
DA:581,0
DA:582,0
DA:583,0
DA:584,0
DA:585,0
DA:588,0
DA:589,0
DA:600,237
DA:601,237
DA:602,237
DA:603,233
DA:606,4
DA:612,27804
DA:623,1986
DA:624,1986
DA:625,15888
DA:626,1986
DA:627,1986
DA:628,1986
DA:629,15888
DA:630,13902
DA:632,1986
DA:634,15888
DA:635,15888
DA:636,13902
DA:637,13902
DA:638,13902
DA:639,14424
DA:640,14424
DA:641,522
DA:643,27804
DA:644,14424
DA:645,522
DA:646,522
DA:647,522
DA:648,18
DA:651,13902
DA:652,1986
DA:653,17874
DA:656,2348
DA:658,2384
DA:659,36
DA:660,72
DA:661,53
DA:665,2348
DA:666,2432
DA:667,2432
DA:668,2432
DA:669,84
DA:670,84
DA:671,84
DA:675,2870
DA:676,522
DA:677,522
DA:678,522
DA:693,522
DA:694,522
DA:696,522
DA:697,522
DA:699,2348
DA:702,1986
DA:703,1986
DA:704,1986
DA:705,15888
DA:708,13902
DA:709,13902
DA:710,13902
DA:711,13902
DA:712,13902
DA:713,14424
DA:714,14424
DA:715,14424
DA:717,564
DA:718,522
DA:719,564
DA:720,564
DA:721,42
DA:724,522
DA:728,14050
DA:729,148
DA:734,13902
DA:735,11916
DA:736,0
DA:737,0
DA:738,0
DA:739,0
DA:740,0
DA:741,0
DA:742,0
DA:748,1986
DA:750,712
DA:751,796
DA:754,628
DA:755,628
DA:757,0
DA:760,628
DA:761,628
DA:763,712
DA:766,982
DA:769,982
DA:770,982
DA:771,982
DA:772,982
DA:773,982
DA:774,982
DA:775,982
DA:776,982
DA:777,982
DA:778,982
DA:779,982
DA:780,982
DA:781,982
DA:782,982
DA:783,7856
DA:784,982
DA:785,982
DA:787,8838
DA:788,982
DA:789,982
DA:790,982
DA:791,982
DA:792,10802
DA:794,2968
DA:796,2968
DA:797,2968
DA:798,2968
DA:799,1986
DA:801,2968
DA:802,2968
DA:805,2968
DA:806,2968
DA:807,2968
DA:808,2968
DA:809,2968
DA:811,1004
DA:812,1004
DA:813,982
DA:814,982
DA:816,22
DA:819,1004
DA:820,1004
DA:823,1004
DA:824,1004
DA:826,1004
DA:827,1004
DA:828,1004
DA:829,1004
DA:830,1004
DA:831,1004
DA:832,1004
DA:836,1004
DA:837,1004
DA:838,1004
DA:841,982
DA:842,982
DA:843,982
DA:844,982
DA:845,982
DA:846,982
DA:847,1964
DA:852,1004
DA:853,1004
DA:856,1004
DA:857,1004
DA:858,1004
DA:859,1004
DA:860,1004
DA:861,2008
DA:863,1004
DA:864,0
DA:866,1004
DA:870,1004
DA:871,1964
DA:874,1004
DA:878,1004
DA:879,1004
DA:880,1004
DA:881,1004
DA:883,0
DA:884,0
DA:885,0
DA:886,0
DA:887,0
DA:888,0
DA:889,0
DA:893,1004
DA:894,1004
DA:896,982
DA:897,0
DA:899,0
DA:900,0
DA:901,0
DA:905,982
DA:906,982
DA:907,982
DA:908,0
DA:910,982
DA:911,0
DA:913,982
DA:915,982
DA:916,982
DA:917,982
DA:918,982
DA:919,982
DA:922,982
DA:923,982
DA:924,982
DA:925,982
DA:926,982
DA:927,982
DA:928,982
DA:929,982
DA:930,982
DA:932,982
DA:933,982
DA:934,982
DA:935,982
DA:936,982
DA:937,982
DA:938,2326
DA:939,1344
DA:940,1344
DA:941,1344
DA:942,1344
DA:943,982
DA:944,0
DA:945,0
DA:946,0
DA:950,1344
DA:951,1344
DA:954,1344
DA:955,986
DA:956,986
DA:959,1344
DA:960,362
DA:961,362
DA:964,1344
DA:965,986
DA:966,986
DA:969,1344
DA:970,986
DA:971,986
DA:973,1344
DA:974,982
DA:975,982
DA:976,982
DA:978,982
DA:979,982
DA:980,0
DA:981,982
DA:982,0
DA:983,982
DA:984,0
DA:987,982
DA:988,624
DA:991,982
DA:992,982
DA:995,982
DA:996,982
DA:997,982
DA:999,982
DA:1000,982
DA:1001,982
DA:1002,982
DA:1003,982
DA:1004,982
DA:1005,982
DA:1008,982
DA:1009,2946
DA:1011,2322
DA:1012,2322
DA:1013,358
DA:1015,2322
DA:1017,1986
DA:1019,1986
DA:1020,1986
DA:1022,13902
DA:1023,11916
DA:1024,11916
DA:1036,1986
DA:1040,9930
DA:1041,9930
DA:1044,11916
DA:1045,2012
DA:1046,2012
DA:1050,1986
DA:1051,1986
DA:1052,1986
DA:1054,982
DA:1058,982
DA:1059,982
DA:1062,7856
DA:1063,6874
DA:1064,12
DA:1065,12
DA:1066,12
DA:1067,12
DA:1071,7856
DA:1072,6874
DA:1073,6998
DA:1074,124
DA:1075,124
DA:1079,982
DA:1080,982
DA:1081,1964
DA:1082,982
DA:1084,10794
DA:1085,10794
DA:1086,10794
DA:1087,10794
DA:1090,22
DA:1092,22
DA:1093,22
DA:1095,22
DA:1096,22
DA:1097,22
DA:1098,22
DA:1099,22
DA:1100,22
DA:1101,22
DA:1102,22
DA:1105,0
DA:1106,0
DA:1107,0
DA:1109,0
DA:1110,0
DA:1112,0
DA:1113,0
DA:1115,0
DA:1124,0
DA:1125,0
DA:1126,0
DA:1127,0
DA:1128,0
DA:1130,0
DA:1134,0
DA:1137,1986
DA:1138,1986
DA:1139,3972
DA:1140,1986
DA:1141,15888
DA:1143,14530
DA:1144,628
DA:1148,1986
DA:1150,0
DA:1151,0
DA:1152,0
DA:1153,0
DA:1156,0
DA:1157,0
DA:1158,0
DA:1159,0
DA:1160,0
DA:1161,0
DA:1162,0
DA:1164,0
DA:1165,0
DA:1170,0
DA:1171,0
DA:1176,66
DA:1179,66
DA:1180,66
DA:1181,66
DA:1182,218
DA:1183,152
DA:1184,152
DA:1185,66
DA:1186,66
DA:1188,86
DA:1189,1
DA:1191,86
DA:1192,188
DA:1196,66
DA:1201,22
DA:1205,22
DA:1206,22
DA:1207,22
DA:1208,22
DA:1210,22
DA:1211,22
DA:1212,22
DA:1213,22
DA:1218,22
DA:1219,22
DA:1221,66
DA:1222,44
DA:1223,24
DA:1225,86
DA:1226,64
DA:1227,64
DA:1231,2
DA:1232,2
DA:1233,2
DA:1237,22
DA:1238,22
DA:1239,22
DA:1240,22
DA:1243,22
DA:1244,22
DA:1245,22
DA:1249,22
DA:1250,22
DA:1251,22
DA:1252,8
DA:1253,8
DA:1254,8
DA:1255,8
DA:1258,16
DA:1259,14
DA:1260,22
DA:1261,16
DA:1262,6
DA:1263,6
DA:1266,8
DA:1268,2
DA:1270,14
DA:1271,14
DA:1272,14
DA:1273,14
DA:1278,22
DA:1279,22
DA:1282,22
DA:1283,22
DA:1284,22
DA:1288,22
DA:1289,22
DA:1290,28
DA:1292,22
DA:1294,22
DA:1297,22
DA:1298,22
DA:1299,22
DA:1300,22
DA:1302,22
DA:1305,22
DA:1306,22
DA:1310,22
DA:1311,2
DA:1312,2
DA:1313,2
DA:1314,2
DA:1315,2
DA:1316,2
DA:1317,0
DA:1318,0
DA:1319,0
DA:1320,0
DA:1321,0
DA:1323,0
DA:1324,0
DA:1327,0
DA:1328,0
DA:1330,0
DA:1331,0
DA:1333,0
DA:1334,0
DA:1335,0
DA:1336,0
DA:1337,0
DA:1339,0
DA:1340,2
DA:1344,22
DA:1345,22
DA:1349,22
DA:1360,22
DA:1361,22
DA:1362,52
DA:1364,0
DA:1368,0
DA:1369,0
DA:1370,0
DA:1378,0
DA:1379,0
DA:1380,0
DA:1381,0
DA:1382,0
DA:1383,0
DA:1384,0
DA:1385,0
DA:1391,0
DA:1392,0
DA:1393,0
DA:1394,0
DA:1395,0
DA:1397,0
DA:1399,22
DA:1400,22
DA:1401,22
DA:1402,22
DA:1403,22
DA:1404,22
DA:1405,66
DA:1406,176
DA:1407,154
DA:1409,22
DA:1411,44
DA:1412,22
DA:1413,0
DA:1415,110
DA:1417,22
DA:1421,22
DA:1422,22
DA:1423,0
DA:1426,22
DA:1427,66
DA:1428,110
DA:1429,66
DA:1432,22
DA:1434,26
DA:1436,26
DA:1437,156
DA:1438,130
DA:1439,130
DA:1440,0
DA:1441,0
DA:1443,0
DA:1449,0
DA:1455,5833
DA:1457,5833
DA:1458,5833
DA:1459,0
DA:1460,0
DA:1461,0
DA:1462,0
DA:1464,0
DA:1466,5833
DA:1468,5833
DA:1470,0
DA:1471,0
DA:1477,22
DA:1478,22
DA:1479,22
DA:1480,22
DA:1482,22
LF:821
LH:643
end_of_record
TN:
SF:/home/apetrini/dev/src/zen/src/leveldb/db/version_set.h
FN:150,_ZN7leveldb7VersionC2EPNS_10VersionSetE
FN:212,_ZN7leveldb10VersionSet15SetLastSequenceEm
FNDA:3950,_ZN7leveldb7VersionC2EPNS_10VersionSetE
FNDA:11130,_ZN7leveldb10VersionSet15SetLastSequenceEm
FNF:2
FNH:2
DA:150,3950
DA:151,3950
DA:152,3950
DA:153,3950
DA:154,3950
DA:155,31600
DA:156,3950
DA:185,19114053
DA:188,1986
DA:191,1362
DA:196,0
DA:197,0
DA:198,0
DA:209,19123555
DA:212,11130
DA:213,11130
DA:214,11130
DA:215,11130
DA:221,2344
DA:225,1340
DA:251,1018
DA:252,1018
DA:253,1018
DA:328,156
DA:332,66
DA:335,176
DA:338,66
DA:341,5672
LF:28
LH:25
end_of_record
TN:
SF:/home/apetrini/dev/src/zen/src/leveldb/db/write_batch.cc
FN:29,_ZN7leveldb10WriteBatchC2Ev
FN:33,_ZN7leveldb10WriteBatchD2Ev
FN:35,_ZN7leveldb10WriteBatch7HandlerD2Ev
FN:35,_ZN7leveldb10WriteBatch7HandlerD0Ev
FN:37,_ZN7leveldb10WriteBatch5ClearEv
FN:42,_ZNK7leveldb10WriteBatch7IterateEPNS0_7HandlerE
FN:82,_ZN7leveldb18WriteBatchInternal5CountEPKNS_10WriteBatchE
FN:86,_ZN7leveldb18WriteBatchInternal8SetCountEPNS_10WriteBatchEi
FN:90,_ZN7leveldb18WriteBatchInternal8SequenceEPKNS_10WriteBatchE
FN:94,_ZN7leveldb18WriteBatchInternal11SetSequenceEPNS_10WriteBatchEm
FN:98,_ZN7leveldb10WriteBatch3PutERKNS_5SliceES3_
FN:105,_ZN7leveldb10WriteBatch6DeleteERKNS_5SliceE
FN:117,_ZN7leveldb12_GLOBAL__N_116MemTableInserter3PutERKNS_5SliceES4_
FN:121,_ZN7leveldb12_GLOBAL__N_116MemTableInserter6DeleteERKNS_5SliceE
FN:128,_ZN7leveldb18WriteBatchInternal10InsertIntoEPKNS_10WriteBatchEPNS_8MemTableE
FN:136,_ZN7leveldb18WriteBatchInternal11SetContentsEPNS_10WriteBatchERKNS_5SliceE
FN:141,_ZN7leveldb18WriteBatchInternal6AppendEPNS_10WriteBatchEPKS1_
FNDA:2178,_ZN7leveldb12_GLOBAL__N_116MemTableInserter6DeleteERKNS_5SliceE
FNDA:246803,_ZN7leveldb18WriteBatchInternal8SetCountEPNS_10WriteBatchEi
FNDA:10772,_ZN7leveldb18WriteBatchInternal11SetSequenceEPNS_10WriteBatchEm
FNDA:12112,_ZN7leveldb10WriteBatchD2Ev
FNDA:12112,_ZN7leveldb10WriteBatchC2Ev
FNDA:1043,_ZN7leveldb18WriteBatchInternal11SetContentsEPNS_10WriteBatchERKNS_5SliceE
FNDA:11815,_ZN7leveldb18WriteBatchInternal10InsertIntoEPKNS_10WriteBatchEPNS_8MemTableE
FNDA:12112,_ZN7leveldb10WriteBatch5ClearEv
FNDA:11815,_ZN7leveldb10WriteBatch7HandlerD2Ev
FNDA:270433,_ZN7leveldb18WriteBatchInternal5CountEPKNS_10WriteBatchE
FNDA:12858,_ZN7leveldb18WriteBatchInternal8SequenceEPKNS_10WriteBatchE
FNDA:0,_ZN7leveldb10WriteBatch7HandlerD0Ev
FNDA:1977,_ZN7leveldb10WriteBatch6DeleteERKNS_5SliceE
FNDA:346543,_ZN7leveldb12_GLOBAL__N_116MemTableInserter3PutERKNS_5SliceES4_
FNDA:0,_ZN7leveldb18WriteBatchInternal6AppendEPNS_10WriteBatchEPKS1_
FNDA:244826,_ZN7leveldb10WriteBatch3PutERKNS_5SliceES3_
FNDA:11815,_ZNK7leveldb10WriteBatch7IterateEPNS0_7HandlerE
FNF:17
FNH:15
DA:29,12112
DA:30,12112
DA:31,12112
DA:33,12112
DA:35,11815
DA:37,12112
DA:38,12112
DA:39,12112
DA:40,12112
DA:42,11815
DA:43,11815
DA:44,11815
DA:45,0
DA:48,11815
DA:49,11815
DA:50,11815
DA:51,360536
DA:52,348721
DA:53,348721
DA:54,348721
DA:55,348721
DA:56,346543
DA:57,693086
DA:58,346543
DA:59,346543
DA:61,0
DA:64,2178
DA:65,2178
DA:66,2178
DA:68,0
DA:71,0
DA:72,0
DA:75,11815
DA:76,0
DA:78,11815
DA:82,270433
DA:83,270433
DA:86,246803
DA:87,246803
DA:88,246803
DA:90,12858
DA:91,12858
DA:94,10772
DA:95,10772
DA:96,10772
DA:98,244826
DA:99,244826
DA:100,244826
DA:101,244826
DA:102,244826
DA:103,244826
DA:105,1977
DA:106,1977
DA:107,1977
DA:108,1977
DA:109,1977
DA:112,11815
DA:117,346543
DA:118,346543
DA:119,346543
DA:120,346543
DA:121,2178
DA:122,2178
DA:123,2178
DA:124,2178
DA:128,11815
DA:130,11815
DA:131,11815
DA:132,11815
DA:133,11815
DA:134,11815
DA:136,1043
DA:137,1043
DA:138,1043
DA:139,1043
DA:141,0
DA:142,0
DA:143,0
DA:144,0
DA:145,0
LF:80
LH:69
end_of_record
TN:
SF:/home/apetrini/dev/src/zen/src/leveldb/db/write_batch_internal.h
FNF:0
FNH:0
DA:31,10772
DA:32,10772
DA:35,10772
DA:36,10772
LF:4
LH:4
end_of_record
TN:
SF:/home/apetrini/dev/src/zen/src/leveldb/helpers/memenv/memenv.cc
FN:27,_ZN7leveldb12_GLOBAL__N_19FileState3RefEv
FN:33,_ZN7leveldb12_GLOBAL__N_19FileState5UnrefEv
FN:52,_ZNK7leveldb12_GLOBAL__N_19FileState4ReadEmmPNS_5SliceEPc
FN:95,_ZN7leveldb12_GLOBAL__N_19FileState6AppendERKNS_5SliceE
FN:126,_ZN7leveldb12_GLOBAL__N_19FileStateD2Ev
FN:151,_ZN7leveldb12_GLOBAL__N_118SequentialFileImplC2EPNS0_9FileStateE
FN:155,_ZN7leveldb12_GLOBAL__N_118SequentialFileImplD0Ev
FN:155,_ZN7leveldb12_GLOBAL__N_118SequentialFileImplD2Ev
FN:159,_ZN7leveldb12_GLOBAL__N_118SequentialFileImpl4ReadEmPNS_5SliceEPc
FN:167,_ZN7leveldb12_GLOBAL__N_118SequentialFileImpl4SkipEm
FN:186,_ZN7leveldb12_GLOBAL__N_120RandomAccessFileImplC2EPNS0_9FileStateE
FN:190,_ZN7leveldb12_GLOBAL__N_120RandomAccessFileImplD0Ev
FN:190,_ZN7leveldb12_GLOBAL__N_120RandomAccessFileImplD2Ev
FN:194,_ZNK7leveldb12_GLOBAL__N_120RandomAccessFileImpl4ReadEmmPNS_5SliceEPc
FN:205,_ZN7leveldb12_GLOBAL__N_116WritableFileImplC2EPNS0_9FileStateE
FN:209,_ZN7leveldb12_GLOBAL__N_116WritableFileImplD2Ev
FN:209,_ZN7leveldb12_GLOBAL__N_116WritableFileImplD0Ev
FN:213,_ZN7leveldb12_GLOBAL__N_116WritableFileImpl6AppendERKNS_5SliceE
FN:217,_ZN7leveldb12_GLOBAL__N_116WritableFileImpl5CloseEv
FN:218,_ZN7leveldb12_GLOBAL__N_116WritableFileImpl5FlushEv
FN:219,_ZN7leveldb12_GLOBAL__N_116WritableFileImpl4SyncEv
FN:227,_ZN7leveldb12_GLOBAL__N_110NoOpLogger4LogvEPKcP13__va_list_tag
FN:232,_ZN7leveldb12_GLOBAL__N_111InMemoryEnvC2EPNS_3EnvE
FN:234,_ZN7leveldb12_GLOBAL__N_111InMemoryEnvD0Ev
FN:234,_ZN7leveldb12_GLOBAL__N_111InMemoryEnvD2Ev
FN:241,_ZN7leveldb12_GLOBAL__N_111InMemoryEnv17NewSequentialFileERKNSt7__cxx1112basic_stringIcSt11char_traitsIcESaIcEEEPPNS_14SequentialFileE
FN:253,_ZN7leveldb12_GLOBAL__N_111InMemoryEnv19NewRandomAccessFileERKNSt7__cxx1112basic_stringIcSt11char_traitsIcESaIcEEEPPNS_16RandomAccessFileE
FN:265,_ZN7leveldb12_GLOBAL__N_111InMemoryEnv15NewWritableFileERKNSt7__cxx1112basic_stringIcSt11char_traitsIcESaIcEEEPPNS_12WritableFileE
FN:280,_ZN7leveldb12_GLOBAL__N_111InMemoryEnv10FileExistsERKNSt7__cxx1112basic_stringIcSt11char_traitsIcESaIcEEE
FN:285,_ZN7leveldb12_GLOBAL__N_111InMemoryEnv11GetChildrenERKNSt7__cxx1112basic_stringIcSt11char_traitsIcESaIcEEEPSt6vectorIS7_SaIS7_EE
FN:302,_ZN7leveldb12_GLOBAL__N_111InMemoryEnv18DeleteFileInternalERKNSt7__cxx1112basic_stringIcSt11char_traitsIcESaIcEEE
FN:311,_ZN7leveldb12_GLOBAL__N_111InMemoryEnv10DeleteFileERKNSt7__cxx1112basic_stringIcSt11char_traitsIcESaIcEEE
FN:321,_ZN7leveldb12_GLOBAL__N_111InMemoryEnv9CreateDirERKNSt7__cxx1112basic_stringIcSt11char_traitsIcESaIcEEE
FN:325,_ZN7leveldb12_GLOBAL__N_111InMemoryEnv9DeleteDirERKNSt7__cxx1112basic_stringIcSt11char_traitsIcESaIcEEE
FN:329,_ZN7leveldb12_GLOBAL__N_111InMemoryEnv11GetFileSizeERKNSt7__cxx1112basic_stringIcSt11char_traitsIcESaIcEEEPm
FN:339,_ZN7leveldb12_GLOBAL__N_111InMemoryEnv10RenameFileERKNSt7__cxx1112basic_stringIcSt11char_traitsIcESaIcEEES9_
FN:352,_ZN7leveldb12_GLOBAL__N_111InMemoryEnv8LockFileERKNSt7__cxx1112basic_stringIcSt11char_traitsIcESaIcEEEPPNS_8FileLockE
FN:357,_ZN7leveldb12_GLOBAL__N_111InMemoryEnv10UnlockFileEPNS_8FileLockE
FN:362,_ZN7leveldb12_GLOBAL__N_111InMemoryEnv16GetTestDirectoryEPNSt7__cxx1112basic_stringIcSt11char_traitsIcESaIcEEE
FN:367,_ZN7leveldb12_GLOBAL__N_111InMemoryEnv9NewLoggerERKNSt7__cxx1112basic_stringIcSt11char_traitsIcESaIcEEEPPNS_6LoggerE
FN:381,_ZN7leveldb9NewMemEnvEPNS_3EnvE
FNDA:0,_ZN7leveldb12_GLOBAL__N_118SequentialFileImplD2Ev
FNDA:0,_ZN7leveldb12_GLOBAL__N_116WritableFileImplC2EPNS0_9FileStateE
FNDA:0,_ZN7leveldb12_GLOBAL__N_111InMemoryEnv8LockFileERKNSt7__cxx1112basic_stringIcSt11char_traitsIcESaIcEEEPPNS_8FileLockE
FNDA:0,_ZNK7leveldb12_GLOBAL__N_120RandomAccessFileImpl4ReadEmmPNS_5SliceEPc
FNDA:0,_ZN7leveldb12_GLOBAL__N_111InMemoryEnvC2EPNS_3EnvE
FNDA:0,_ZN7leveldb12_GLOBAL__N_111InMemoryEnv9CreateDirERKNSt7__cxx1112basic_stringIcSt11char_traitsIcESaIcEEE
FNDA:0,_ZN7leveldb12_GLOBAL__N_116WritableFileImplD0Ev
FNDA:0,_ZN7leveldb12_GLOBAL__N_111InMemoryEnvD2Ev
FNDA:0,_ZN7leveldb12_GLOBAL__N_118SequentialFileImpl4SkipEm
FNDA:0,_ZN7leveldb12_GLOBAL__N_111InMemoryEnv9NewLoggerERKNSt7__cxx1112basic_stringIcSt11char_traitsIcESaIcEEEPPNS_6LoggerE
FNDA:0,_ZN7leveldb12_GLOBAL__N_111InMemoryEnv10RenameFileERKNSt7__cxx1112basic_stringIcSt11char_traitsIcESaIcEEES9_
FNDA:0,_ZN7leveldb12_GLOBAL__N_19FileState3RefEv
FNDA:0,_ZN7leveldb12_GLOBAL__N_111InMemoryEnv10FileExistsERKNSt7__cxx1112basic_stringIcSt11char_traitsIcESaIcEEE
FNDA:0,_ZN7leveldb12_GLOBAL__N_111InMemoryEnv16GetTestDirectoryEPNSt7__cxx1112basic_stringIcSt11char_traitsIcESaIcEEE
FNDA:0,_ZN7leveldb12_GLOBAL__N_110NoOpLogger4LogvEPKcP13__va_list_tag
FNDA:0,_ZN7leveldb12_GLOBAL__N_116WritableFileImpl5FlushEv
FNDA:0,_ZN7leveldb12_GLOBAL__N_111InMemoryEnvD0Ev
FNDA:0,_ZN7leveldb12_GLOBAL__N_118SequentialFileImplC2EPNS0_9FileStateE
FNDA:0,_ZN7leveldb12_GLOBAL__N_111InMemoryEnv11GetChildrenERKNSt7__cxx1112basic_stringIcSt11char_traitsIcESaIcEEEPSt6vectorIS7_SaIS7_EE
FNDA:0,_ZN7leveldb12_GLOBAL__N_120RandomAccessFileImplD2Ev
FNDA:0,_ZN7leveldb9NewMemEnvEPNS_3EnvE
FNDA:0,_ZN7leveldb12_GLOBAL__N_111InMemoryEnv11GetFileSizeERKNSt7__cxx1112basic_stringIcSt11char_traitsIcESaIcEEEPm
FNDA:0,_ZN7leveldb12_GLOBAL__N_111InMemoryEnv17NewSequentialFileERKNSt7__cxx1112basic_stringIcSt11char_traitsIcESaIcEEEPPNS_14SequentialFileE
FNDA:0,_ZN7leveldb12_GLOBAL__N_111InMemoryEnv10DeleteFileERKNSt7__cxx1112basic_stringIcSt11char_traitsIcESaIcEEE
FNDA:0,_ZN7leveldb12_GLOBAL__N_111InMemoryEnv15NewWritableFileERKNSt7__cxx1112basic_stringIcSt11char_traitsIcESaIcEEEPPNS_12WritableFileE
FNDA:0,_ZN7leveldb12_GLOBAL__N_116WritableFileImpl4SyncEv
FNDA:0,_ZN7leveldb12_GLOBAL__N_116WritableFileImpl6AppendERKNS_5SliceE
FNDA:0,_ZN7leveldb12_GLOBAL__N_19FileState5UnrefEv
FNDA:0,_ZN7leveldb12_GLOBAL__N_118SequentialFileImplD0Ev
FNDA:0,_ZN7leveldb12_GLOBAL__N_19FileStateD2Ev
FNDA:0,_ZN7leveldb12_GLOBAL__N_116WritableFileImplD2Ev
FNDA:0,_ZN7leveldb12_GLOBAL__N_120RandomAccessFileImplD0Ev
FNDA:0,_ZN7leveldb12_GLOBAL__N_111InMemoryEnv18DeleteFileInternalERKNSt7__cxx1112basic_stringIcSt11char_traitsIcESaIcEEE
FNDA:0,_ZN7leveldb12_GLOBAL__N_111InMemoryEnv19NewRandomAccessFileERKNSt7__cxx1112basic_stringIcSt11char_traitsIcESaIcEEEPPNS_16RandomAccessFileE
FNDA:0,_ZN7leveldb12_GLOBAL__N_120RandomAccessFileImplC2EPNS0_9FileStateE
FNDA:0,_ZN7leveldb12_GLOBAL__N_111InMemoryEnv9DeleteDirERKNSt7__cxx1112basic_stringIcSt11char_traitsIcESaIcEEE
FNDA:0,_ZN7leveldb12_GLOBAL__N_116WritableFileImpl5CloseEv
FNDA:0,_ZN7leveldb12_GLOBAL__N_118SequentialFileImpl4ReadEmPNS_5SliceEPc
FNDA:0,_ZNK7leveldb12_GLOBAL__N_19FileState4ReadEmmPNS_5SliceEPc
FNDA:0,_ZN7leveldb12_GLOBAL__N_111InMemoryEnv10UnlockFileEPNS_8FileLockE
FNDA:0,_ZN7leveldb12_GLOBAL__N_19FileState6AppendERKNS_5SliceE
FNF:41
FNH:0
DA:24,0
DA:27,0
DA:28,0
DA:29,0
DA:30,0
DA:33,0
DA:34,0
DA:36,0
DA:37,0
DA:38,0
DA:39,0
DA:40,0
DA:41,0
DA:43,0
DA:45,0
DA:46,0
DA:48,0
DA:50,0
DA:52,0
DA:53,0
DA:54,0
DA:56,0
DA:57,0
DA:60,0
DA:61,0
DA:62,0
DA:65,0
DA:66,0
DA:67,0
DA:69,0
DA:71,0
DA:72,0
DA:78,0
DA:79,0
DA:80,0
DA:83,0
DA:85,0
DA:86,0
DA:87,0
DA:88,0
DA:91,0
DA:92,0
DA:95,0
DA:96,0
DA:97,0
DA:99,0
DA:100,0
DA:101,0
DA:103,0
DA:105,0
DA:108,0
DA:109,0
DA:112,0
DA:115,0
DA:116,0
DA:117,0
DA:118,0
DA:121,0
DA:126,0
DA:127,0
DA:128,0
DA:129,0
DA:131,0
DA:151,0
DA:152,0
DA:153,0
DA:155,0
DA:156,0
DA:157,0
DA:159,0
DA:160,0
DA:161,0
DA:162,0
DA:164,0
DA:167,0
DA:168,0
DA:169,0
DA:171,0
DA:172,0
DA:175,0
DA:176,0
DA:186,0
DA:187,0
DA:188,0
DA:190,0
DA:191,0
DA:192,0
DA:194,0
DA:196,0
DA:205,0
DA:206,0
DA:207,0
DA:209,0
DA:210,0
DA:211,0
DA:213,0
DA:214,0
DA:217,0
DA:218,0
DA:219,0
DA:225,0
DA:227,0
DA:232,0
DA:234,0
DA:235,0
DA:236,0
DA:238,0
DA:241,0
DA:243,0
DA:244,0
DA:245,0
DA:246,0
DA:249,0
DA:250,0
DA:251,0
DA:253,0
DA:255,0
DA:256,0
DA:257,0
DA:258,0
DA:261,0
DA:262,0
DA:263,0
DA:265,0
DA:267,0
DA:268,0
DA:269,0
DA:272,0
DA:273,0
DA:274,0
DA:276,0
DA:277,0
DA:278,0
DA:280,0
DA:281,0
DA:282,0
DA:283,0
DA:285,0
DA:287,0
DA:288,0
DA:290,0
DA:291,0
DA:293,0
DA:294,0
DA:295,0
DA:299,0
DA:300,0
DA:302,0
DA:303,0
DA:307,0
DA:308,0
DA:311,0
DA:312,0
DA:313,0
DA:314,0
DA:317,0
DA:318,0
DA:319,0
DA:321,0
DA:322,0
DA:325,0
DA:326,0
DA:329,0
DA:330,0
DA:331,0
DA:332,0
DA:335,0
DA:336,0
DA:337,0
DA:339,0
DA:341,0
DA:342,0
DA:343,0
DA:346,0
DA:347,0
DA:348,0
DA:349,0
DA:350,0
DA:352,0
DA:353,0
DA:354,0
DA:357,0
DA:358,0
DA:359,0
DA:362,0
DA:363,0
DA:364,0
DA:367,0
DA:368,0
DA:369,0
DA:381,0
DA:382,0
LF:192
LH:0
end_of_record
TN:
SF:/home/apetrini/dev/src/zen/src/leveldb/include/leveldb/cache.h
FNF:0
FNH:0
DA:34,1964
LF:1
LH:1
end_of_record
TN:
SF:/home/apetrini/dev/src/zen/src/leveldb/include/leveldb/comparator.h
FNF:0
FNH:0
DA:18,5134
LF:1
LH:1
end_of_record
TN:
SF:/home/apetrini/dev/src/zen/src/leveldb/include/leveldb/db.h
FNF:0
FNH:0
DA:27,982
DA:37,0
DA:55,982
LF:3
LH:2
end_of_record
TN:
SF:/home/apetrini/dev/src/zen/src/leveldb/include/leveldb/env.h
FN:283,_ZN7leveldb10EnvWrapper17NewSequentialFileERKNSt7__cxx1112basic_stringIcSt11char_traitsIcESaIcEEEPPNS_14SequentialFileE
FN:286,_ZN7leveldb10EnvWrapper19NewRandomAccessFileERKNSt7__cxx1112basic_stringIcSt11char_traitsIcESaIcEEEPPNS_16RandomAccessFileE
FN:289,_ZN7leveldb10EnvWrapper15NewWritableFileERKNSt7__cxx1112basic_stringIcSt11char_traitsIcESaIcEEEPPNS_12WritableFileE
FN:292,_ZN7leveldb10EnvWrapper10FileExistsERKNSt7__cxx1112basic_stringIcSt11char_traitsIcESaIcEEE
FN:293,_ZN7leveldb10EnvWrapper11GetChildrenERKNSt7__cxx1112basic_stringIcSt11char_traitsIcESaIcEEEPSt6vectorIS6_SaIS6_EE
FN:296,_ZN7leveldb10EnvWrapper10DeleteFileERKNSt7__cxx1112basic_stringIcSt11char_traitsIcESaIcEEE
FN:297,_ZN7leveldb10EnvWrapper9CreateDirERKNSt7__cxx1112basic_stringIcSt11char_traitsIcESaIcEEE
FN:298,_ZN7leveldb10EnvWrapper9DeleteDirERKNSt7__cxx1112basic_stringIcSt11char_traitsIcESaIcEEE
FN:299,_ZN7leveldb10EnvWrapper11GetFileSizeERKNSt7__cxx1112basic_stringIcSt11char_traitsIcESaIcEEEPm
FN:302,_ZN7leveldb10EnvWrapper10RenameFileERKNSt7__cxx1112basic_stringIcSt11char_traitsIcESaIcEEES8_
FN:305,_ZN7leveldb10EnvWrapper8LockFileERKNSt7__cxx1112basic_stringIcSt11char_traitsIcESaIcEEEPPNS_8FileLockE
FN:308,_ZN7leveldb10EnvWrapper10UnlockFileEPNS_8FileLockE
FN:309,_ZN7leveldb10EnvWrapper8ScheduleEPFvPvES1_
FN:312,_ZN7leveldb10EnvWrapper11StartThreadEPFvPvES1_
FN:315,_ZN7leveldb10EnvWrapper16GetTestDirectoryEPNSt7__cxx1112basic_stringIcSt11char_traitsIcESaIcEEE
FN:318,_ZN7leveldb10EnvWrapper9NewLoggerERKNSt7__cxx1112basic_stringIcSt11char_traitsIcESaIcEEEPPNS_6LoggerE
FN:321,_ZN7leveldb10EnvWrapper9NowMicrosEv
FN:324,_ZN7leveldb10EnvWrapper20SleepForMicrosecondsEi
FNDA:0,_ZN7leveldb10EnvWrapper20SleepForMicrosecondsEi
FNDA:0,_ZN7leveldb10EnvWrapper11GetChildrenERKNSt7__cxx1112basic_stringIcSt11char_traitsIcESaIcEEEPSt6vectorIS6_SaIS6_EE
FNDA:0,_ZN7leveldb10EnvWrapper10FileExistsERKNSt7__cxx1112basic_stringIcSt11char_traitsIcESaIcEEE
FNDA:0,_ZN7leveldb10EnvWrapper19NewRandomAccessFileERKNSt7__cxx1112basic_stringIcSt11char_traitsIcESaIcEEEPPNS_16RandomAccessFileE
FNDA:0,_ZN7leveldb10EnvWrapper11GetFileSizeERKNSt7__cxx1112basic_stringIcSt11char_traitsIcESaIcEEEPm
FNDA:0,_ZN7leveldb10EnvWrapper10RenameFileERKNSt7__cxx1112basic_stringIcSt11char_traitsIcESaIcEEES8_
FNDA:0,_ZN7leveldb10EnvWrapper17NewSequentialFileERKNSt7__cxx1112basic_stringIcSt11char_traitsIcESaIcEEEPPNS_14SequentialFileE
FNDA:0,_ZN7leveldb10EnvWrapper15NewWritableFileERKNSt7__cxx1112basic_stringIcSt11char_traitsIcESaIcEEEPPNS_12WritableFileE
FNDA:0,_ZN7leveldb10EnvWrapper9NowMicrosEv
FNDA:0,_ZN7leveldb10EnvWrapper10UnlockFileEPNS_8FileLockE
FNDA:0,_ZN7leveldb10EnvWrapper16GetTestDirectoryEPNSt7__cxx1112basic_stringIcSt11char_traitsIcESaIcEEE
FNDA:0,_ZN7leveldb10EnvWrapper8ScheduleEPFvPvES1_
FNDA:0,_ZN7leveldb10EnvWrapper8LockFileERKNSt7__cxx1112basic_stringIcSt11char_traitsIcESaIcEEEPPNS_8FileLockE
FNDA:0,_ZN7leveldb10EnvWrapper9CreateDirERKNSt7__cxx1112basic_stringIcSt11char_traitsIcESaIcEEE
FNDA:0,_ZN7leveldb10EnvWrapper10DeleteFileERKNSt7__cxx1112basic_stringIcSt11char_traitsIcESaIcEEE
FNDA:0,_ZN7leveldb10EnvWrapper9NewLoggerERKNSt7__cxx1112basic_stringIcSt11char_traitsIcESaIcEEEPPNS_6LoggerE
FNDA:0,_ZN7leveldb10EnvWrapper11StartThreadEPFvPvES1_
FNDA:0,_ZN7leveldb10EnvWrapper9DeleteDirERKNSt7__cxx1112basic_stringIcSt11char_traitsIcESaIcEEE
FNF:18
FNH:0
DA:33,490
DA:157,2322
DA:188,499
DA:214,4574
DA:231,982
DA:247,984
DA:276,0
DA:283,0
DA:284,0
DA:286,0
DA:287,0
DA:289,0
DA:290,0
DA:292,0
DA:293,0
DA:294,0
DA:296,0
DA:297,0
DA:298,0
DA:299,0
DA:300,0
DA:302,0
DA:303,0
DA:305,0
DA:306,0
DA:308,0
DA:309,0
DA:310,0
DA:312,0
DA:313,0
DA:315,0
DA:316,0
DA:318,0
DA:319,0
DA:321,0
DA:322,0
DA:324,0
DA:325,0
DA:326,0
LF:39
LH:6
end_of_record
TN:
SF:/home/apetrini/dev/src/zen/src/leveldb/include/leveldb/filter_policy.h
FNF:0
FNH:0
DA:25,1962
LF:1
LH:1
end_of_record
TN:
SF:/home/apetrini/dev/src/zen/src/leveldb/include/leveldb/options.h
FNF:0
FNH:0
DA:161,2881
DA:162,2881
DA:163,2859
DA:164,2881
DA:188,982
DA:189,982
LF:6
LH:6
end_of_record
TN:
SF:/home/apetrini/dev/src/zen/src/leveldb/include/leveldb/slice.h
FN:50,_ZNK7leveldb5SliceixEm
FN:59,_ZN7leveldb5Slice13remove_prefixEm
FN:66,_ZNK7leveldb5Slice8ToStringB5cxx11Ev
FN:75,_ZNK7leveldb5Slice11starts_withERKS0_
FN:87,_ZN7leveldbeqERKNS_5SliceES2_
FN:96,_ZNK7leveldb5Slice7compareERKS0_
FNDA:906630,_ZNK7leveldb5SliceixEm
FNDA:14886,_ZNK7leveldb5Slice11starts_withERKS0_
FNDA:1096789,_ZN7leveldb5Slice13remove_prefixEm
FNDA:110864540,_ZNK7leveldb5Slice7compareERKS0_
FNDA:15796479,_ZN7leveldbeqERKNS_5SliceES2_
FNDA:4252,_ZNK7leveldb5Slice8ToStringB5cxx11Ev
FNF:6
FNH:6
DA:28,51389402
DA:31,208686506
DA:34,63165158
DA:37,26464
DA:40,88936496
DA:43,357719402
DA:46,408492
DA:50,906630
DA:51,906630
DA:52,906630
DA:56,6837
DA:59,1096789
DA:60,1096789
DA:61,1096789
DA:62,1096789
DA:63,1096789
DA:66,4252
DA:75,14886
DA:76,14886
DA:77,10910
DA:87,15796479
DA:88,15796479
DA:89,15751591
DA:92,15626537
DA:93,15626537
DA:96,110864540
DA:97,110864540
DA:98,110864540
DA:99,110864540
DA:100,556897
DA:101,171723
DA:103,110864540
LF:32
LH:32
end_of_record
TN:
SF:/home/apetrini/dev/src/zen/src/leveldb/include/leveldb/status.h
FN:95,_ZN7leveldb6StatusaSERKS0_
FNDA:66505635,_ZN7leveldb6StatusaSERKS0_
FNF:1
FNH:1
DA:24,101620960
DA:25,120804054
DA:32,16115949
DA:35,19060191
DA:36,19060191
DA:38,0
DA:39,0
DA:44,0
DA:45,0
DA:47,2588
DA:48,2588
DA:52,82525171
DA:55,19060191
DA:58,0
DA:61,0
DA:84,19060191
DA:85,19060191
DA:92,16019341
DA:93,15970196
DA:94,51530
DA:95,66505635
DA:98,66505635
DA:99,19063167
DA:100,19063167
DA:102,66505635
LF:25
LH:19
end_of_record
TN:
SF:/home/apetrini/dev/src/zen/src/leveldb/include/leveldb/table.h
FNF:0
FNH:0
DA:62,499
LF:1
LH:1
end_of_record
TN:
SF:/home/apetrini/dev/src/zen/src/leveldb/include/leveldb/table_builder.h
FN:78,_ZNK7leveldb12TableBuilder2okEv
FNDA:125904,_ZNK7leveldb12TableBuilder2okEv
FNF:1
FNH:1
DA:78,125904
LF:1
LH:1
end_of_record
TN:
SF:/home/apetrini/dev/src/zen/src/leveldb/include/leveldb/write_batch.h
FNF:0
FNH:0
DA:46,11815
LF:1
LH:1
end_of_record
TN:
SF:/home/apetrini/dev/src/zen/src/leveldb/port/atomic_pointer.h
FNF:0
FNH:0
DA:61,31146897
DA:64,31146897
DA:112,351533
DA:113,2322
DA:114,19815054
DA:115,4107
DA:116,30670061
DA:117,30670061
DA:118,30670061
DA:119,30670061
DA:121,476836
DA:122,476836
DA:123,475854
DA:124,982
LF:14
LH:14
end_of_record
TN:
SF:/home/apetrini/dev/src/zen/src/leveldb/port/port_posix.cc
FN:15,_ZN7leveldb4portL11PthreadCallEPKci
FN:22,_ZN7leveldb4port5MutexC2Ev
FN:24,_ZN7leveldb4port5MutexD2Ev
FN:26,_ZN7leveldb4port5Mutex4LockEv
FN:28,_ZN7leveldb4port5Mutex6UnlockEv
FN:30,_ZN7leveldb4port7CondVarC2EPNS0_5MutexE
FN:35,_ZN7leveldb4port7CondVarD2Ev
FN:37,_ZN7leveldb4port7CondVar4WaitEv
FN:41,_ZN7leveldb4port7CondVar6SignalEv
FN:45,_ZN7leveldb4port7CondVar9SignalAllEv
FN:49,_ZN7leveldb4port8InitOnceEPiPFvvE
FNDA:34370,_ZN7leveldb4port5MutexD2Ev
FNDA:139515266,_ZN7leveldb4portL11PthreadCallEPKci
FNDA:22,_ZN7leveldb4port7CondVar9SignalAllEv
FNDA:0,_ZN7leveldb4port7CondVar6SignalEv
FNDA:35350,_ZN7leveldb4port5MutexC2Ev
FNDA:11754,_ZN7leveldb4port7CondVarC2EPNS0_5MutexE
FNDA:69709528,_ZN7leveldb4port5Mutex6UnlockEv
FNDA:69709528,_ZN7leveldb4port5Mutex4LockEv
FNDA:0,_ZN7leveldb4port7CondVar4WaitEv
FNDA:2960,_ZN7leveldb4port8InitOnceEPiPFvvE
FNDA:11754,_ZN7leveldb4port7CondVarD2Ev
FNF:11
FNH:9
DA:15,139515266
DA:16,139515266
DA:17,0
DA:18,0
DA:20,139515266
DA:22,35350
DA:24,34370
DA:26,69709528
DA:28,69709528
DA:30,11754
DA:31,11754
DA:32,11754
DA:33,11754
DA:35,11754
DA:37,0
DA:38,0
DA:39,0
DA:41,0
DA:42,0
DA:43,0
DA:45,22
DA:46,22
DA:47,22
DA:49,2960
DA:50,2960
DA:51,2960
LF:26
LH:18
end_of_record
TN:
SF:/home/apetrini/dev/src/zen/src/leveldb/table/block.cc
FN:18,_ZNK7leveldb5Block11NumRestartsEv
FN:23,_ZN7leveldb5BlockC2ERKNS_13BlockContentsE
FN:40,_ZN7leveldb5BlockD2Ev
FN:53,_ZN7leveldbL11DecodeEntryEPKcS1_PjS2_S2_
FN:99,_ZN7leveldb5Block4Iter15GetRestartPointEj
FN:104,_ZN7leveldb5Block4Iter18SeekToRestartPointEj
FN:115,_ZN7leveldb5Block4IterC2EPKNS_10ComparatorEPKcjj
FN:128,_ZNK7leveldb5Block4Iter5ValidEv
FN:129,_ZNK7leveldb5Block4Iter6statusEv
FN:130,_ZNK7leveldb5Block4Iter3keyEv
FN:134,_ZNK7leveldb5Block4Iter5valueEv
FN:139,_ZN7leveldb5Block4Iter4NextEv
FN:144,_ZN7leveldb5Block4Iter4PrevEv
FN:165,_ZN7leveldb5Block4Iter4SeekERKNS_5SliceE
FN:205,_ZN7leveldb5Block4Iter11SeekToFirstEv
FN:210,_ZN7leveldb5Block4Iter10SeekToLastEv
FN:218,_ZN7leveldb5Block4Iter15CorruptionErrorEv
FN:226,_ZN7leveldb5Block4Iter12ParseNextKeyEv
FN:256,_ZN7leveldb5Block11NewIteratorEPKNS_10ComparatorE
FNDA:16034243,_ZNK7leveldb5Block11NumRestartsEv
FNDA:68547,_ZN7leveldb5Block4Iter4NextEv
FNDA:86149272,_ZN7leveldb5Block4Iter15GetRestartPointEj
FNDA:0,_ZN7leveldb5Block4Iter15CorruptionErrorEv
FNDA:203886,_ZN7leveldb5BlockC2ERKNS_13BlockContentsE
FNDA:0,_ZN7leveldb5Block4Iter4PrevEv
FNDA:4239,_ZN7leveldb5Block4Iter11SeekToFirstEv
FNDA:0,_ZN7leveldb5Block4Iter10SeekToLastEv
FNDA:15830357,_ZN7leveldb5Block4IterC2EPKNS_10ComparatorEPKcjj
FNDA:31008765,_ZN7leveldb5Block4Iter12ParseNextKeyEv
FNDA:15830357,_ZN7leveldb5Block11NewIteratorEPKNS_10ComparatorE
FNDA:267966,_ZNK7leveldb5Block4Iter3keyEv
FNDA:15829977,_ZN7leveldb5Block4Iter18SeekToRestartPointEj
FNDA:15825738,_ZN7leveldb5Block4Iter4SeekERKNS_5SliceE
FNDA:15829272,_ZNK7leveldb5Block4Iter6statusEv
FNDA:203886,_ZN7leveldb5BlockD2Ev
FNDA:32449543,_ZNK7leveldb5Block4Iter5ValidEv
FNDA:70531195,_ZN7leveldbL11DecodeEntryEPKcS1_PjS2_S2_
FNDA:16209196,_ZNK7leveldb5Block4Iter5valueEv
FNF:19
FNH:16
DA:18,16034243
DA:19,16034243
DA:20,16034243
DA:23,203886
DA:24,203886
DA:25,203886
DA:26,203886
DA:27,203886
DA:28,0
DA:30,203886
DA:31,203886
DA:33,0
DA:35,203886
DA:38,203886
DA:40,203886
DA:41,203886
DA:42,0
DA:44,203886
DA:53,70531195
DA:57,70531195
DA:58,70531195
DA:59,70531195
DA:60,70531195
DA:61,70531195
DA:63,70466180
DA:65,65015
DA:66,65015
DA:67,65015
DA:70,70531195
DA:71,0
DA:90,70462726
DA:91,30935854
DA:95,31008765
DA:96,0
DA:99,86149272
DA:100,86149272
DA:101,86149272
DA:104,15829977
DA:105,15829977
DA:106,15829977
DA:110,15829977
DA:111,15829977
DA:112,15829977
DA:115,15830357
DA:119,31660714
DA:120,15830357
DA:121,15830357
DA:122,15830357
DA:123,15830357
DA:124,15830357
DA:125,15830357
DA:126,15830357
DA:128,32449543
DA:129,15829272
DA:130,267966
DA:131,267966
DA:132,267966
DA:134,16209196
DA:135,16209196
DA:136,16209196
DA:139,68547
DA:140,68547
DA:141,68547
DA:142,68547
DA:144,0
DA:145,0
DA:148,0
DA:149,0
DA:150,0
DA:152,0
DA:153,0
DA:154,0
DA:156,0
DA:159,0
DA:160,0
DA:162,0
DA:165,15825738
DA:168,15825738
DA:169,15825738
DA:170,55352610
DA:171,39526872
DA:172,39526872
DA:173,39526872
DA:174,79053744
DA:175,39526872
DA:177,39526872
DA:178,0
DA:179,0
DA:181,39526872
DA:182,39526872
DA:189,24874129
DA:194,15825738
DA:195,30935979
DA:196,30935979
DA:199,30935854
DA:205,4239
DA:206,4239
DA:207,4239
DA:208,4239
DA:210,0
DA:211,0
DA:212,0
DA:215,0
DA:218,0
DA:219,0
DA:220,0
DA:221,0
DA:222,0
DA:223,0
DA:224,0
DA:226,31008765
DA:227,31008765
DA:228,31008765
DA:229,31008765
DA:230,31008765
DA:232,4442
DA:233,4442
DA:234,4442
DA:238,31004323
DA:239,31004323
DA:240,31004323
DA:241,0
DA:242,0
DA:244,31004323
DA:245,31004323
DA:246,31004323
DA:247,31008597
DA:248,30792423
DA:249,4274
DA:256,15830357
DA:257,15830357
DA:258,0
DA:260,15830357
DA:261,15830357
DA:262,0
DA:264,15830357
LF:136
LH:102
end_of_record
TN:
SF:/home/apetrini/dev/src/zen/src/leveldb/table/block.h
FNF:0
FNH:0
DA:24,0
LF:1
LH:0
end_of_record
TN:
SF:/home/apetrini/dev/src/zen/src/leveldb/table/block_builder.cc
FN:39,_ZN7leveldb12BlockBuilderC2EPKNS_7OptionsE
FN:48,_ZN7leveldb12BlockBuilder5ResetEv
FN:57,_ZNK7leveldb12BlockBuilder19CurrentSizeEstimateEv
FN:63,_ZN7leveldb12BlockBuilder6FinishEv
FN:73,_ZN7leveldb12BlockBuilder3AddERKNS_5SliceES3_
FNDA:6101,_ZN7leveldb12BlockBuilder5ResetEv
FNDA:1140,_ZN7leveldb12BlockBuilderC2EPKNS_7OptionsE
FNDA:113311,_ZN7leveldb12BlockBuilder3AddERKNS_5SliceES3_
FNDA:6101,_ZN7leveldb12BlockBuilder6FinishEv
FNDA:107590,_ZNK7leveldb12BlockBuilder19CurrentSizeEstimateEv
FNF:5
FNH:5
DA:39,1140
DA:40,1140
DA:41,1140
DA:42,1140
DA:43,1140
DA:44,1140
DA:45,1140
DA:46,1140
DA:48,6101
DA:49,6101
DA:50,6101
DA:51,6101
DA:52,6101
DA:53,6101
DA:54,6101
DA:55,6101
DA:57,107590
DA:58,107590
DA:59,107590
DA:60,107590
DA:63,6101
DA:65,19886
DA:66,13785
DA:68,6101
DA:69,6101
DA:70,6101
DA:73,113311
DA:74,113311
DA:75,113311
DA:76,113311
DA:77,113311
DA:79,113311
DA:80,113311
DA:82,105627
DA:83,256749
DA:84,151122
DA:88,7684
DA:89,7684
DA:91,113311
DA:94,113311
DA:95,113311
DA:96,113311
DA:99,113311
DA:100,113311
DA:103,113311
DA:104,113311
DA:105,113311
DA:106,113311
DA:107,113311
LF:49
LH:49
end_of_record
TN:
SF:/home/apetrini/dev/src/zen/src/leveldb/table/block_builder.h
FNF:0
FNH:0
DA:38,10313
DA:39,10313
LF:2
LH:2
end_of_record
TN:
SF:/home/apetrini/dev/src/zen/src/leveldb/table/filter_block.cc
FN:18,_ZN7leveldb18FilterBlockBuilderC2EPKNS_12FilterPolicyE
FN:22,_ZN7leveldb18FilterBlockBuilder10StartBlockEm
FN:30,_ZN7leveldb18FilterBlockBuilder6AddKeyERKNS_5SliceE
FN:36,_ZN7leveldb18FilterBlockBuilder6FinishEv
FN:52,_ZN7leveldb18FilterBlockBuilder14GenerateFilterEv
FN:78,_ZN7leveldb17FilterBlockReaderC2EPKNS_12FilterPolicyERKNS_5SliceE
FN:95,_ZN7leveldb17FilterBlockReader11KeyMayMatchEmRKNS_5SliceE
FNDA:10477,_ZN7leveldb18FilterBlockBuilder14GenerateFilterEv
FNDA:15626116,_ZN7leveldb17FilterBlockReader11KeyMayMatchEmRKNS_5SliceE
FNDA:5721,_ZN7leveldb18FilterBlockBuilder10StartBlockEm
FNDA:380,_ZN7leveldb18FilterBlockBuilderC2EPKNS_12FilterPolicyE
FNDA:107590,_ZN7leveldb18FilterBlockBuilder6AddKeyERKNS_5SliceE
FNDA:380,_ZN7leveldb18FilterBlockBuilder6FinishEv
FNDA:499,_ZN7leveldb17FilterBlockReaderC2EPKNS_12FilterPolicyERKNS_5SliceE
FNF:7
FNH:7
DA:18,380
DA:19,380
DA:20,380
DA:22,5721
DA:23,5721
DA:24,5721
DA:25,16078
DA:26,10357
DA:28,5721
DA:30,107590
DA:31,107590
DA:32,107590
DA:33,107590
DA:34,107590
DA:36,380
DA:37,380
DA:38,120
DA:42,380
DA:43,10857
DA:44,10477
DA:47,380
DA:48,380
DA:49,380
DA:52,10477
DA:53,10477
DA:54,10477
DA:56,5136
DA:57,5136
DA:61,5341
DA:62,5341
DA:63,112931
DA:64,107590
DA:65,107590
DA:66,107590
DA:70,5341
DA:71,5341
DA:73,5341
DA:74,5341
DA:75,5341
DA:78,499
DA:79,499
DA:80,499
DA:81,499
DA:82,499
DA:83,499
DA:84,499
DA:85,499
DA:86,499
DA:87,499
DA:88,499
DA:89,499
DA:90,499
DA:91,499
DA:92,499
DA:95,15626116
DA:96,15626116
DA:97,15626116
DA:98,15626116
DA:99,15626116
DA:100,15626116
DA:101,15626116
DA:102,15626116
DA:103,0
DA:105,0
LF:64
LH:62
end_of_record
TN:
SF:/home/apetrini/dev/src/zen/src/leveldb/table/format.cc
FN:15,_ZNK7leveldb11BlockHandle8EncodeToEPNSt7__cxx1112basic_stringIcSt11char_traitsIcESaIcEEE
FN:23,_ZN7leveldb11BlockHandle10DecodeFromEPNS_5SliceE
FN:32,_ZNK7leveldb6Footer8EncodeToEPNSt7__cxx1112basic_stringIcSt11char_traitsIcESaIcEEE
FN:44,_ZN7leveldb6Footer10DecodeFromEPNS_5SliceE
FN:66,_ZN7leveldb9ReadBlockEPNS_16RandomAccessFileERKNS_11ReadOptionsERKNS_11BlockHandleEPNS_13BlockContentsE
FNDA:15830501,_ZN7leveldb11BlockHandle10DecodeFromEPNS_5SliceE
FNDA:380,_ZNK7leveldb6Footer8EncodeToEPNSt7__cxx1112basic_stringIcSt11char_traitsIcESaIcEEE
FNDA:204385,_ZN7leveldb9ReadBlockEPNS_16RandomAccessFileERKNS_11ReadOptionsERKNS_11BlockHandleEPNS_13BlockContentsE
FNDA:499,_ZN7leveldb6Footer10DecodeFromEPNS_5SliceE
FNDA:6481,_ZNK7leveldb11BlockHandle8EncodeToEPNSt7__cxx1112basic_stringIcSt11char_traitsIcESaIcEEE
FNF:5
FNH:5
DA:15,6481
DA:17,6481
DA:18,6481
DA:19,6481
DA:20,6481
DA:21,6481
DA:23,15830501
DA:24,31661002
DA:25,15830501
DA:26,15830501
DA:28,0
DA:32,380
DA:34,380
DA:36,380
DA:37,380
DA:38,380
DA:39,380
DA:40,380
DA:41,380
DA:42,380
DA:44,499
DA:45,499
DA:46,499
DA:47,499
DA:48,499
DA:49,499
DA:50,499
DA:51,0
DA:54,499
DA:55,499
DA:56,998
DA:58,499
DA:60,499
DA:61,499
DA:63,499
DA:64,499
DA:66,204385
DA:70,204385
DA:71,204385
DA:72,204385
DA:76,204385
DA:77,204385
DA:78,204385
DA:79,204385
DA:80,204385
DA:81,0
DA:82,0
DA:84,204385
DA:85,0
DA:86,0
DA:90,204385
DA:91,204385
DA:92,204385
DA:93,204385
DA:94,204385
DA:95,0
DA:96,0
DA:97,204385
DA:101,204385
DA:102,204385
DA:103,204385
DA:107,204385
DA:108,204385
DA:109,204385
DA:110,204385
DA:112,0
DA:113,0
DA:114,0
DA:119,0
DA:120,0
DA:121,0
DA:122,0
DA:123,0
DA:137,0
DA:138,0
DA:139,0
DA:142,204385
DA:143,204385
LF:78
LH:59
end_of_record
TN:
SF:/home/apetrini/dev/src/zen/src/leveldb/table/format.h
FNF:0
FNH:0
DA:27,16033389
DA:28,6481
DA:31,204385
DA:32,6481
DA:49,879
DA:52,499
DA:53,380
DA:56,499
DA:57,499
DA:59,380
DA:60,380
DA:86,204385
DA:101,879
DA:102,15830762
DA:103,15830762
LF:15
LH:15
end_of_record
TN:
SF:/home/apetrini/dev/src/zen/src/leveldb/table/iterator.cc
FN:9,_ZN7leveldb8IteratorC2Ev
FN:14,_ZN7leveldb8IteratorD2Ev
FN:14,_ZN7leveldb8IteratorD0Ev
FN:26,_ZN7leveldb8Iterator15RegisterCleanupEPFvPvS1_ES1_S1_
FN:44,_ZN7leveldb12_GLOBAL__N_113EmptyIteratorC2ERKNS_6StatusE
FN:45,_ZNK7leveldb12_GLOBAL__N_113EmptyIterator5ValidEv
FN:46,_ZN7leveldb12_GLOBAL__N_113EmptyIterator4SeekERKNS_5SliceE
FN:47,_ZN7leveldb12_GLOBAL__N_113EmptyIterator11SeekToFirstEv
FN:48,_ZN7leveldb12_GLOBAL__N_113EmptyIterator10SeekToLastEv
FN:49,_ZN7leveldb12_GLOBAL__N_113EmptyIterator4NextEv
FN:50,_ZN7leveldb12_GLOBAL__N_113EmptyIterator4PrevEv
FN:51,_ZNK7leveldb12_GLOBAL__N_113EmptyIterator3keyEv
FN:52,_ZNK7leveldb12_GLOBAL__N_113EmptyIterator5valueEv
FN:53,_ZNK7leveldb12_GLOBAL__N_113EmptyIterator6statusEv
FN:59,_ZN7leveldb16NewEmptyIteratorEv
FN:63,_ZN7leveldb16NewErrorIteratorERKNS_6StatusE
FNDA:0,_ZNK7leveldb12_GLOBAL__N_113EmptyIterator3keyEv
FNDA:0,_ZN7leveldb8IteratorD0Ev
FNDA:15836179,_ZN7leveldb8IteratorC2Ev
FNDA:0,_ZN7leveldb12_GLOBAL__N_113EmptyIterator4SeekERKNS_5SliceE
FNDA:0,_ZNK7leveldb12_GLOBAL__N_113EmptyIterator5ValidEv
FNDA:0,_ZN7leveldb12_GLOBAL__N_113EmptyIterator11SeekToFirstEv
FNDA:0,_ZN7leveldb16NewErrorIteratorERKNS_6StatusE
FNDA:0,_ZN7leveldb12_GLOBAL__N_113EmptyIterator4NextEv
FNDA:0,_ZN7leveldb12_GLOBAL__N_113EmptyIteratorC2ERKNS_6StatusE
FNDA:0,_ZN7leveldb12_GLOBAL__N_113EmptyIterator4PrevEv
FNDA:0,_ZNK7leveldb12_GLOBAL__N_113EmptyIterator5valueEv
FNDA:205840,_ZN7leveldb8Iterator15RegisterCleanupEPFvPvS1_ES1_S1_
FNDA:0,_ZN7leveldb12_GLOBAL__N_113EmptyIterator10SeekToLastEv
FNDA:15836179,_ZN7leveldb8IteratorD2Ev
FNDA:0,_ZNK7leveldb12_GLOBAL__N_113EmptyIterator6statusEv
FNDA:0,_ZN7leveldb16NewEmptyIteratorEv
FNF:16
FNH:3
DA:9,15836179
DA:10,15836179
DA:11,15836179
DA:12,15836179
DA:14,15836179
DA:15,15836179
DA:16,205840
DA:17,205840
DA:18,0
DA:19,0
DA:20,0
DA:21,0
DA:24,15836179
DA:26,205840
DA:27,205840
DA:28,205840
DA:29,205840
DA:30,205840
DA:32,0
DA:33,0
DA:34,0
DA:36,205840
DA:37,205840
DA:38,205840
DA:39,205840
DA:44,0
DA:45,0
DA:46,0
DA:47,0
DA:48,0
DA:49,0
DA:50,0
DA:51,0
DA:52,0
DA:53,0
DA:59,0
DA:60,0
DA:63,0
DA:64,0
LF:39
LH:18
end_of_record
TN:
SF:/home/apetrini/dev/src/zen/src/leveldb/table/iterator_wrapper.h
FN:20,_ZN7leveldb15IteratorWrapperD2Ev
FN:25,_ZN7leveldb15IteratorWrapper3SetEPNS_8IteratorE
FN:38,_ZNK7leveldb15IteratorWrapper3keyEv
FN:39,_ZNK7leveldb15IteratorWrapper5valueEv
FN:41,_ZNK7leveldb15IteratorWrapper6statusEv
FN:42,_ZN7leveldb15IteratorWrapper4NextEv
FN:43,_ZN7leveldb15IteratorWrapper4PrevEv
FN:44,_ZN7leveldb15IteratorWrapper4SeekERKNS_5SliceE
FN:45,_ZN7leveldb15IteratorWrapper11SeekToFirstEv
FN:46,_ZN7leveldb15IteratorWrapper10SeekToLastEv
FN:49,_ZN7leveldb15IteratorWrapper6UpdateEv
FNDA:7534,_ZN7leveldb15IteratorWrapper3SetEPNS_8IteratorE
FNDA:147597,_ZN7leveldb15IteratorWrapper6UpdateEv
FNDA:0,_ZN7leveldb15IteratorWrapper10SeekToLastEv
FNDA:1487,_ZN7leveldb15IteratorWrapper4SeekERKNS_5SliceE
FNDA:4864,_ZNK7leveldb15IteratorWrapper6statusEv
FNDA:374392,_ZNK7leveldb15IteratorWrapper5valueEv
FNDA:4309,_ZN7leveldb15IteratorWrapper11SeekToFirstEv
FNDA:0,_ZN7leveldb15IteratorWrapper4PrevEv
FNDA:350338,_ZNK7leveldb15IteratorWrapper3keyEv
FNDA:135625,_ZN7leveldb15IteratorWrapper4NextEv
FNDA:2581,_ZN7leveldb15IteratorWrapperD2Ev
FNF:11
FNH:9
DA:16,829
DA:17,1752
DA:18,1752
DA:19,1752
DA:20,2581
DA:21,86329
DA:25,7534
DA:26,7534
DA:27,7534
DA:28,7534
DA:29,1358
DA:31,6176
DA:33,7534
DA:37,225944
DA:38,350338
DA:39,374392
DA:41,4864
DA:42,135625
DA:43,0
DA:44,1487
DA:45,4309
DA:46,0
DA:49,147597
DA:50,147597
DA:51,147597
DA:52,136379
DA:54,147597
LF:27
LH:25
end_of_record
TN:
SF:/home/apetrini/dev/src/zen/src/leveldb/table/merger.cc
FN:16,_ZN7leveldb12_GLOBAL__N_115MergingIteratorC2EPKNS_10ComparatorEPPNS_8IteratorEi
FN:27,_ZN7leveldb12_GLOBAL__N_115MergingIteratorD0Ev
FN:27,_ZN7leveldb12_GLOBAL__N_115MergingIteratorD2Ev
FN:31,_ZNK7leveldb12_GLOBAL__N_115MergingIterator5ValidEv
FN:35,_ZN7leveldb12_GLOBAL__N_115MergingIterator11SeekToFirstEv
FN:43,_ZN7leveldb12_GLOBAL__N_115MergingIterator10SeekToLastEv
FN:51,_ZN7leveldb12_GLOBAL__N_115MergingIterator4SeekERKNS_5SliceE
FN:59,_ZN7leveldb12_GLOBAL__N_115MergingIterator4NextEv
FN:85,_ZN7leveldb12_GLOBAL__N_115MergingIterator4PrevEv
FN:114,_ZNK7leveldb12_GLOBAL__N_115MergingIterator3keyEv
FN:119,_ZNK7leveldb12_GLOBAL__N_115MergingIterator5valueEv
FN:124,_ZNK7leveldb12_GLOBAL__N_115MergingIterator6statusEv
FN:155,_ZN7leveldb12_GLOBAL__N_115MergingIterator12FindSmallestEv
FN:170,_ZN7leveldb12_GLOBAL__N_115MergingIterator11FindLargestEv
FN:186,_ZN7leveldb18NewMergingIteratorEPKNS_10ComparatorEPPNS_8IteratorEi
FNDA:0,_ZN7leveldb12_GLOBAL__N_115MergingIterator4PrevEv
FNDA:181261,_ZNK7leveldb12_GLOBAL__N_115MergingIterator5valueEv
FNDA:370,_ZN7leveldb12_GLOBAL__N_115MergingIteratorD2Ev
FNDA:2120,_ZN7leveldb18NewMergingIteratorEPKNS_10ComparatorEPPNS_8IteratorEi
FNDA:0,_ZN7leveldb12_GLOBAL__N_115MergingIterator10SeekToLastEv
FNDA:64335,_ZN7leveldb12_GLOBAL__N_115MergingIterator4NextEv
FNDA:22,_ZN7leveldb12_GLOBAL__N_115MergingIterator11SeekToFirstEv
FNDA:609380,_ZNK7leveldb12_GLOBAL__N_115MergingIterator5ValidEv
FNDA:0,_ZN7leveldb12_GLOBAL__N_115MergingIterator11FindLargestEv
FNDA:240343,_ZNK7leveldb12_GLOBAL__N_115MergingIterator3keyEv
FNDA:370,_ZN7leveldb12_GLOBAL__N_115MergingIteratorD0Ev
FNDA:348,_ZN7leveldb12_GLOBAL__N_115MergingIterator4SeekERKNS_5SliceE
FNDA:44,_ZNK7leveldb12_GLOBAL__N_115MergingIterator6statusEv
FNDA:64705,_ZN7leveldb12_GLOBAL__N_115MergingIterator12FindSmallestEv
FNDA:370,_ZN7leveldb12_GLOBAL__N_115MergingIteratorC2EPKNS_10ComparatorEPPNS_8IteratorEi
FNF:15
FNH:12
DA:16,370
DA:17,740
DA:18,1199
DA:19,370
DA:20,370
DA:21,370
DA:22,1199
DA:23,829
DA:25,370
DA:27,740
DA:28,1199
DA:29,740
DA:31,609380
DA:32,609380
DA:35,22
DA:36,88
DA:37,66
DA:39,22
DA:40,22
DA:41,22
DA:43,0
DA:44,0
DA:45,0
DA:47,0
DA:48,0
DA:49,0
DA:51,348
DA:52,1111
DA:53,763
DA:55,348
DA:56,348
DA:57,348
DA:59,64335
DA:60,64335
DA:67,64335
DA:68,0
DA:69,0
DA:70,0
DA:71,0
DA:72,0
DA:73,0
DA:74,0
DA:78,0
DA:81,64335
DA:82,64335
DA:83,64335
DA:85,0
DA:86,0
DA:93,0
DA:94,0
DA:95,0
DA:96,0
DA:97,0
DA:98,0
DA:100,0
DA:103,0
DA:107,0
DA:110,0
DA:111,0
DA:112,0
DA:114,240343
DA:115,240343
DA:116,240343
DA:119,181261
DA:120,181261
DA:121,181261
DA:124,44
DA:125,44
DA:126,176
DA:127,132
DA:128,132
DA:132,44
DA:133,0
DA:155,64705
DA:156,64705
DA:157,214151
DA:158,149446
DA:159,149446
DA:160,85863
DA:162,21333
DA:163,7407
DA:167,64705
DA:168,64705
DA:170,0
DA:171,0
DA:172,0
DA:173,0
DA:174,0
DA:175,0
DA:177,0
DA:178,0
DA:182,0
DA:183,0
DA:186,2120
DA:187,2120
DA:188,2120
DA:189,0
DA:190,2120
DA:191,1750
DA:193,370
LF:100
LH:60
end_of_record
TN:
SF:/home/apetrini/dev/src/zen/src/leveldb/table/table.cc
FN:21,_ZN7leveldb5Table3RepD2Ev
FN:38,_ZN7leveldb5Table4OpenERKNS_7OptionsEPNS_16RandomAccessFileEmPPS0_
FN:91,_ZN7leveldb5Table8ReadMetaERKNS_6FooterE
FN:120,_ZN7leveldb5Table10ReadFilterERKNS_5SliceE
FN:143,_ZN7leveldb5TableD2Ev
FN:147,_ZN7leveldbL11DeleteBlockEPvS0_
FN:151,_ZN7leveldbL17DeleteCachedBlockERKNS_5SliceEPv
FN:156,_ZN7leveldbL12ReleaseBlockEPvS0_
FN:164,_ZN7leveldb5Table11BlockReaderEPvRKNS_11ReadOptionsERKNS_5SliceE
FN:220,_ZNK7leveldb5Table11NewIteratorERKNS_11ReadOptionsE
FN:226,_ZN7leveldb5Table11InternalGetERKNS_11ReadOptionsERKNS_5SliceEPvPFvS7_S6_S6_E
FN:258,_ZNK7leveldb5Table19ApproximateOffsetOfERKNS_5SliceE
FNDA:499,_ZN7leveldb5TableD2Ev
FNDA:0,_ZNK7leveldb5Table19ApproximateOffsetOfERKNS_5SliceE
FNDA:0,_ZN7leveldbL12ReleaseBlockEPvS0_
FNDA:499,_ZN7leveldb5Table3RepD2Ev
FNDA:202888,_ZN7leveldbL11DeleteBlockEPvS0_
FNDA:499,_ZN7leveldb5Table4OpenERKNS_7OptionsEPNS_16RandomAccessFileEmPPS0_
FNDA:0,_ZN7leveldbL17DeleteCachedBlockERKNS_5SliceEPv
FNDA:202888,_ZN7leveldb5Table11BlockReaderEPvRKNS_11ReadOptionsERKNS_5SliceE
FNDA:499,_ZN7leveldb5Table8ReadMetaERKNS_6FooterE
FNDA:499,_ZN7leveldb5Table10ReadFilterERKNS_5SliceE
FNDA:854,_ZNK7leveldb5Table11NewIteratorERKNS_11ReadOptionsE
FNDA:15626116,_ZN7leveldb5Table11InternalGetERKNS_11ReadOptionsERKNS_5SliceEPvPFvS7_S6_S6_E
FNF:12
FNH:9
DA:20,499
DA:21,499
DA:22,499
DA:23,499
DA:24,499
DA:25,998
DA:38,499
DA:42,499
DA:43,499
DA:44,0
DA:47,499
DA:48,499
DA:49,499
DA:50,499
DA:51,499
DA:53,499
DA:54,499
DA:55,499
DA:58,499
DA:59,499
DA:60,499
DA:61,499
DA:62,499
DA:63,499
DA:65,499
DA:66,499
DA:67,499
DA:71,499
DA:74,499
DA:75,499
DA:76,499
DA:77,499
DA:78,499
DA:79,499
DA:80,499
DA:81,499
DA:82,499
DA:83,499
DA:85,0
DA:88,998
DA:89,499
DA:91,499
DA:92,499
DA:93,0
DA:98,499
DA:99,499
DA:100,499
DA:102,499
DA:103,499
DA:107,499
DA:109,499
DA:110,499
DA:111,499
DA:112,499
DA:113,499
DA:114,499
DA:116,499
DA:117,499
DA:118,499
DA:120,499
DA:121,499
DA:122,499
DA:123,499
DA:124,0
DA:129,499
DA:130,499
DA:131,499
DA:133,499
DA:134,499
DA:137,499
DA:138,0
DA:140,499
DA:143,499
DA:144,499
DA:145,499
DA:147,202888
DA:148,202888
DA:149,202888
DA:151,0
DA:152,0
DA:153,0
DA:154,0
DA:156,0
DA:157,0
DA:158,0
DA:159,0
DA:160,0
DA:164,202888
DA:167,202888
DA:168,202888
DA:169,202888
DA:170,202888
DA:172,202888
DA:173,202888
DA:174,202888
DA:178,202888
DA:179,202888
DA:180,202888
DA:181,202888
DA:182,202888
DA:183,202888
DA:184,202888
DA:185,202888
DA:186,202888
DA:187,0
DA:189,202888
DA:190,202888
DA:191,202888
DA:192,202888
DA:193,0
DA:199,0
DA:200,0
DA:201,0
DA:206,202888
DA:207,202888
DA:208,202888
DA:209,202888
DA:210,202888
DA:212,0
DA:215,0
DA:217,202888
DA:218,202888
DA:220,854
DA:221,854
DA:222,854
DA:223,854
DA:226,15626116
DA:229,15626116
DA:230,15626116
DA:231,15626116
DA:232,15626116
DA:233,15626116
DA:234,15626116
DA:235,15626116
DA:236,15626116
DA:237,46878348
DA:238,15626116
DA:241,198432
DA:242,198432
DA:243,198432
DA:244,198432
DA:246,198432
DA:247,198432
DA:250,15626116
DA:251,31252232
DA:253,15626116
DA:254,15626116
DA:255,0
DA:258,0
DA:259,0
DA:260,0
DA:261,0
DA:262,0
DA:263,0
DA:264,0
DA:265,0
DA:266,0
DA:267,0
DA:268,0
DA:273,0
DA:275,0
DA:279,0
DA:281,0
DA:282,0
LF:164
LH:126
end_of_record
TN:
SF:/home/apetrini/dev/src/zen/src/leveldb/table/table_builder.cc
FN:47,_ZN7leveldb12TableBuilder3RepC2ERKNS_7OptionsEPNS_12WritableFileE
FN:63,_ZN7leveldb12TableBuilderC2ERKNS_7OptionsEPNS_12WritableFileE
FN:70,_ZN7leveldb12TableBuilderD2Ev
FN:76,_ZN7leveldb12TableBuilder13ChangeOptionsERKNS_7OptionsE
FN:92,_ZN7leveldb12TableBuilder3AddERKNS_5SliceES3_
FN:123,_ZN7leveldb12TableBuilder5FlushEv
FN:139,_ZN7leveldb12TableBuilder10WriteBlockEPNS_12BlockBuilderEPNS_11BlockHandleE
FN:175,_ZN7leveldb12TableBuilder13WriteRawBlockERKNS_5SliceENS_15CompressionTypeEPNS_11BlockHandleE
FN:195,_ZNK7leveldb12TableBuilder6statusEv
FN:199,_ZN7leveldb12TableBuilder6FinishEv
FN:256,_ZN7leveldb12TableBuilder7AbandonEv
FN:262,_ZNK7leveldb12TableBuilder10NumEntriesEv
FN:266,_ZNK7leveldb12TableBuilder8FileSizeEv
FNDA:380,_ZN7leveldb12TableBuilder3RepC2ERKNS_7OptionsEPNS_12WritableFileE
FNDA:380,_ZN7leveldb12TableBuilderD2Ev
FNDA:5694,_ZNK7leveldb12TableBuilder10NumEntriesEv
FNDA:0,_ZN7leveldb12TableBuilder7AbandonEv
FNDA:107590,_ZN7leveldb12TableBuilder3AddERKNS_5SliceES3_
FNDA:380,_ZN7leveldb12TableBuilderC2ERKNS_7OptionsEPNS_12WritableFileE
FNDA:125904,_ZNK7leveldb12TableBuilder6statusEv
FNDA:6101,_ZN7leveldb12TableBuilder10WriteBlockEPNS_12BlockBuilderEPNS_11BlockHandleE
FNDA:0,_ZN7leveldb12TableBuilder13ChangeOptionsERKNS_7OptionsE
FNDA:5352,_ZN7leveldb12TableBuilder5FlushEv
FNDA:6481,_ZN7leveldb12TableBuilder13WriteRawBlockERKNS_5SliceENS_15CompressionTypeEPNS_11BlockHandleE
FNDA:380,_ZN7leveldb12TableBuilder6FinishEv
FNDA:6052,_ZNK7leveldb12TableBuilder8FileSizeEv
FNF:13
FNH:11
DA:47,380
DA:48,380
DA:49,380
DA:50,380
DA:51,380
DA:52,380
DA:53,380
DA:54,380
DA:55,380
DA:56,380
DA:57,380
DA:58,1140
DA:59,380
DA:60,380
DA:63,380
DA:64,380
DA:65,380
DA:66,380
DA:68,380
DA:70,380
DA:71,380
DA:72,380
DA:73,380
DA:74,380
DA:76,0
DA:80,0
DA:81,0
DA:86,0
DA:87,0
DA:88,0
DA:89,0
DA:92,107590
DA:93,107590
DA:94,107590
DA:95,107590
DA:96,107590
DA:97,107210
DA:100,107590
DA:101,4961
DA:102,4961
DA:103,4961
DA:104,4961
DA:105,4961
DA:106,4961
DA:107,4961
DA:109,107590
DA:110,107590
DA:113,107590
DA:114,107590
DA:115,107590
DA:117,107590
DA:118,107590
DA:119,4972
DA:123,5352
DA:124,5352
DA:125,5352
DA:126,5352
DA:127,5352
DA:128,5341
DA:129,5341
DA:130,5341
DA:131,5341
DA:132,10682
DA:134,5341
DA:135,5341
DA:139,6101
DA:144,6101
DA:145,6101
DA:146,6101
DA:148,6101
DA:149,6101
DA:151,6101
DA:152,6101
DA:153,6101
DA:154,6101
DA:156,0
DA:157,0
DA:158,0
DA:164,0
DA:165,0
DA:170,6101
DA:171,6101
DA:172,6101
DA:173,6101
DA:175,6481
DA:178,6481
DA:179,6481
DA:180,6481
DA:181,6481
DA:182,6481
DA:183,6481
DA:184,6481
DA:185,6481
DA:186,6481
DA:187,6481
DA:188,6481
DA:189,6481
DA:190,6481
DA:193,6481
DA:195,125904
DA:196,125904
DA:199,380
DA:200,380
DA:201,380
DA:202,380
DA:203,380
DA:205,380
DA:208,380
DA:209,380
DA:214,380
DA:215,380
DA:216,380
DA:218,380
DA:219,380
DA:220,380
DA:221,380
DA:222,380
DA:223,760
DA:226,380
DA:227,380
DA:230,380
DA:231,380
DA:232,380
DA:233,380
DA:234,380
DA:235,380
DA:236,380
DA:237,380
DA:238,380
DA:242,380
DA:243,380
DA:244,380
DA:245,380
DA:246,380
DA:247,380
DA:248,380
DA:249,380
DA:250,380
DA:252,380
DA:253,380
DA:256,0
DA:257,0
DA:258,0
DA:259,0
DA:260,0
DA:262,5694
DA:263,5694
DA:266,6052
DA:267,6052
LF:149
LH:132
end_of_record
TN:
SF:/home/apetrini/dev/src/zen/src/leveldb/table/two_level_iterator.cc
FN:34,_ZNK7leveldb12_GLOBAL__N_116TwoLevelIterator5ValidEv
FN:37,_ZNK7leveldb12_GLOBAL__N_116TwoLevelIterator3keyEv
FN:41,_ZNK7leveldb12_GLOBAL__N_116TwoLevelIterator5valueEv
FN:45,_ZNK7leveldb12_GLOBAL__N_116TwoLevelIterator6statusEv
FN:57,_ZN7leveldb12_GLOBAL__N_116TwoLevelIterator9SaveErrorERKNS_6StatusE
FN:76,_ZN7leveldb12_GLOBAL__N_116TwoLevelIteratorC2EPNS_8IteratorEPFS3_PvRKNS_11ReadOptionsERKNS_5SliceEES4_S7_
FN:88,_ZN7leveldb12_GLOBAL__N_116TwoLevelIteratorD0Ev
FN:88,_ZN7leveldb12_GLOBAL__N_116TwoLevelIteratorD2Ev
FN:91,_ZN7leveldb12_GLOBAL__N_116TwoLevelIterator4SeekERKNS_5SliceE
FN:98,_ZN7leveldb12_GLOBAL__N_116TwoLevelIterator11SeekToFirstEv
FN:105,_ZN7leveldb12_GLOBAL__N_116TwoLevelIterator10SeekToLastEv
FN:112,_ZN7leveldb12_GLOBAL__N_116TwoLevelIterator4NextEv
FN:118,_ZN7leveldb12_GLOBAL__N_116TwoLevelIterator4PrevEv
FN:125,_ZN7leveldb12_GLOBAL__N_116TwoLevelIterator26SkipEmptyDataBlocksForwardEv
FN:138,_ZN7leveldb12_GLOBAL__N_116TwoLevelIterator27SkipEmptyDataBlocksBackwardEv
FN:151,_ZN7leveldb12_GLOBAL__N_116TwoLevelIterator15SetDataIteratorEPNS_8IteratorE
FN:156,_ZN7leveldb12_GLOBAL__N_116TwoLevelIterator13InitDataBlockEv
FN:174,_ZN7leveldb19NewTwoLevelIteratorEPNS_8IteratorEPFS1_PvRKNS_11ReadOptionsERKNS_5SliceEES2_S5_
FNDA:876,_ZN7leveldb12_GLOBAL__N_116TwoLevelIteratorD2Ev
FNDA:0,_ZN7leveldb12_GLOBAL__N_116TwoLevelIterator10SeekToLastEv
FNDA:391129,_ZNK7leveldb12_GLOBAL__N_116TwoLevelIterator5ValidEv
FNDA:876,_ZN7leveldb12_GLOBAL__N_116TwoLevelIteratorC2EPNS_8IteratorEPFS3_PvRKNS_11ReadOptionsERKNS_5SliceEES4_S7_
FNDA:67074,_ZN7leveldb12_GLOBAL__N_116TwoLevelIterator4NextEv
FNDA:428,_ZN7leveldb12_GLOBAL__N_116TwoLevelIterator4SeekERKNS_5SliceE
FNDA:876,_ZN7leveldb19NewTwoLevelIteratorEPNS_8IteratorEPFS1_PvRKNS_11ReadOptionsERKNS_5SliceEES2_S5_
FNDA:188660,_ZNK7leveldb12_GLOBAL__N_116TwoLevelIterator5valueEv
FNDA:0,_ZN7leveldb12_GLOBAL__N_116TwoLevelIterator4PrevEv
FNDA:68,_ZN7leveldb12_GLOBAL__N_116TwoLevelIterator11SeekToFirstEv
FNDA:0,_ZN7leveldb12_GLOBAL__N_116TwoLevelIterator27SkipEmptyDataBlocksBackwardEv
FNDA:67329,_ZNK7leveldb12_GLOBAL__N_116TwoLevelIterator3keyEv
FNDA:4953,_ZN7leveldb12_GLOBAL__N_116TwoLevelIterator15SetDataIteratorEPNS_8IteratorE
FNDA:4216,_ZN7leveldb12_GLOBAL__N_116TwoLevelIterator9SaveErrorERKNS_6StatusE
FNDA:4712,_ZN7leveldb12_GLOBAL__N_116TwoLevelIterator13InitDataBlockEv
FNDA:67570,_ZN7leveldb12_GLOBAL__N_116TwoLevelIterator26SkipEmptyDataBlocksForwardEv
FNDA:876,_ZN7leveldb12_GLOBAL__N_116TwoLevelIteratorD0Ev
FNDA:516,_ZNK7leveldb12_GLOBAL__N_116TwoLevelIterator6statusEv
FNF:18
FNH:15
DA:34,391129
DA:35,391129
DA:37,67329
DA:38,67329
DA:39,67329
DA:41,188660
DA:42,188660
DA:43,188660
DA:45,516
DA:47,516
DA:48,0
DA:49,516
DA:50,0
DA:52,516
DA:57,4216
DA:58,4216
DA:59,4216
DA:76,876
DA:80,876
DA:81,876
DA:82,876
DA:83,876
DA:84,876
DA:85,2628
DA:86,876
DA:88,1752
DA:89,2628
DA:91,428
DA:92,428
DA:93,428
DA:94,428
DA:95,428
DA:96,428
DA:98,68
DA:99,68
DA:100,68
DA:101,68
DA:102,68
DA:103,68
DA:105,0
DA:106,0
DA:107,0
DA:108,0
DA:109,0
DA:110,0
DA:112,67074
DA:113,67074
DA:114,67074
DA:115,67074
DA:116,67074
DA:118,0
DA:119,0
DA:120,0
DA:121,0
DA:122,0
DA:125,67570
DA:126,139356
DA:128,4457
DA:129,241
DA:130,241
DA:132,4216
DA:133,4216
DA:134,4216
DA:138,0
DA:139,0
DA:141,0
DA:142,0
DA:143,0
DA:145,0
DA:146,0
DA:147,0
DA:151,4953
DA:152,9169
DA:153,4953
DA:154,4953
DA:156,4712
DA:157,4712
DA:158,241
DA:160,4471
DA:161,4471
DA:165,4471
DA:166,4471
DA:167,4471
DA:170,4712
DA:174,876
DA:179,876
LF:86
LH:65
end_of_record
TN:
SF:/home/apetrini/dev/src/zen/src/leveldb/util/arena.cc
FN:12,_ZN7leveldb5ArenaC2Ev
FN:18,_ZN7leveldb5ArenaD2Ev
FN:24,_ZN7leveldb5Arena16AllocateFallbackEm
FN:42,_ZN7leveldb5Arena15AllocateAlignedEm
FN:61,_ZN7leveldb5Arena16AllocateNewBlockEm
FNDA:1340,_ZN7leveldb5ArenaD2Ev
FNDA:20241,_ZN7leveldb5Arena16AllocateFallbackEm
FNDA:20241,_ZN7leveldb5Arena16AllocateNewBlockEm
FNDA:350061,_ZN7leveldb5Arena15AllocateAlignedEm
FNDA:1340,_ZN7leveldb5ArenaC2Ev
FNF:5
FNH:5
DA:12,1340
DA:13,1340
DA:14,1340
DA:15,1340
DA:16,1340
DA:18,1340
DA:19,21581
DA:20,20241
DA:22,1340
DA:24,20241
DA:25,20241
DA:28,247
DA:29,247
DA:33,19994
DA:34,19994
DA:36,19994
DA:37,19994
DA:38,19994
DA:39,19994
DA:42,350061
DA:43,350061
DA:44,350061
DA:45,350061
DA:46,350061
DA:47,350061
DA:48,350061
DA:49,350061
DA:50,348133
DA:51,348133
DA:52,348133
DA:55,1928
DA:57,350061
DA:58,350061
DA:61,20241
DA:62,20241
DA:63,20241
DA:64,20241
DA:65,20241
LF:38
LH:38
end_of_record
TN:
SF:/home/apetrini/dev/src/zen/src/leveldb/util/arena.h
FN:52,_ZN7leveldb5Arena8AllocateEm
FNDA:348721,_ZN7leveldb5Arena8AllocateEm
FNF:1
FNH:1
DA:29,11815
DA:30,11815
DA:52,348721
DA:56,348721
DA:57,348721
DA:58,330408
DA:59,330408
DA:60,330408
DA:61,330408
DA:63,18313
LF:10
LH:10
end_of_record
TN:
SF:/home/apetrini/dev/src/zen/src/leveldb/util/bloom.cc
FN:13,_ZN7leveldb12_GLOBAL__N_1L9BloomHashERKNS_5SliceE
FN:23,_ZN7leveldb12_GLOBAL__N_117BloomFilterPolicyC2Ei
FN:31,_ZNK7leveldb12_GLOBAL__N_117BloomFilterPolicy4NameEv
FN:35,_ZNK7leveldb12_GLOBAL__N_117BloomFilterPolicy12CreateFilterEPKNS_5SliceEiPNSt7__cxx1112basic_stringIcSt11char_traitsIcESaIcEEE
FN:63,_ZNK7leveldb12_GLOBAL__N_117BloomFilterPolicy11KeyMayMatchERKNS_5SliceES4_
FN:91,_ZN7leveldb20NewBloomFilterPolicyEi
FNDA:5341,_ZNK7leveldb12_GLOBAL__N_117BloomFilterPolicy12CreateFilterEPKNS_5SliceEiPNSt7__cxx1112basic_stringIcSt11char_traitsIcESaIcEEE
FNDA:15733706,_ZN7leveldb12_GLOBAL__N_1L9BloomHashERKNS_5SliceE
FNDA:15626116,_ZNK7leveldb12_GLOBAL__N_117BloomFilterPolicy11KeyMayMatchERKNS_5SliceES4_
FNDA:980,_ZN7leveldb20NewBloomFilterPolicyEi
FNDA:879,_ZNK7leveldb12_GLOBAL__N_117BloomFilterPolicy4NameEv
FNDA:980,_ZN7leveldb12_GLOBAL__N_117BloomFilterPolicyC2Ei
FNF:6
FNH:6
DA:13,15733706
DA:14,15733706
DA:23,980
DA:24,980
DA:26,980
DA:27,980
DA:28,980
DA:29,980
DA:31,879
DA:32,879
DA:35,5341
DA:37,5341
DA:41,5341
DA:43,5341
DA:44,5341
DA:46,5341
DA:47,5341
DA:48,5341
DA:49,5341
DA:50,112931
DA:53,107590
DA:54,107590
DA:55,753130
DA:56,645540
DA:57,645540
DA:58,645540
DA:61,5341
DA:63,15626116
DA:64,15626116
DA:65,15626116
DA:67,15626116
DA:68,15626116
DA:72,15626116
DA:73,15626116
DA:79,15626116
DA:80,15626116
DA:81,27269395
DA:82,27070963
DA:83,27070963
DA:84,11643279
DA:91,980
DA:92,980
LF:42
LH:42
end_of_record
TN:
SF:/home/apetrini/dev/src/zen/src/leveldb/util/cache.cc
FN:16,_ZN7leveldb5CacheD0Ev
FN:16,_ZN7leveldb5CacheD2Ev
FN:62,_ZN7leveldb12_GLOBAL__N_111HandleTable6InsertEPNS0_9LRUHandleE
FN:78,_ZN7leveldb12_GLOBAL__N_111HandleTable6RemoveERKNS_5SliceEj
FN:98,_ZN7leveldb12_GLOBAL__N_111HandleTable11FindPointerERKNS_5SliceEj
FN:107,_ZN7leveldb12_GLOBAL__N_111HandleTable6ResizeEv
FN:170,_ZN7leveldb12_GLOBAL__N_18LRUCacheC2Ev
FN:177,_ZN7leveldb12_GLOBAL__N_18LRUCacheD2Ev
FN:186,_ZN7leveldb12_GLOBAL__N_18LRUCache5UnrefEPNS0_9LRUHandleE
FN:196,_ZN7leveldb12_GLOBAL__N_18LRUCache10LRU_RemoveEPNS0_9LRUHandleE
FN:201,_ZN7leveldb12_GLOBAL__N_18LRUCache10LRU_AppendEPNS0_9LRUHandleE
FN:209,_ZN7leveldb12_GLOBAL__N_18LRUCache6LookupERKNS_5SliceEj
FN:220,_ZN7leveldb12_GLOBAL__N_18LRUCache7ReleaseEPNS_5Cache6HandleE
FN:225,_ZN7leveldb12_GLOBAL__N_18LRUCache6InsertERKNS_5SliceEjPvmPFvS4_S5_E
FN:258,_ZN7leveldb12_GLOBAL__N_18LRUCache5EraseERKNS_5SliceEj
FN:285,_ZN7leveldb12_GLOBAL__N_115ShardedLRUCacheC2Em
FN:292,_ZN7leveldb12_GLOBAL__N_115ShardedLRUCacheD0Ev
FN:292,_ZN7leveldb12_GLOBAL__N_115ShardedLRUCacheD2Ev
FN:293,_ZN7leveldb12_GLOBAL__N_115ShardedLRUCache6InsertERKNS_5SliceEPvmPFvS4_S5_E
FN:298,_ZN7leveldb12_GLOBAL__N_115ShardedLRUCache6LookupERKNS_5SliceE
FN:302,_ZN7leveldb12_GLOBAL__N_115ShardedLRUCache7ReleaseEPNS_5Cache6HandleE
FN:306,_ZN7leveldb12_GLOBAL__N_115ShardedLRUCache5EraseERKNS_5SliceE
FN:310,_ZN7leveldb12_GLOBAL__N_115ShardedLRUCache5ValueEPNS_5Cache6HandleE
FN:313,_ZN7leveldb12_GLOBAL__N_115ShardedLRUCache5NewIdEv
FN:321,_ZN7leveldb11NewLRUCacheEm
FNDA:15830423,_ZN7leveldb12_GLOBAL__N_111HandleTable11FindPointerERKNS_5SliceEj
FNDA:15626970,_ZN7leveldb12_GLOBAL__N_115ShardedLRUCache5ValueEPNS_5Cache6HandleE
FNDA:66,_ZN7leveldb12_GLOBAL__N_115ShardedLRUCache5EraseERKNS_5SliceE
FNDA:1964,_ZN7leveldb5CacheD2Ev
FNDA:15626970,_ZN7leveldb12_GLOBAL__N_18LRUCache7ReleaseEPNS_5Cache6HandleE
FNDA:499,_ZN7leveldb12_GLOBAL__N_115ShardedLRUCache6InsertERKNS_5SliceEPvmPFvS4_S5_E
FNDA:0,_ZN7leveldb5CacheD0Ev
FNDA:499,_ZN7leveldb12_GLOBAL__N_115ShardedLRUCache5NewIdEv
FNDA:15626537,_ZN7leveldb12_GLOBAL__N_18LRUCache10LRU_RemoveEPNS0_9LRUHandleE
FNDA:31424,_ZN7leveldb12_GLOBAL__N_111HandleTable6ResizeEv
FNDA:1964,_ZN7leveldb11NewLRUCacheEm
FNDA:1964,_ZN7leveldb12_GLOBAL__N_115ShardedLRUCacheD2Ev
FNDA:15626970,_ZN7leveldb12_GLOBAL__N_115ShardedLRUCache7ReleaseEPNS_5Cache6HandleE
FNDA:499,_ZN7leveldb12_GLOBAL__N_111HandleTable6InsertEPNS0_9LRUHandleE
FNDA:31424,_ZN7leveldb12_GLOBAL__N_18LRUCacheC2Ev
FNDA:1964,_ZN7leveldb12_GLOBAL__N_115ShardedLRUCacheD0Ev
FNDA:15829858,_ZN7leveldb12_GLOBAL__N_18LRUCache6LookupERKNS_5SliceEj
FNDA:1964,_ZN7leveldb12_GLOBAL__N_115ShardedLRUCacheC2Em
FNDA:15829858,_ZN7leveldb12_GLOBAL__N_115ShardedLRUCache6LookupERKNS_5SliceE
FNDA:66,_ZN7leveldb12_GLOBAL__N_111HandleTable6RemoveERKNS_5SliceEj
FNDA:15627469,_ZN7leveldb12_GLOBAL__N_18LRUCache5UnrefEPNS0_9LRUHandleE
FNDA:499,_ZN7leveldb12_GLOBAL__N_18LRUCache6InsertERKNS_5SliceEjPvmPFvS4_S5_E
FNDA:15626970,_ZN7leveldb12_GLOBAL__N_18LRUCache10LRU_AppendEPNS0_9LRUHandleE
FNDA:66,_ZN7leveldb12_GLOBAL__N_18LRUCache5EraseERKNS_5SliceEj
FNDA:31424,_ZN7leveldb12_GLOBAL__N_18LRUCacheD2Ev
FNF:25
FNH:24
DA:16,1964
DA:17,1964
DA:37,15627535
DA:40,15627535
DA:41,0
DA:43,15627535
DA:55,31424
DA:56,31424
DA:58,15829858
DA:59,31659716
DA:62,499
DA:63,998
DA:64,499
DA:65,499
DA:66,499
DA:67,499
DA:68,499
DA:69,499
DA:72,0
DA:75,499
DA:78,66
DA:79,66
DA:80,66
DA:81,66
DA:82,66
DA:83,66
DA:85,66
DA:98,15830423
DA:99,15830423
DA:100,15830427
DA:101,31253078
DA:102,4
DA:104,15830423
DA:107,31424
DA:108,31424
DA:109,31424
DA:110,0
DA:112,31424
DA:113,31424
DA:114,31424
DA:115,31424
DA:116,0
DA:117,0
DA:118,0
DA:119,0
DA:120,0
DA:121,0
DA:122,0
DA:123,0
DA:124,0
DA:127,31424
DA:128,31424
DA:129,31424
DA:130,31424
DA:131,31424
DA:141,31424
DA:170,31424
DA:171,31424
DA:173,31424
DA:174,31424
DA:175,31424
DA:177,31424
DA:178,31857
DA:179,433
DA:180,433
DA:181,433
DA:182,433
DA:184,62848
DA:186,15627469
DA:187,15627469
DA:188,15627469
DA:189,15627469
DA:190,499
DA:191,998
DA:192,499
DA:194,15627469
DA:196,15626537
DA:197,15626537
DA:198,15626537
DA:199,15626537
DA:201,15626970
DA:203,15626970
DA:204,15626970
DA:205,15626970
DA:206,15626970
DA:207,15626970
DA:209,15829858
DA:210,15829858
DA:211,15829858
DA:212,15829858
DA:213,15626471
DA:214,15626471
DA:215,15626471
DA:217,15829858
DA:218,15829858
DA:220,15626970
DA:221,15626970
DA:222,15626970
DA:223,15626970
DA:225,499
DA:228,499
DA:230,499
DA:231,499
DA:232,499
DA:233,499
DA:234,499
DA:235,499
DA:236,499
DA:237,499
DA:238,499
DA:239,499
DA:240,499
DA:242,499
DA:243,499
DA:244,0
DA:245,0
DA:248,499
DA:249,0
DA:250,0
DA:251,0
DA:252,0
DA:255,499
DA:256,499
DA:258,66
DA:259,66
DA:260,66
DA:261,66
DA:262,66
DA:263,66
DA:265,66
DA:276,15830423
DA:277,15830423
DA:280,31457393
DA:281,31457393
DA:285,1964
DA:286,33388
DA:287,1964
DA:288,33388
DA:289,31424
DA:291,1964
DA:292,37316
DA:293,499
DA:295,499
DA:296,499
DA:298,15829858
DA:299,15829858
DA:300,15829858
DA:302,15626970
DA:303,15626970
DA:304,15626970
DA:305,15626970
DA:306,66
DA:307,66
DA:308,66
DA:309,66
DA:310,15626970
DA:311,15626970
DA:313,499
DA:314,499
DA:315,499
DA:316,499
DA:321,1964
DA:322,1964
LF:163
LH:145
end_of_record
TN:
SF:/home/apetrini/dev/src/zen/src/leveldb/util/coding.cc
FN:9,_ZN7leveldb13EncodeFixed32EPcj
FN:20,_ZN7leveldb13EncodeFixed64EPcm
FN:35,_ZN7leveldb10PutFixed32EPNSt7__cxx1112basic_stringIcSt11char_traitsIcESaIcEEEj
FN:41,_ZN7leveldb10PutFixed64EPNSt7__cxx1112basic_stringIcSt11char_traitsIcESaIcEEEm
FN:47,_ZN7leveldb14EncodeVarint32EPcj
FN:75,_ZN7leveldb11PutVarint32EPNSt7__cxx1112basic_stringIcSt11char_traitsIcESaIcEEEj
FN:81,_ZN7leveldb14EncodeVarint64EPcm
FN:92,_ZN7leveldb11PutVarint64EPNSt7__cxx1112basic_stringIcSt11char_traitsIcESaIcEEEm
FN:98,_ZN7leveldb22PutLengthPrefixedSliceEPNSt7__cxx1112basic_stringIcSt11char_traitsIcESaIcEEERKNS_5SliceE
FN:103,_ZN7leveldb12VarintLengthEm
FN:112,_ZN7leveldb22GetVarint32PtrFallbackEPKcS1_Pj
FN:131,_ZN7leveldb11GetVarint32EPNS_5SliceEPj
FN:143,_ZN7leveldb14GetVarint64PtrEPKcS1_Pm
FN:160,_ZN7leveldb11GetVarint64EPNS_5SliceEPm
FN:172,_ZN7leveldb22GetLengthPrefixedSliceEPKcS1_PNS_5SliceE
FN:182,_ZN7leveldb22GetLengthPrefixedSliceEPNS_5SliceES1_
FNDA:31664624,_ZN7leveldb11GetVarint64EPNS_5SliceEPm
FNDA:845010,_ZN7leveldb11PutVarint32EPNSt7__cxx1112basic_stringIcSt11char_traitsIcESaIcEEEj
FNDA:19924,_ZN7leveldb14EncodeVarint64EPcm
FNDA:19924,_ZN7leveldb11PutVarint64EPNSt7__cxx1112basic_stringIcSt11char_traitsIcESaIcEEEm
FNDA:5530,_ZN7leveldb10PutFixed64EPNSt7__cxx1112basic_stringIcSt11char_traitsIcESaIcEEEm
FNDA:279234,_ZN7leveldb22GetVarint32PtrFallbackEPKcS1_Pj
FNDA:35507546,_ZN7leveldb13EncodeFixed64EPcm
FNDA:20652133,_ZN7leveldb14EncodeVarint32EPcj
FNDA:696544,_ZN7leveldb22GetLengthPrefixedSliceEPNS_5SliceES1_
FNDA:299222,_ZN7leveldb13EncodeFixed32EPcj
FNDA:697442,_ZN7leveldb12VarintLengthEm
FNDA:31503,_ZN7leveldb10PutFixed32EPNSt7__cxx1112basic_stringIcSt11char_traitsIcESaIcEEEj
FNDA:0,_ZN7leveldb22GetLengthPrefixedSliceEPKcS1_PNS_5SliceE
FNDA:702538,_ZN7leveldb11GetVarint32EPNS_5SliceEPj
FNDA:494277,_ZN7leveldb22PutLengthPrefixedSliceEPNSt7__cxx1112basic_stringIcSt11char_traitsIcESaIcEEERKNS_5SliceE
FNDA:31664624,_ZN7leveldb14GetVarint64PtrEPKcS1_Pm
FNF:16
FNH:15
DA:9,299222
DA:10,299222
DA:11,299222
DA:18,299222
DA:20,35507546
DA:21,35507546
DA:22,35507546
DA:33,35507546
DA:35,31503
DA:36,31503
DA:37,31503
DA:38,31503
DA:39,31503
DA:41,5530
DA:42,5530
DA:43,5530
DA:44,5530
DA:45,5530
DA:47,20652133
DA:49,20652133
DA:50,20652133
DA:51,20652133
DA:52,20324017
DA:53,328116
DA:54,328116
DA:55,328116
DA:56,0
DA:57,0
DA:58,0
DA:59,0
DA:60,0
DA:61,0
DA:62,0
DA:63,0
DA:64,0
DA:66,0
DA:67,0
DA:68,0
DA:69,0
DA:70,0
DA:72,20652133
DA:75,845010
DA:76,845010
DA:77,845010
DA:78,845010
DA:79,845010
DA:81,19924
DA:82,19924
DA:83,19924
DA:84,37962
DA:85,18038
DA:86,18038
DA:88,19924
DA:89,19924
DA:92,19924
DA:93,19924
DA:94,19924
DA:95,19924
DA:96,19924
DA:98,494277
DA:99,494277
DA:100,494277
DA:101,494277
DA:103,697442
DA:104,697442
DA:105,860823
DA:106,163381
DA:107,163381
DA:109,697442
DA:112,279234
DA:115,279234
DA:116,557124
DA:117,555780
DA:118,555780
DA:119,555780
DA:121,277890
DA:123,277890
DA:124,277890
DA:125,277890
DA:131,702538
DA:132,702538
DA:133,702538
DA:134,702538
DA:135,702538
DA:138,701194
DA:139,701194
DA:143,31664624
DA:144,31664624
DA:145,65365741
DA:146,65365741
DA:147,65365741
DA:148,65365741
DA:150,33701117
DA:152,31664624
DA:153,31664624
DA:154,31664624
DA:160,31664624
DA:161,31664624
DA:162,31664624
DA:163,31664624
DA:164,31664624
DA:167,31664624
DA:168,31664624
DA:172,0
DA:174,0
DA:175,0
DA:176,0
DA:177,0
DA:178,0
DA:179,0
DA:182,696544
DA:183,696544
DA:184,696544
DA:185,696544
DA:186,696544
DA:187,696544
DA:188,696544
LF:117
LH:96
end_of_record
TN:
SF:/home/apetrini/dev/src/zen/src/leveldb/util/coding.h
FN:89,_ZN7leveldb14GetVarint32PtrEPKcS1_Pj
FNDA:17480344,_ZN7leveldb14GetVarint32PtrEPKcS1_Pj
FNF:1
FNH:1
DA:58,499
DA:59,499
DA:62,332062609
DA:76,399253
DA:89,17480344
DA:92,17480344
DA:93,17479000
DA:94,17479000
DA:95,17201110
DA:96,17201110
DA:99,279234
LF:11
LH:11
end_of_record
TN:
SF:/home/apetrini/dev/src/zen/src/leveldb/util/comparator.cc
FN:14,_ZN7leveldb10ComparatorD0Ev
FN:14,_ZN7leveldb10ComparatorD2Ev
FN:21,_ZNK7leveldb12_GLOBAL__N_122BytewiseComparatorImpl4NameEv
FN:25,_ZNK7leveldb12_GLOBAL__N_122BytewiseComparatorImpl7CompareERKNS_5SliceES4_
FN:29,_ZNK7leveldb12_GLOBAL__N_122BytewiseComparatorImpl21FindShortestSeparatorEPNSt7__cxx1112basic_stringIcSt11char_traitsIcESaIcEEERKNS_5SliceE
FN:53,_ZNK7leveldb12_GLOBAL__N_122BytewiseComparatorImpl18FindShortSuccessorEPNSt7__cxx1112basic_stringIcSt11char_traitsIcESaIcEEE
FN:72,_ZN7leveldbL10InitModuleEv
FN:76,_ZN7leveldb18BytewiseComparatorEv
FNDA:6006,_ZN7leveldb10ComparatorD2Ev
FNDA:0,_ZN7leveldb10ComparatorD0Ev
FNDA:380,_ZNK7leveldb12_GLOBAL__N_122BytewiseComparatorImpl18FindShortSuccessorEPNSt7__cxx1112basic_stringIcSt11char_traitsIcESaIcEEE
FNDA:2960,_ZN7leveldb18BytewiseComparatorEv
FNDA:490,_ZN7leveldbL10InitModuleEv
FNDA:110860433,_ZNK7leveldb12_GLOBAL__N_122BytewiseComparatorImpl7CompareERKNS_5SliceES4_
FNDA:2588,_ZNK7leveldb12_GLOBAL__N_122BytewiseComparatorImpl4NameEv
FNDA:4961,_ZNK7leveldb12_GLOBAL__N_122BytewiseComparatorImpl21FindShortestSeparatorEPNSt7__cxx1112basic_stringIcSt11char_traitsIcESaIcEEERKNS_5SliceE
FNF:8
FNH:7
DA:14,6006
DA:19,490
DA:21,2588
DA:22,2588
DA:25,110860433
DA:26,110860433
DA:29,4961
DA:33,4961
DA:34,4961
DA:35,24890
DA:36,12445
DA:37,7484
DA:40,4961
DA:43,4961
DA:44,4961
DA:45,4961
DA:46,3255
DA:47,3255
DA:48,3255
DA:51,4961
DA:53,380
DA:55,380
DA:56,380
DA:57,380
DA:58,380
DA:59,380
DA:60,380
DA:61,380
DA:72,490
DA:73,490
DA:74,490
DA:76,2960
DA:77,2960
DA:78,2960
LF:34
LH:34
end_of_record
TN:
SF:/home/apetrini/dev/src/zen/src/leveldb/util/crc32c.cc
FN:286,_ZN7leveldb6crc32c6ExtendEjPKcm
FNDA:247539,_ZN7leveldb6crc32c6ExtendEjPKcm
FNF:1
FNH:1
DA:283,55979308
DA:286,247539
DA:287,247539
DA:288,247539
DA:289,247539
DA:306,247539
DA:307,247539
DA:308,247539
DA:310,648509
DA:311,648509
DA:315,55755333
DA:316,55755333
DA:319,719053
DA:320,719053
DA:323,436300
DA:324,436300
DA:328,247539
LF:17
LH:17
end_of_record
TN:
SF:/home/apetrini/dev/src/zen/src/leveldb/util/crc32c.h
FNF:0
FNH:0
DA:20,213683
DA:21,226623
DA:31,20916
DA:33,20916
DA:37,207202
DA:38,207202
DA:39,207202
LF:7
LH:7
end_of_record
TN:
SF:/home/apetrini/dev/src/zen/src/leveldb/util/env.cc
FN:9,_ZN7leveldb3EnvD0Ev
FN:9,_ZN7leveldb3EnvD2Ev
FN:12,_ZN7leveldb14SequentialFileD2Ev
FN:12,_ZN7leveldb14SequentialFileD0Ev
FN:15,_ZN7leveldb16RandomAccessFileD2Ev
FN:15,_ZN7leveldb16RandomAccessFileD0Ev
FN:18,_ZN7leveldb12WritableFileD2Ev
FN:18,_ZN7leveldb12WritableFileD0Ev
FN:21,_ZN7leveldb6LoggerD0Ev
FN:21,_ZN7leveldb6LoggerD2Ev
FN:24,_ZN7leveldb8FileLockD0Ev
FN:24,_ZN7leveldb8FileLockD2Ev
FN:27,_ZN7leveldb3LogEPNS_6LoggerEPKcz
FN:36,_ZN7leveldbL19DoWriteStringToFileEPNS_3EnvERKNS_5SliceERKNSt7__cxx1112basic_stringIcSt11char_traitsIcESaIcEEEb
FN:58,_ZN7leveldb17WriteStringToFileEPNS_3EnvERKNS_5SliceERKNSt7__cxx1112basic_stringIcSt11char_traitsIcESaIcEEE
FN:63,_ZN7leveldb21WriteStringToFileSyncEPNS_3EnvERKNS_5SliceERKNSt7__cxx1112basic_stringIcSt11char_traitsIcESaIcEEE
FN:68,_ZN7leveldb16ReadFileToStringEPNS_3EnvERKNSt7__cxx1112basic_stringIcSt11char_traitsIcESaIcEEEPS7_
FN:93,_ZN7leveldb10EnvWrapperD0Ev
FN:93,_ZN7leveldb10EnvWrapperD2Ev
FNDA:0,_ZN7leveldb12WritableFileD0Ev
FNDA:984,_ZN7leveldb8FileLockD2Ev
FNDA:0,_ZN7leveldb10EnvWrapperD2Ev
FNDA:982,_ZN7leveldb16ReadFileToStringEPNS_3EnvERKNSt7__cxx1112basic_stringIcSt11char_traitsIcESaIcEEEPS7_
FNDA:982,_ZN7leveldb6LoggerD2Ev
FNDA:499,_ZN7leveldb16RandomAccessFileD2Ev
FNDA:2568,_ZN7leveldb3LogEPNS_6LoggerEPKcz
FNDA:1606,_ZN7leveldb21WriteStringToFileSyncEPNS_3EnvERKNS_5SliceERKNSt7__cxx1112basic_stringIcSt11char_traitsIcESaIcEEE
FNDA:0,_ZN7leveldb16RandomAccessFileD0Ev
FNDA:1606,_ZN7leveldbL19DoWriteStringToFileEPNS_3EnvERKNS_5SliceERKNSt7__cxx1112basic_stringIcSt11char_traitsIcESaIcEEEb
FNDA:2322,_ZN7leveldb14SequentialFileD2Ev
FNDA:4574,_ZN7leveldb12WritableFileD2Ev
FNDA:0,_ZN7leveldb6LoggerD0Ev
FNDA:0,_ZN7leveldb17WriteStringToFileEPNS_3EnvERKNS_5SliceERKNSt7__cxx1112basic_stringIcSt11char_traitsIcESaIcEEE
FNDA:0,_ZN7leveldb14SequentialFileD0Ev
FNDA:0,_ZN7leveldb3EnvD0Ev
FNDA:0,_ZN7leveldb3EnvD2Ev
FNDA:0,_ZN7leveldb8FileLockD0Ev
FNDA:0,_ZN7leveldb10EnvWrapperD0Ev
FNF:19
FNH:9
DA:9,0
DA:10,0
DA:12,2322
DA:13,2322
DA:15,499
DA:16,499
DA:18,4574
DA:19,4574
DA:21,982
DA:22,982
DA:24,984
DA:25,984
DA:27,2568
DA:28,2568
DA:29,2568
DA:30,2568
DA:31,2568
DA:32,2568
DA:34,2568
DA:36,1606
DA:39,1606
DA:40,1606
DA:41,1606
DA:44,1606
DA:45,1606
DA:46,3212
DA:48,1606
DA:49,3212
DA:51,1606
DA:52,3212
DA:53,0
DA:56,0
DA:58,0
DA:60,0
DA:63,1606
DA:65,1606
DA:68,982
DA:69,982
DA:70,982
DA:71,982
DA:72,982
DA:75,982
DA:76,982
DA:77,2946
DA:78,1964
DA:79,1964
DA:80,1964
DA:83,1964
DA:84,1964
DA:87,982
DA:88,982
DA:89,982
DA:91,0
DA:93,0
DA:94,0
LF:55
LH:46
end_of_record
TN:
SF:/home/apetrini/dev/src/zen/src/leveldb/util/env_posix.cc
FN:32,_ZN7leveldb12_GLOBAL__N_1L7IOErrorERKNSt7__cxx1112basic_stringIcSt11char_traitsIcESaIcEEEi
FN:42,_ZN7leveldb12_GLOBAL__N_119PosixSequentialFileC2ERKNSt7__cxx1112basic_stringIcSt11char_traitsIcESaIcEEEP8_IO_FILE
FN:44,_ZN7leveldb12_GLOBAL__N_119PosixSequentialFileD2Ev
FN:44,_ZN7leveldb12_GLOBAL__N_119PosixSequentialFileD0Ev
FN:46,_ZN7leveldb12_GLOBAL__N_119PosixSequentialFile4ReadEmPNS_5SliceEPc
FN:61,_ZN7leveldb12_GLOBAL__N_119PosixSequentialFile4SkipEm
FN:76,_ZN7leveldb12_GLOBAL__N_121PosixRandomAccessFileC2ERKNSt7__cxx1112basic_stringIcSt11char_traitsIcESaIcEEEi
FN:78,_ZN7leveldb12_GLOBAL__N_121PosixRandomAccessFileD0Ev
FN:78,_ZN7leveldb12_GLOBAL__N_121PosixRandomAccessFileD2Ev
FN:80,_ZNK7leveldb12_GLOBAL__N_121PosixRandomAccessFile4ReadEmmPNS_5SliceEPc
FN:105,_ZN7leveldb12_GLOBAL__N_111MmapLimiter7AcquireEv
FN:120,_ZN7leveldb12_GLOBAL__N_111MmapLimiter7ReleaseEv
FN:152,_ZN7leveldb12_GLOBAL__N_121PosixMmapReadableFileC2ERKNSt7__cxx1112basic_stringIcSt11char_traitsIcESaIcEEEPvmPNS0_11MmapLimiterE
FN:158,_ZN7leveldb12_GLOBAL__N_121PosixMmapReadableFileD0Ev
FN:158,_ZN7leveldb12_GLOBAL__N_121PosixMmapReadableFileD2Ev
FN:163,_ZNK7leveldb12_GLOBAL__N_121PosixMmapReadableFile4ReadEmmPNS_5SliceEPc
FN:182,_ZN7leveldb12_GLOBAL__N_117PosixWritableFileC2ERKNSt7__cxx1112basic_stringIcSt11char_traitsIcESaIcEEEP8_IO_FILE
FN:185,_ZN7leveldb12_GLOBAL__N_117PosixWritableFileD0Ev
FN:185,_ZN7leveldb12_GLOBAL__N_117PosixWritableFileD2Ev
FN:192,_ZN7leveldb12_GLOBAL__N_117PosixWritableFile6AppendERKNS_5SliceE
FN:200,_ZN7leveldb12_GLOBAL__N_117PosixWritableFile5CloseEv
FN:209,_ZN7leveldb12_GLOBAL__N_117PosixWritableFile5FlushEv
FN:216,_ZN7leveldb12_GLOBAL__N_117PosixWritableFile17SyncDirIfManifestEv
FN:243,_ZN7leveldb12_GLOBAL__N_117PosixWritableFile4SyncEv
FN:257,_ZN7leveldb12_GLOBAL__N_1L12LockOrUnlockEib
FN:282,_ZN7leveldb12_GLOBAL__N_114PosixLockTable6InsertERKNSt7__cxx1112basic_stringIcSt11char_traitsIcESaIcEEE
FN:286,_ZN7leveldb12_GLOBAL__N_114PosixLockTable6RemoveERKNSt7__cxx1112basic_stringIcSt11char_traitsIcESaIcEEE
FN:295,_ZN7leveldb12_GLOBAL__N_18PosixEnvD0Ev
FN:295,_ZN7leveldb12_GLOBAL__N_18PosixEnvD2Ev
FN:301,_ZN7leveldb12_GLOBAL__N_18PosixEnv17NewSequentialFileERKNSt7__cxx1112basic_stringIcSt11char_traitsIcESaIcEEEPPNS_14SequentialFileE
FN:313,_ZN7leveldb12_GLOBAL__N_18PosixEnv19NewRandomAccessFileERKNSt7__cxx1112basic_stringIcSt11char_traitsIcESaIcEEEPPNS_16RandomAccessFileE
FN:341,_ZN7leveldb12_GLOBAL__N_18PosixEnv15NewWritableFileERKNSt7__cxx1112basic_stringIcSt11char_traitsIcESaIcEEEPPNS_12WritableFileE
FN:354,_ZN7leveldb12_GLOBAL__N_18PosixEnv10FileExistsERKNSt7__cxx1112basic_stringIcSt11char_traitsIcESaIcEEE
FN:358,_ZN7leveldb12_GLOBAL__N_18PosixEnv11GetChildrenERKNSt7__cxx1112basic_stringIcSt11char_traitsIcESaIcEEEPSt6vectorIS7_SaIS7_EE
FN:373,_ZN7leveldb12_GLOBAL__N_18PosixEnv10DeleteFileERKNSt7__cxx1112basic_stringIcSt11char_traitsIcESaIcEEE
FN:381,_ZN7leveldb12_GLOBAL__N_18PosixEnv9CreateDirERKNSt7__cxx1112basic_stringIcSt11char_traitsIcESaIcEEE
FN:389,_ZN7leveldb12_GLOBAL__N_18PosixEnv9DeleteDirERKNSt7__cxx1112basic_stringIcSt11char_traitsIcESaIcEEE
FN:397,_ZN7leveldb12_GLOBAL__N_18PosixEnv11GetFileSizeERKNSt7__cxx1112basic_stringIcSt11char_traitsIcESaIcEEEPm
FN:409,_ZN7leveldb12_GLOBAL__N_18PosixEnv10RenameFileERKNSt7__cxx1112basic_stringIcSt11char_traitsIcESaIcEEES9_
FN:417,_ZN7leveldb12_GLOBAL__N_18PosixEnv8LockFileERKNSt7__cxx1112basic_stringIcSt11char_traitsIcESaIcEEEPPNS_8FileLockE
FN:439,_ZN7leveldb12_GLOBAL__N_18PosixEnv10UnlockFileEPNS_8FileLockE
FN:455,_ZN7leveldb12_GLOBAL__N_18PosixEnv16GetTestDirectoryEPNSt7__cxx1112basic_stringIcSt11char_traitsIcESaIcEEE
FN:469,_ZN7leveldb12_GLOBAL__N_18PosixEnv6gettidEv
FN:476,_ZN7leveldb12_GLOBAL__N_18PosixEnv9NewLoggerERKNSt7__cxx1112basic_stringIcSt11char_traitsIcESaIcEEEPPNS_6LoggerE
FN:487,_ZN7leveldb12_GLOBAL__N_18PosixEnv9NowMicrosEv
FN:493,_ZN7leveldb12_GLOBAL__N_18PosixEnv20SleepForMicrosecondsEi
FN:498,_ZN7leveldb12_GLOBAL__N_18PosixEnv11PthreadCallEPKci
FN:507,_ZN7leveldb12_GLOBAL__N_18PosixEnv15BGThreadWrapperEPv
FN:526,_ZN7leveldb12_GLOBAL__N_18PosixEnvC2Ev
FN:531,_ZN7leveldb12_GLOBAL__N_18PosixEnv8ScheduleEPFvPvES2_
FN:556,_ZN7leveldb12_GLOBAL__N_18PosixEnv8BGThreadEv
FN:579,_ZN7leveldb12_GLOBAL__N_1L18StartThreadWrapperEPv
FN:586,_ZN7leveldb12_GLOBAL__N_18PosixEnv11StartThreadEPFvPvES2_
FN:599,_ZN7leveldbL14InitDefaultEnvEv
FN:601,_ZN7leveldb3Env7DefaultEv
FNDA:982,_ZN7leveldb12_GLOBAL__N_18PosixEnv9NewLoggerERKNSt7__cxx1112basic_stringIcSt11char_traitsIcESaIcEEEPPNS_6LoggerE
FNDA:490,_ZN7leveldbL14InitDefaultEnvEv
FNDA:1416,_ZN7leveldb12_GLOBAL__N_18PosixEnv10DeleteFileERKNSt7__cxx1112basic_stringIcSt11char_traitsIcESaIcEEE
FNDA:3734,_ZN7leveldb12_GLOBAL__N_119PosixSequentialFile4ReadEmPNS_5SliceEPc
FNDA:499,_ZN7leveldb12_GLOBAL__N_111MmapLimiter7AcquireEv
FNDA:3790,_ZN7leveldb12_GLOBAL__N_117PosixWritableFile17SyncDirIfManifestEv
FNDA:0,_ZN7leveldb12_GLOBAL__N_121PosixRandomAccessFileD0Ev
FNDA:0,_ZN7leveldb12_GLOBAL__N_119PosixSequentialFile4SkipEm
FNDA:499,_ZN7leveldb12_GLOBAL__N_18PosixEnv19NewRandomAccessFileERKNSt7__cxx1112basic_stringIcSt11char_traitsIcESaIcEEEPPNS_16RandomAccessFileE
FNDA:2322,_ZN7leveldb12_GLOBAL__N_119PosixSequentialFileD2Ev
FNDA:0,_ZN7leveldb12_GLOBAL__N_18PosixEnvD0Ev
FNDA:1988,_ZN7leveldb12_GLOBAL__N_18PosixEnv11GetChildrenERKNSt7__cxx1112basic_stringIcSt11char_traitsIcESaIcEEEPSt6vectorIS7_SaIS7_EE
FNDA:1968,_ZN7leveldb12_GLOBAL__N_1L12LockOrUnlockEib
FNDA:1964,_ZN7leveldb12_GLOBAL__N_18PosixEnv9CreateDirERKNSt7__cxx1112basic_stringIcSt11char_traitsIcESaIcEEE
FNDA:204884,_ZNK7leveldb12_GLOBAL__N_121PosixMmapReadableFile4ReadEmmPNS_5SliceEPc
FNDA:18,_ZN7leveldb12_GLOBAL__N_18PosixEnv8BGThreadEv
FNDA:760,_ZN7leveldb12_GLOBAL__N_18PosixEnv9NowMicrosEv
FNDA:2588,_ZN7leveldb12_GLOBAL__N_18PosixEnv10RenameFileERKNSt7__cxx1112basic_stringIcSt11char_traitsIcESaIcEEES9_
FNDA:984,_ZN7leveldb12_GLOBAL__N_18PosixEnv10UnlockFileEPNS_8FileLockE
FNDA:1130,_ZN7leveldb12_GLOBAL__N_18PosixEnv11PthreadCallEPKci
FNDA:984,_ZN7leveldb12_GLOBAL__N_114PosixLockTable6InsertERKNSt7__cxx1112basic_stringIcSt11char_traitsIcESaIcEEE
FNDA:22,_ZN7leveldb12_GLOBAL__N_18PosixEnv8ScheduleEPFvPvES2_
FNDA:0,_ZN7leveldb12_GLOBAL__N_18PosixEnv16GetTestDirectoryEPNSt7__cxx1112basic_stringIcSt11char_traitsIcESaIcEEE
FNDA:0,_ZN7leveldb12_GLOBAL__N_18PosixEnv20SleepForMicrosecondsEi
FNDA:0,_ZN7leveldb12_GLOBAL__N_121PosixRandomAccessFileC2ERKNSt7__cxx1112basic_stringIcSt11char_traitsIcESaIcEEEi
FNDA:0,_ZN7leveldb12_GLOBAL__N_1L18StartThreadWrapperEPv
FNDA:2322,_ZN7leveldb12_GLOBAL__N_119PosixSequentialFileD0Ev
FNDA:490,_ZN7leveldb12_GLOBAL__N_18PosixEnvC2Ev
FNDA:982,_ZN7leveldb12_GLOBAL__N_18PosixEnv10FileExistsERKNSt7__cxx1112basic_stringIcSt11char_traitsIcESaIcEEE
FNDA:19776,_ZN7leveldb12_GLOBAL__N_117PosixWritableFile5FlushEv
FNDA:2461,_ZN7leveldb3Env7DefaultEv
FNDA:2568,_ZN7leveldb12_GLOBAL__N_18PosixEnv6gettidEv
FNDA:18,_ZN7leveldb12_GLOBAL__N_18PosixEnv15BGThreadWrapperEPv
FNDA:2322,_ZN7leveldb12_GLOBAL__N_119PosixSequentialFileC2ERKNSt7__cxx1112basic_stringIcSt11char_traitsIcESaIcEEEP8_IO_FILE
FNDA:0,_ZN7leveldb12_GLOBAL__N_18PosixEnv11StartThreadEPFvPvES2_
FNDA:2322,_ZN7leveldb12_GLOBAL__N_18PosixEnv17NewSequentialFileERKNSt7__cxx1112basic_stringIcSt11char_traitsIcESaIcEEEPPNS_14SequentialFileE
FNDA:0,_ZN7leveldb12_GLOBAL__N_121PosixRandomAccessFileD2Ev
FNDA:499,_ZN7leveldb12_GLOBAL__N_121PosixMmapReadableFileC2ERKNSt7__cxx1112basic_stringIcSt11char_traitsIcESaIcEEEPvmPNS0_11MmapLimiterE
FNDA:499,_ZN7leveldb12_GLOBAL__N_18PosixEnv11GetFileSizeERKNSt7__cxx1112basic_stringIcSt11char_traitsIcESaIcEEEPm
FNDA:2588,_ZN7leveldb12_GLOBAL__N_1L7IOErrorERKNSt7__cxx1112basic_stringIcSt11char_traitsIcESaIcEEEi
FNDA:4574,_ZN7leveldb12_GLOBAL__N_18PosixEnv15NewWritableFileERKNSt7__cxx1112basic_stringIcSt11char_traitsIcESaIcEEEPPNS_12WritableFileE
FNDA:499,_ZN7leveldb12_GLOBAL__N_121PosixMmapReadableFileD2Ev
FNDA:4574,_ZN7leveldb12_GLOBAL__N_117PosixWritableFileD2Ev
FNDA:4574,_ZN7leveldb12_GLOBAL__N_117PosixWritableFileC2ERKNSt7__cxx1112basic_stringIcSt11char_traitsIcESaIcEEEP8_IO_FILE
FNDA:4574,_ZN7leveldb12_GLOBAL__N_117PosixWritableFileD0Ev
FNDA:3790,_ZN7leveldb12_GLOBAL__N_117PosixWritableFile4SyncEv
FNDA:0,_ZNK7leveldb12_GLOBAL__N_121PosixRandomAccessFile4ReadEmmPNS_5SliceEPc
FNDA:2610,_ZN7leveldb12_GLOBAL__N_117PosixWritableFile5CloseEv
FNDA:984,_ZN7leveldb12_GLOBAL__N_18PosixEnv8LockFileERKNSt7__cxx1112basic_stringIcSt11char_traitsIcESaIcEEEPPNS_8FileLockE
FNDA:499,_ZN7leveldb12_GLOBAL__N_111MmapLimiter7ReleaseEv
FNDA:43818,_ZN7leveldb12_GLOBAL__N_117PosixWritableFile6AppendERKNS_5SliceE
FNDA:0,_ZN7leveldb12_GLOBAL__N_18PosixEnvD2Ev
FNDA:499,_ZN7leveldb12_GLOBAL__N_121PosixMmapReadableFileD0Ev
FNDA:984,_ZN7leveldb12_GLOBAL__N_114PosixLockTable6RemoveERKNSt7__cxx1112basic_stringIcSt11char_traitsIcESaIcEEE
FNDA:2,_ZN7leveldb12_GLOBAL__N_18PosixEnv9DeleteDirERKNSt7__cxx1112basic_stringIcSt11char_traitsIcESaIcEEE
FNF:55
FNH:44
DA:32,2588
DA:33,2588
DA:42,2322
DA:43,2322
DA:44,6966
DA:46,3734
DA:47,3734
DA:48,3734
DA:49,3734
DA:50,3734
DA:51,3304
DA:55,0
DA:58,3734
DA:59,0
DA:61,0
DA:62,0
DA:63,0
DA:65,0
DA:76,0
DA:77,0
DA:78,0
DA:80,0
DA:82,0
DA:83,0
DA:84,0
DA:85,0
DA:87,0
DA:89,0
DA:90,0
DA:96,0
DA:99,490
DA:100,980
DA:105,499
DA:106,998
DA:109,499
DA:110,998
DA:111,499
DA:114,998
DA:115,499
DA:117,499
DA:120,499
DA:121,499
DA:122,1497
DA:123,499
DA:129,1497
DA:130,1497
DA:134,1488
DA:135,1488
DA:152,499
DA:154,998
DA:155,499
DA:156,499
DA:158,998
DA:159,499
DA:160,499
DA:161,1497
DA:163,204884
DA:165,204884
DA:166,204884
DA:167,0
DA:168,0
DA:170,204884
DA:172,204884
DA:173,0
DA:182,4574
DA:183,4574
DA:185,9148
DA:186,4574
DA:188,1964
DA:190,13722
DA:192,43818
DA:193,43818
DA:194,43818
DA:195,0
DA:197,43818
DA:200,2610
DA:201,2610
DA:202,2610
DA:203,0
DA:205,2610
DA:206,2610
DA:207,0
DA:209,19776
DA:210,19776
DA:211,0
DA:213,19776
DA:216,3790
DA:217,3790
DA:218,3790
DA:219,3790
DA:220,3790
DA:221,3790
DA:222,0
DA:223,0
DA:225,7580
DA:226,3790
DA:228,3790
DA:229,3790
DA:230,1004
DA:231,1004
DA:232,0
DA:234,1004
DA:235,0
DA:237,1004
DA:240,3790
DA:241,3790
DA:243,3790
DA:245,3790
DA:246,3790
DA:249,7580
DA:250,3790
DA:251,0
DA:254,0
DA:257,1968
DA:258,1968
DA:259,1968
DA:260,1968
DA:261,1968
DA:262,1968
DA:263,1968
DA:264,1968
DA:265,1968
DA:268,984
DA:277,490
DA:282,984
DA:283,984
DA:284,984
DA:285,984
DA:286,984
DA:287,984
DA:288,984
DA:289,984
DA:295,0
DA:296,0
DA:297,0
DA:298,0
DA:299,0
DA:301,2322
DA:303,2322
DA:304,2322
DA:305,0
DA:306,0
DA:308,2322
DA:309,2322
DA:313,499
DA:315,499
DA:316,499
DA:317,499
DA:318,499
DA:319,0
DA:320,499
DA:321,499
DA:322,499
DA:323,499
DA:324,499
DA:325,499
DA:326,499
DA:328,0
DA:331,499
DA:332,499
DA:333,0
DA:336,0
DA:338,499
DA:339,0
DA:341,4574
DA:343,4574
DA:344,4574
DA:345,4574
DA:346,0
DA:347,0
DA:349,4574
DA:351,4574
DA:352,0
DA:354,982
DA:355,982
DA:358,1988
DA:360,1988
DA:361,1988
DA:362,1988
DA:363,0
DA:366,18052
DA:367,32128
DA:369,1988
DA:370,1988
DA:373,1416
DA:374,1416
DA:375,1416
DA:376,0
DA:378,1416
DA:379,0
DA:381,1964
DA:382,1964
DA:383,1964
DA:384,3928
DA:386,1964
DA:387,0
DA:389,2
DA:390,2
DA:391,2
DA:392,0
DA:394,2
DA:395,0
DA:397,499
DA:398,499
DA:399,499
DA:400,499
DA:401,0
DA:402,0
DA:404,499
DA:406,499
DA:407,0
DA:409,2588
DA:410,2588
DA:411,2588
DA:412,1248
DA:414,2588
DA:415,0
DA:417,984
DA:418,984
DA:419,984
DA:420,984
DA:421,984
DA:422,0
DA:423,984
DA:424,0
DA:425,0
DA:426,984
DA:427,0
DA:428,0
DA:429,0
DA:431,984
DA:432,984
DA:433,984
DA:434,984
DA:436,984
DA:437,0
DA:439,984
DA:440,984
DA:441,984
DA:442,984
DA:443,0
DA:445,984
DA:446,984
DA:447,984
DA:448,984
DA:449,0
DA:455,0
DA:456,0
DA:457,0
DA:458,0
DA:460,0
DA:461,0
DA:462,0
DA:465,0
DA:466,0
DA:469,2568
DA:470,2568
DA:471,2568
DA:472,2568
DA:473,2568
DA:476,982
DA:477,982
DA:478,982
DA:479,0
DA:480,0
DA:482,982
DA:483,982
DA:487,760
DA:488,760
DA:489,760
DA:490,760
DA:493,0
DA:494,0
DA:495,0
DA:498,1130
DA:499,1130
DA:500,0
DA:501,0
DA:503,1130
DA:507,18
DA:508,18
DA:526,490
DA:527,490
DA:528,490
DA:529,490
DA:531,22
DA:532,22
DA:535,22
DA:536,18
DA:537,18
DA:544,22
DA:545,22
DA:549,22
DA:550,22
DA:551,22
DA:553,22
DA:554,22
DA:556,18
DA:557,62
DA:559,40
DA:560,84
DA:561,22
DA:564,22
DA:565,22
DA:566,22
DA:568,22
DA:569,22
DA:570,22
DA:579,0
DA:580,0
DA:581,0
DA:582,0
DA:583,0
DA:586,0
DA:587,0
DA:588,0
DA:589,0
DA:590,0
DA:591,0
DA:593,0
DA:599,490
DA:601,2461
DA:602,2461
DA:603,2461
LF:324
LH:231
end_of_record
TN:
SF:/home/apetrini/dev/src/zen/src/leveldb/util/filter_policy.cc
FN:9,_ZN7leveldb12FilterPolicyD0Ev
FN:9,_ZN7leveldb12FilterPolicyD2Ev
FNDA:1962,_ZN7leveldb12FilterPolicyD2Ev
FNDA:0,_ZN7leveldb12FilterPolicyD0Ev
FNF:2
FNH:1
DA:9,1962
LF:1
LH:1
end_of_record
TN:
SF:/home/apetrini/dev/src/zen/src/leveldb/util/hash.cc
FN:18,_ZN7leveldb4HashEPKcmj
FNDA:31564129,_ZN7leveldb4HashEPKcmj
FNF:1
FNH:1
DA:18,31564129
DA:20,31564129
DA:21,31564129
DA:22,31564129
DA:23,31564129
DA:26,189359166
DA:27,157795037
DA:28,157795037
DA:29,157795037
DA:30,157795037
DA:31,157795037
DA:35,31564129
DA:36,0
DA:37,0
DA:38,560
DA:39,560
DA:40,560
DA:41,15733706
DA:42,15733706
DA:43,15733706
DA:44,15733706
DA:45,15733706
DA:46,15733706
DA:48,31564129
LF:24
LH:22
end_of_record
TN:
SF:/home/apetrini/dev/src/zen/src/leveldb/util/histogram.cc
FN:33,_ZN7leveldb9Histogram5ClearEv
FN:44,_ZN7leveldb9Histogram3AddEd
FN:58,_ZN7leveldb9Histogram5MergeERKS0_
FN:69,_ZNK7leveldb9Histogram6MedianEv
FN:73,_ZNK7leveldb9Histogram10PercentileEd
FN:94,_ZNK7leveldb9Histogram7AverageEv
FN:99,_ZNK7leveldb9Histogram17StandardDeviationEv
FN:105,_ZNK7leveldb9Histogram8ToStringB5cxx11Ev
FNDA:0,_ZNK7leveldb9Histogram17StandardDeviationEv
FNDA:0,_ZNK7leveldb9Histogram10PercentileEd
FNDA:0,_ZN7leveldb9Histogram5MergeERKS0_
FNDA:0,_ZN7leveldb9Histogram5ClearEv
FNDA:0,_ZNK7leveldb9Histogram6MedianEv
FNDA:0,_ZNK7leveldb9Histogram7AverageEv
FNDA:0,_ZN7leveldb9Histogram3AddEd
FNDA:0,_ZNK7leveldb9Histogram8ToStringB5cxx11Ev
FNF:8
FNH:0
DA:33,0
DA:34,0
DA:35,0
DA:36,0
DA:37,0
DA:38,0
DA:39,0
DA:40,0
DA:42,0
DA:44,0
DA:46,0
DA:47,0
DA:48,0
DA:50,0
DA:51,0
DA:52,0
DA:53,0
DA:54,0
DA:55,0
DA:56,0
DA:58,0
DA:59,0
DA:60,0
DA:61,0
DA:62,0
DA:63,0
DA:64,0
DA:65,0
DA:67,0
DA:69,0
DA:70,0
DA:73,0
DA:74,0
DA:75,0
DA:76,0
DA:77,0
DA:78,0
DA:80,0
DA:81,0
DA:82,0
DA:83,0
DA:84,0
DA:85,0
DA:86,0
DA:87,0
DA:88,0
DA:91,0
DA:94,0
DA:95,0
DA:96,0
DA:99,0
DA:100,0
DA:101,0
DA:102,0
DA:105,0
DA:106,0
DA:107,0
DA:108,0
DA:110,0
DA:111,0
DA:112,0
DA:114,0
DA:115,0
DA:116,0
DA:117,0
DA:118,0
DA:119,0
DA:120,0
DA:121,0
DA:122,0
DA:124,0
DA:125,0
DA:129,0
DA:132,0
DA:133,0
DA:134,0
DA:136,0
DA:137,0
LF:78
LH:0
end_of_record
TN:
SF:/home/apetrini/dev/src/zen/src/leveldb/util/logging.cc
FN:16,_ZN7leveldb14AppendNumberToEPNSt7__cxx1112basic_stringIcSt11char_traitsIcESaIcEEEm
FN:22,_ZN7leveldb21AppendEscapedStringToEPNSt7__cxx1112basic_stringIcSt11char_traitsIcESaIcEEERKNS_5SliceE
FN:36,_ZN7leveldb14NumberToStringB5cxx11Em
FN:42,_ZN7leveldb12EscapeStringB5cxx11ERKNS_5SliceE
FN:48,_ZN7leveldb20ConsumeDecimalNumberEPNS_5SliceEPm
FNDA:0,_ZN7leveldb14AppendNumberToEPNSt7__cxx1112basic_stringIcSt11char_traitsIcESaIcEEEm
FNDA:0,_ZN7leveldb12EscapeStringB5cxx11ERKNS_5SliceE
FNDA:0,_ZN7leveldb21AppendEscapedStringToEPNSt7__cxx1112basic_stringIcSt11char_traitsIcESaIcEEERKNS_5SliceE
FNDA:9362,_ZN7leveldb20ConsumeDecimalNumberEPNS_5SliceEPm
FNDA:0,_ZN7leveldb14NumberToStringB5cxx11Em
FNF:5
FNH:1
DA:16,0
DA:17,0
DA:18,0
DA:19,0
DA:20,0
DA:22,0
DA:23,0
DA:24,0
DA:25,0
DA:26,0
DA:28,0
DA:29,0
DA:30,0
DA:31,0
DA:34,0
DA:36,0
DA:37,0
DA:38,0
DA:39,0
DA:40,0
DA:42,0
DA:43,0
DA:44,0
DA:45,0
DA:46,0
DA:48,9362
DA:49,9362
DA:50,9362
DA:51,41678
DA:52,38708
DA:53,38708
DA:54,32316
DA:55,32316
DA:56,32316
DA:57,32316
DA:58,0
DA:62,32316
DA:63,32316
DA:68,9362
DA:69,9362
LF:40
LH:14
end_of_record
TN:
SF:/home/apetrini/dev/src/zen/src/leveldb/util/mutexlock.h
FNF:0
FNH:0
DA:25,50581509
DA:26,50581509
DA:27,50581509
DA:28,19120453
DA:29,50581509
LF:5
LH:5
end_of_record
TN:
SF:/home/apetrini/dev/src/zen/src/leveldb/util/options.cc
FN:12,_ZN7leveldb7OptionsC2Ev
FNDA:2461,_ZN7leveldb7OptionsC2Ev
FNF:1
FNH:1
DA:12,2461
DA:13,2461
DA:14,2461
DA:15,2461
DA:16,2461
DA:17,2461
DA:18,2461
DA:19,2461
DA:20,2461
DA:21,2461
DA:22,2461
DA:23,2461
DA:24,2461
DA:25,2461
DA:26,2461
LF:15
LH:15
end_of_record
TN:
SF:/home/apetrini/dev/src/zen/src/leveldb/util/posix_logger.h
FN:25,_ZN7leveldb11PosixLoggerD0Ev
FN:25,_ZN7leveldb11PosixLoggerD2Ev
FN:28,_ZN7leveldb11PosixLogger4LogvEPKcP13__va_list_tag
FNDA:982,_ZN7leveldb11PosixLoggerD0Ev
FNDA:2568,_ZN7leveldb11PosixLogger4LogvEPKcP13__va_list_tag
FNDA:982,_ZN7leveldb11PosixLoggerD2Ev
FNF:3
FNH:3
DA:24,982
DA:25,1964
DA:26,982
DA:27,1964
DA:28,2568
DA:29,2568
DA:34,2568
DA:35,2568
DA:36,2568
DA:37,2568
DA:41,0
DA:42,0
DA:44,2568
DA:45,2568
DA:47,2568
DA:48,2568
DA:49,2568
DA:50,2568
DA:51,2568
DA:52,2568
DA:54,2568
DA:55,2568
DA:60,2568
DA:64,2568
DA:65,2568
DA:66,2568
DA:67,2568
DA:68,2568
DA:72,2568
DA:73,0
DA:74,0
DA:76,0
DA:81,2568
DA:82,1162
DA:85,2568
DA:86,2568
DA:87,2568
DA:88,2568
DA:89,0
DA:91,2568
DA:93,2568
LF:41
LH:35
end_of_record
TN:
SF:/home/apetrini/dev/src/zen/src/leveldb/util/random.h
FNF:0
FNH:0
DA:19,3438
DA:21,3438
DA:22,0
DA:25,459578
DA:26,459578
DA:27,459578
DA:34,459578
DA:37,459578
DA:41,459578
DA:42,0
DA:44,459578
DA:48,2274
LF:12
LH:10
end_of_record
TN:
SF:/home/apetrini/dev/src/zen/src/leveldb/util/status.cc
FN:11,_ZN7leveldb6Status9CopyStateEPKc
FN:19,_ZN7leveldb6StatusC2ENS0_4CodeERKNS_5SliceES4_
FN:36,_ZNK7leveldb6Status8ToStringB5cxx11Ev
FNDA:19062779,_ZN7leveldb6StatusC2ENS0_4CodeERKNS_5SliceES4_
FNDA:19063555,_ZN7leveldb6Status9CopyStateEPKc
FNDA:358,_ZNK7leveldb6Status8ToStringB5cxx11Ev
FNF:3
FNH:3
DA:11,19063555
DA:12,19063555
DA:13,19063555
DA:14,19063555
DA:15,19063555
DA:16,19063555
DA:19,19062779
DA:20,19062779
DA:21,19062779
DA:22,19062779
DA:23,19062779
DA:24,19062779
DA:25,19062779
DA:26,19062779
DA:27,19062779
DA:28,19062779
DA:29,2588
DA:30,2588
DA:31,2588
DA:33,19062779
DA:34,19062779
DA:36,358
DA:37,358
DA:38,358
DA:40,0
DA:41,0
DA:42,0
DA:46,0
DA:47,0
DA:48,0
DA:49,0
DA:50,0
DA:51,0
DA:52,0
DA:53,0
DA:54,0
DA:55,0
DA:56,0
DA:57,0
DA:58,0
DA:59,0
DA:60,0
DA:61,0
DA:62,0
DA:63,0
DA:64,0
DA:65,0
DA:67,0
DA:68,0
DA:69,0
DA:70,0
DA:71,0
LF:52
LH:24
end_of_record
TN:
SF:/home/apetrini/dev/src/zen/src/leveldbwrapper.cpp
FN:16,_Z11HandleErrorRKN7leveldb6StatusE
FN:30,_ZL10GetOptionsmbi
FN:46,_ZN15CLevelDBWrapperC2ERKN5boost10filesystem4pathEmbbbi
FN:72,_ZN15CLevelDBWrapperD2Ev
FN:84,_ZN15CLevelDBWrapper10WriteBatchER13CLevelDBBatchb
FNDA:980,_ZN15CLevelDBWrapperD2Ev
FNDA:980,_ZL10GetOptionsmbi
FNDA:11756,_Z11HandleErrorRKN7leveldb6StatusE
FNDA:980,_ZN15CLevelDBWrapperC2ERKN5boost10filesystem4pathEmbbbi
FNDA:10768,_ZN15CLevelDBWrapper10WriteBatchER13CLevelDBBatchb
FNF:5
FNH:5
DA:16,11756
DA:18,11756
DA:19,11756
DA:20,0
DA:21,0
DA:22,0
DA:23,0
DA:24,0
DA:25,0
DA:26,0
DA:27,0
DA:30,980
DA:32,980
DA:33,980
DA:34,980
DA:35,980
DA:36,980
DA:37,980
DA:38,980
DA:41,980
DA:43,980
DA:46,980
DA:48,980
DA:49,980
DA:50,980
DA:51,980
DA:52,980
DA:53,980
DA:54,980
DA:55,980
DA:56,0
DA:57,0
DA:59,980
DA:60,2
DA:61,2
DA:62,2
DA:63,2
DA:64,980
DA:65,980
DA:67,980
DA:68,980
DA:69,980
DA:70,980
DA:72,980
DA:74,980
DA:75,980
DA:76,980
DA:77,980
DA:78,980
DA:79,980
DA:80,980
DA:81,980
DA:82,980
DA:84,10768
DA:86,10768
DA:87,10768
DA:88,10768
DA:89,10768
LF:58
LH:48
end_of_record
TN:
SF:/home/apetrini/dev/src/zen/src/leveldbwrapper.h
FN:37,_ZN13CLevelDBBatch5WriteISt4pairIc7uint256E15CDiskBlockIndexEEvRKT_RKT0_
FN:37,_ZN13CLevelDBBatch5WriteISt4pairIc7uint256E6CCoinsEEvRKT_RKT0_
FN:37,_ZN13CLevelDBBatch5WriteISt4pairIcS1_I7uint25613CFieldElementEEbEEvRKT_RKT0_
FN:37,_ZN13CLevelDBBatch5WriteISt4pairIcNSt7__cxx1112basic_stringIcSt11char_traitsIcESaIcEEEEcEEvRKT_RKT0_
FN:37,_ZN13CLevelDBBatch5WriteISt4pairIc7uint256EbEEvRKT_RKT0_
FN:37,_ZN13CLevelDBBatch5WriteISt4pairIc7uint256E13CTxIndexValueEEvRKT_RKT0_
FN:37,_ZN13CLevelDBBatch5WriteISt4pairIciE16CSidechainEventsEEvRKT_RKT0_
FN:37,_ZN13CLevelDBBatch5WriteIc7uint256EEvRKT_RKT0_
FN:37,_ZN13CLevelDBBatch5WriteISt4pairIc7uint256EN8libzcash21IncrementalMerkleTreeILm29ENS4_14SHA256CompressEEEEEvRKT_RKT0_
FN:37,_ZN13CLevelDBBatch5WriteISt4pairIciE14CBlockFileInfoEEvRKT_RKT0_
FN:37,_ZN13CLevelDBBatch5WriteIccEEvRKT_RKT0_
FN:37,_ZN13CLevelDBBatch5WriteISt4pairIcNSt7__cxx1112basic_stringIcSt11char_traitsIcESaIcEEEES7_EEvRKT_RKT0_
FN:37,_ZN13CLevelDBBatch5WriteIciEEvRKT_RKT0_
FN:37,_ZN13CLevelDBBatch5WriteISt4pairIc18CMaturityHeightKeyE20CMaturityHeightValueEEvRKT_RKT0_
FN:37,_ZN13CLevelDBBatch5WriteISt4pairIc7uint256E10CSidechainEEvRKT_RKT0_
FN:53,_ZN13CLevelDBBatch5EraseIcEEvRKT_
FN:53,_ZN13CLevelDBBatch5EraseISt4pairIciEEEvRKT_
FN:53,_ZN13CLevelDBBatch5EraseISt4pairIc18CMaturityHeightKeyEEEvRKT_
FN:53,_ZN13CLevelDBBatch5EraseISt4pairIc7uint256EEEvRKT_
FN:53,_ZN13CLevelDBBatch5EraseISt4pairIcS1_I7uint25613CFieldElementEEEEvRKT_
FN:93,_ZNK15CLevelDBWrapper4ReadIc7uint256EEbRKT_RT0_
FN:93,_ZNK15CLevelDBWrapper4ReadIciEEbRKT_RT0_
FN:93,_ZNK15CLevelDBWrapper4ReadISt4pairIc7uint256EbEEbRKT_RT0_
FN:93,_ZNK15CLevelDBWrapper4ReadISt4pairIciE16CSidechainEventsEEbRKT_RT0_
FN:93,_ZNK15CLevelDBWrapper4ReadISt4pairIc7uint256E10CSidechainEEbRKT_RT0_
FN:93,_ZNK15CLevelDBWrapper4ReadISt4pairIc7uint256E13CTxIndexValueEEbRKT_RT0_
FN:93,_ZNK15CLevelDBWrapper4ReadISt4pairIcNSt7__cxx1112basic_stringIcSt11char_traitsIcESaIcEEEEcEEbRKT_RT0_
FN:93,_ZNK15CLevelDBWrapper4ReadISt4pairIc7uint256E6CCoinsEEbRKT_RT0_
FN:93,_ZNK15CLevelDBWrapper4ReadISt4pairIciE14CBlockFileInfoEEbRKT_RT0_
FN:93,_ZNK15CLevelDBWrapper4ReadISt4pairIcNSt7__cxx1112basic_stringIcSt11char_traitsIcESaIcEEEES7_EEbRKT_RT0_
FN:93,_ZNK15CLevelDBWrapper4ReadISt4pairIc7uint256EN8libzcash21IncrementalMerkleTreeILm29ENS4_14SHA256CompressEEEEEbRKT_RT0_
FN:118,_ZN15CLevelDBWrapper5WriteISt4pairIcNSt7__cxx1112basic_stringIcSt11char_traitsIcESaIcEEEEcEEbRKT_RKT0_b
FN:118,_ZN15CLevelDBWrapper5WriteIccEEbRKT_RKT0_b
FN:118,_ZN15CLevelDBWrapper5WriteISt4pairIcNSt7__cxx1112basic_stringIcSt11char_traitsIcESaIcEEEES7_EEbRKT_RKT0_b
FN:126,_ZNK15CLevelDBWrapper6ExistsISt4pairIciEEEbRKT_
FN:126,_ZNK15CLevelDBWrapper6ExistsIcEEbRKT_
FN:126,_ZNK15CLevelDBWrapper6ExistsISt4pairIc7uint256EEEbRKT_
FN:126,_ZNK15CLevelDBWrapper6ExistsISt4pairIcS1_I7uint25613CFieldElementEEEEbRKT_
FN:145,_ZN15CLevelDBWrapper5EraseIcEEbRKT_b
FNDA:490,_ZNK15CLevelDBWrapper4ReadISt4pairIcNSt7__cxx1112basic_stringIcSt11char_traitsIcESaIcEEEES7_EEbRKT_RT0_
FNDA:5,_ZN13CLevelDBBatch5WriteISt4pairIc18CMaturityHeightKeyE20CMaturityHeightValueEEvRKT_RKT0_
FNDA:261,_ZN13CLevelDBBatch5WriteISt4pairIc7uint256E10CSidechainEEvRKT_RKT0_
FNDA:27,_ZNK15CLevelDBWrapper4ReadISt4pairIc7uint256EN8libzcash21IncrementalMerkleTreeILm29ENS4_14SHA256CompressEEEEEbRKT_RT0_
FNDA:41,_ZN13CLevelDBBatch5EraseISt4pairIcS1_I7uint25613CFieldElementEEEEvRKT_
FNDA:311,_ZN13CLevelDBBatch5WriteISt4pairIcNSt7__cxx1112basic_stringIcSt11char_traitsIcESaIcEEEES7_EEvRKT_RKT0_
FNDA:978,_ZNK15CLevelDBWrapper4ReadISt4pairIciE14CBlockFileInfoEEbRKT_RT0_
FNDA:800,_ZN13CLevelDBBatch5WriteIciEEvRKT_RKT0_
FNDA:18900894,_ZNK15CLevelDBWrapper4ReadISt4pairIc7uint256E6CCoinsEEbRKT_RT0_
FNDA:1,_ZN13CLevelDBBatch5WriteIccEEvRKT_RKT0_
FNDA:721,_ZN13CLevelDBBatch5WriteISt4pairIciE14CBlockFileInfoEEvRKT_RKT0_
FNDA:311,_ZN15CLevelDBWrapper5WriteISt4pairIcNSt7__cxx1112basic_stringIcSt11char_traitsIcESaIcEEEES7_EEbRKT_RKT0_b
FNDA:1467,_ZNK15CLevelDBWrapper4ReadISt4pairIcNSt7__cxx1112basic_stringIcSt11char_traitsIcESaIcEEEEcEEbRKT_RT0_
FNDA:1287,_ZN13CLevelDBBatch5WriteIc7uint256EEvRKT_RKT0_
FNDA:72,_ZN13CLevelDBBatch5WriteISt4pairIc7uint256EN8libzcash21IncrementalMerkleTreeILm29ENS4_14SHA256CompressEEEEEvRKT_RKT0_
FNDA:39,_ZNK15CLevelDBWrapper4ReadISt4pairIc7uint256E13CTxIndexValueEEbRKT_RT0_
FNDA:175,_ZN13CLevelDBBatch5WriteISt4pairIciE16CSidechainEventsEEvRKT_RKT0_
FNDA:7544,_ZN13CLevelDBBatch5WriteISt4pairIc7uint256E13CTxIndexValueEEvRKT_RKT0_
FNDA:1331,_ZN13CLevelDBBatch5EraseISt4pairIc7uint256EEEvRKT_
FNDA:599,_ZN13CLevelDBBatch5EraseISt4pairIciEEEvRKT_
FNDA:199525,_ZNK15CLevelDBWrapper4ReadISt4pairIciE16CSidechainEventsEEbRKT_RT0_
FNDA:2,_ZN15CLevelDBWrapper5EraseIcEEbRKT_b
FNDA:481,_ZNK15CLevelDBWrapper6ExistsISt4pairIcS1_I7uint25613CFieldElementEEEEbRKT_
FNDA:144,_ZN13CLevelDBBatch5WriteISt4pairIc7uint256EbEEvRKT_RKT0_
FNDA:2181,_ZNK15CLevelDBWrapper4ReadISt4pairIc7uint256E10CSidechainEEbRKT_RT0_
FNDA:4,_ZN13CLevelDBBatch5EraseISt4pairIc18CMaturityHeightKeyEEEvRKT_
FNDA:1,_ZN15CLevelDBWrapper5WriteIccEEbRKT_RKT0_b
FNDA:622,_ZN13CLevelDBBatch5WriteISt4pairIcNSt7__cxx1112basic_stringIcSt11char_traitsIcESaIcEEEEcEEvRKT_RKT0_
FNDA:622,_ZN15CLevelDBWrapper5WriteISt4pairIcNSt7__cxx1112basic_stringIcSt11char_traitsIcESaIcEEEEcEEbRKT_RKT0_b
FNDA:49,_ZN13CLevelDBBatch5WriteISt4pairIcS1_I7uint25613CFieldElementEEbEEvRKT_RKT0_
FNDA:176,_ZNK15CLevelDBWrapper4ReadISt4pairIc7uint256EbEEbRKT_RT0_
FNDA:0,_ZNK15CLevelDBWrapper6ExistsISt4pairIc7uint256EEEbRKT_
FNDA:489,_ZNK15CLevelDBWrapper4ReadIciEEbRKT_RT0_
FNDA:119918,_ZN13CLevelDBBatch5WriteISt4pairIc7uint256E6CCoinsEEvRKT_RKT0_
FNDA:2,_ZN13CLevelDBBatch5EraseIcEEvRKT_
FNDA:0,_ZNK15CLevelDBWrapper6ExistsISt4pairIciEEEbRKT_
FNDA:978,_ZNK15CLevelDBWrapper6ExistsIcEEbRKT_
FNDA:112912,_ZN13CLevelDBBatch5WriteISt4pairIc7uint256E15CDiskBlockIndexEEvRKT_RKT0_
FNDA:1956,_ZNK15CLevelDBWrapper4ReadIc7uint256EEbRKT_RT0_
FNF:39
FNH:37
DA:22,0
DA:28,19664
DA:37,244822
DA:39,244822
DA:40,244822
DA:41,244822
DA:42,244822
DA:44,244822
DA:45,244822
DA:46,244822
DA:47,244822
DA:49,244822
DA:50,244822
DA:53,1977
DA:55,1977
DA:56,1977
DA:57,1977
DA:58,1977
DA:60,1977
DA:61,1977
DA:93,19108222
DA:95,19108222
DA:96,19108222
DA:97,19108222
DA:98,19108222
DA:100,19108222
DA:101,19108222
DA:102,19108222
DA:103,19058765
DA:105,0
DA:106,0
DA:109,49457
DA:110,49457
DA:111,0
DA:114,49457
DA:115,19108222
DA:118,934
DA:120,934
DA:121,934
DA:122,934
DA:123,934
DA:126,1459
DA:128,1459
DA:129,1459
DA:130,1459
DA:131,1459
DA:133,1459
DA:134,1459
DA:135,1459
DA:136,1426
DA:138,0
DA:139,0
DA:142,1459
DA:145,2
DA:147,2
DA:148,2
DA:149,2
DA:150,2
DA:167,2098
DA:169,2098
LF:60
LH:54
end_of_record
TN:
SF:/home/apetrini/dev/src/zen/src/limitedmap.h
FN:37,_ZN10limitedmapI4CInvlE6insertERKSt4pairIKS0_lE
FN:49,_ZN10limitedmapI4CInvlE5eraseERKS0_
FN:64,_ZN10limitedmapI4CInvlE6updateESt23_Rb_tree_const_iteratorISt4pairIKS0_lEERKl
FNDA:22346,_ZN10limitedmapI4CInvlE6insertERKSt4pairIKS0_lE
FNDA:23552,_ZN10limitedmapI4CInvlE5eraseERKS0_
FNDA:5506,_ZN10limitedmapI4CInvlE6updateESt23_Rb_tree_const_iteratorISt4pairIKS0_lEERKl
FNF:3
FNH:3
DA:32,55704
DA:35,27852
DA:37,22346
DA:39,22346
DA:40,22346
DA:41,22346
DA:42,0
DA:43,0
DA:45,22346
DA:47,22346
DA:49,23552
DA:51,23552
DA:52,23552
DA:54,22345
DA:55,22345
DA:56,22345
DA:57,22345
DA:58,22345
DA:59,22345
DA:62,0
DA:64,5506
DA:67,5506
DA:68,5506
DA:70,5506
DA:71,5506
DA:72,5506
DA:73,5506
DA:74,5506
DA:75,5506
DA:76,5506
DA:79,0
LF:31
LH:27
end_of_record
TN:
SF:/home/apetrini/dev/src/zen/src/main.cpp
FN:123,_ZNK12_GLOBAL__N_125CBlockIndexWorkComparatorclEP11CBlockIndexS2_
FN:148,_ZNK12_GLOBAL__N_129CBlockIndexRealWorkComparatorclEP11CBlockIndexS2_
FN:301,_ZN12_GLOBAL__N_110CNodeStateC2Ev
FN:320,_ZN12_GLOBAL__N_15StateEi
FN:327,_ZN12_GLOBAL__N_19GetHeightEv
FN:333,_ZN12_GLOBAL__N_123UpdatePreferredDownloadEP5CNodePNS_10CNodeStateE
FN:344,_ZN12_GLOBAL__N_115GetBlockTimeoutEliRKN9Consensus6ParamsE
FN:349,_ZN12_GLOBAL__N_114InitializeNodeEiPK5CNode
FN:356,_ZN12_GLOBAL__N_112FinalizeNodeEi
FN:377,_ZN12_GLOBAL__N_119MarkBlockAsReceivedERK7uint256
FN:393,_ZN12_GLOBAL__N_119MarkBlockAsInFlightEiRK7uint256RKN9Consensus6ParamsEP11CBlockIndex
FN:410,_ZN12_GLOBAL__N_124ProcessBlockAvailabilityEi
FN:425,_ZN12_GLOBAL__N_123UpdateBlockAvailabilityEiRK7uint256
FN:444,_ZN12_GLOBAL__N_118LastCommonAncestorEP11CBlockIndexS1_
FN:463,_ZN12_GLOBAL__N_124FindNextBlocksToDownloadEijRSt6vectorIP11CBlockIndexSaIS2_EERi
FN:551,_Z17GetNodeStateStatsiR15CNodeStateStats
FN:566,_Z19RegisterNodeSignalsR12CNodeSignals
FN:575,_Z21UnregisterNodeSignalsR12CNodeSignals
FN:584,_Z21FindForkInGlobalIndexRK6CChainRK13CBlockLocator
FN:607,_Z11AddOrphanTxRK16CTransactionBasei
FN:637,_ZL13EraseOrphanTx7uint256
FN:654,_Z15EraseOrphansFori
FN:671,_Z17LimitOrphanTxSizej
FN:688,_Z12IsStandardTxRK16CTransactionBaseRNSt7__cxx1112basic_stringIcSt11char_traitsIcESaIcEEEi
FN:779,_Z9IsFinalTxRK16CTransactionBaseil
FN:795,_Z12CheckFinalTxRK16CTransactionBasei
FN:835,_Z17AreInputsStandardRK16CTransactionBaseRK15CCoinsViewCache
FN:899,_Z19GetLegacySigOpCountRK16CTransactionBase
FN:930,_Z17GetP2SHSigOpCountRK16CTransactionBaseRK15CCoinsViewCache
FN:945,_Z16CheckCertificateRK14CScCertificateR16CValidationState
FN:971,_Z19HighQualityCertDataRK6CBlockRK15CCoinsViewCache
FN:999,_Z19HighQualityCertDataRK6CBlockRK10CBlockUndo
FN:1025,_Z25CheckCertificatesOrderingRKSt6vectorI14CScCertificateSaIS0_EER16CValidationState
FN:1057,_Z16CheckTransactionRK12CTransactionR16CValidationStateRN8libzcash13ProofVerifierE
FN:1082,_Z40CheckTransactionWithoutProofVerificationRK12CTransactionR16CValidationState
FN:1132,_Z14GetMinRelayFeeRK16CTransactionBasejbj
FN:1161,_Z22RejectMemoryPoolTxBaseRK16CValidationStateRK16CTransactionBaseP5CNode
FN:1173,_Z29AcceptCertificateToMemoryPoolR10CTxMemPoolR16CValidationStateRK14CScCertificate13LimitFreeFlag19RejectAbsurdFeeFlag28MempoolProofVerificationFlagP5CNode
FN:1443,_Z20AcceptTxToMemoryPoolR10CTxMemPoolR16CValidationStateRK12CTransaction13LimitFreeFlag19RejectAbsurdFeeFlag28MempoolProofVerificationFlagP5CNode
FN:1756,_Z24AcceptTxBaseToMemoryPoolR10CTxMemPoolR16CValidationStateRK16CTransactionBase13LimitFreeFlag19RejectAbsurdFeeFlag28MempoolProofVerificationFlagP5CNode
FN:1832,_Z14GetTransactionRK7uint256R12CTransactionRS_b
FN:1899,_Z14GetCertificateRK7uint256R14CScCertificateRS_b
FN:1965,_Z12GetTxBaseObjRK7uint256RSt10unique_ptrI16CTransactionBaseSt14default_deleteIS3_EERS_b
FN:1989,_Z16WriteBlockToDiskR6CBlockR13CDiskBlockPosRA4_Kh
FN:2010,_Z17ReadBlockFromDiskR6CBlockRK13CDiskBlockPos
FN:2035,_Z17ReadBlockFromDiskR6CBlockPK11CBlockIndex
FN:2045,_Z15GetBlockSubsidyiRKN9Consensus6ParamsE
FN:2075,_Z22IsInitialBlockDownloadv
FN:2106,_Z26CheckForkWarningConditionsv
FN:2149,_Z35CheckForkWarningConditionsOnNewForkP11CBlockIndex
FN:2183,_Z11Misbehavingii
FN:2202,_ZL17InvalidChainFoundP11CBlockIndex
FN:2219,_ZL17InvalidBlockFoundP11CBlockIndexRK16CValidationState
FN:2249,_Z13ApplyTxInUndoRK9CTxInUndoR15CCoinsViewCacheRK9COutPoint
FN:2277,_Z11UpdateCoinsRK12CTransactionR15CCoinsViewCacheR7CTxUndoi
FN:2315,_Z11UpdateCoinsRK14CScCertificateR15CCoinsViewCacheR7CTxUndoib
FN:2347,_ZN12CScriptCheckC2Ev
FN:2350,_ZN12CScriptCheckC2ERK6CCoinsRK16CTransactionBasejPK6CChainjb
FN:2357,_ZN12CScriptCheckC2ERK7CScriptRK16CTransactionBasejPK6CChainjb
FN:2363,_ZN12CScriptCheckclEv
FN:2367,_ZN12CScriptCheck4swapERS_
FN:2377,_ZNK12CScriptCheck14GetScriptErrorEv
FN:2379,_Z15IsCommunityFundPK6CCoinsi
FN:2402,_ZN9Consensus13CheckTxInputsERK16CTransactionBaseR16CValidationStateRK15CCoinsViewCacheiRKNS_6ParamsE
FN:2506,_Z16InputScriptCheckRK7CScriptRK16CTransactionBasejRK6CChainjbR16CValidationStatePSt6vectorI12CScriptCheckSaISB_EE
FN:2543,_Z23ContextualCheckTxInputsRK12CTransactionR16CValidationStateRK15CCoinsViewCachebRK6CChainjbRKN9Consensus6ParamsEPSt6vectorI12CScriptCheckSaISF_EE
FN:2589,_Z25ContextualCheckCertInputsRK14CScCertificateR16CValidationStateRK15CCoinsViewCachebRK6CChainjbRKN9Consensus6ParamsEPSt6vectorI12CScriptCheckSaISF_EE
FN:2626,_ZN12_GLOBAL__N_115UndoWriteToDiskERK10CBlockUndoR13CDiskBlockPosRK7uint256RA4_Kh
FN:2653,_ZN12_GLOBAL__N_116UndoReadFromDiskER10CBlockUndoRK13CDiskBlockPosRK7uint256
FN:2684,_ZN12_GLOBAL__N_19AbortNodeERKNSt7__cxx1112basic_stringIcSt11char_traitsIcESaIcEEES7_
FN:2695,_ZN12_GLOBAL__N_19AbortNodeER16CValidationStateRKNSt7__cxx1112basic_stringIcSt11char_traitsIcESaIcEEES9_
FN:2703,_Z15DisconnectBlockR6CBlockR16CValidationStateP11CBlockIndexR15CCoinsViewCache23flagLevelDBIndexesWritePbPSt6vectorI30CScCertificateStatusUpdateInfoSaISA_EE
FN:3121,_ZL14FlushBlockFileb
FN:3148,_Z17ThreadScriptCheckv
FN:3158,_Z14PartitionCheckPFbvER14AnnotatedMixinIN5boost15recursive_mutexEERKPK11CBlockIndexl
FN:3222,_Z12ConnectBlockRK6CBlockR16CValidationStateP11CBlockIndexR15CCoinsViewCacheRK6CChain23flagBlockProcessingType19flagScRelatedChecks23flagScProofVerification23flagLevelDBIndexesWritePSt6vectorI30CScCertificateStatusUpdateInfoSaISG_EE
FN:3966,_ZL16FlushStateToDiskR16CValidationState14FlushStateMode
FN:4064,_Z16FlushStateToDiskv
FN:4069,_Z13PruneAndFlushv
FN:4076,_ZL9UpdateTipP11CBlockIndex
FN:4099,_ZL13DisconnectTipR16CValidationState
FN:4206,_ZL10ConnectTipR16CValidationStateP11CBlockIndexP6CBlock
FN:4305,_ZL17FindMostWorkChainv
FN:4362,_ZL25PruneBlockIndexCandidatesv
FN:4377,_ZL21ActivateBestChainStepR16CValidationStateP11CBlockIndexP6CBlockRb
FN:4454,_Z17ActivateBestChainR16CValidationStateP6CBlockRb
FN:4533,_Z15InvalidateBlockR16CValidationStateP11CBlockIndex
FN:4567,_Z15ReconsiderBlockR16CValidationStateP11CBlockIndex
FN:4600,_Z19addToGlobalForkTipsPK11CBlockIndex
FN:4621,_Z20updateGlobalForkTipsPK11CBlockIndexb
FN:4699,_Z27getMostRecentGlobalForkTipsRSt6vectorI7uint256SaIS0_EE
FN:4718,_Z15AddToBlockIndexRK12CBlockHeader
FN:4772,_Z25ReceivedBlockTransactionsRK6CBlockR16CValidationStateP11CBlockIndexRK13CDiskBlockPosPSt3setIPKS4_21CompareBlocksByHeightSaISB_EE
FN:4849,_Z12FindBlockPosR16CValidationStateR13CDiskBlockPosjjmb
FN:4906,_Z11FindUndoPosR16CValidationStateiR13CDiskBlockPosj
FN:4937,_Z16CheckBlockHeaderRK12CBlockHeaderR16CValidationState12flagCheckPow
FN:4957,_Z10CheckBlockRK6CBlockR16CValidationStateRN8libzcash13ProofVerifierE12flagCheckPow19flagCheckMerkleRoot
FN:5053,_Z26ContextualCheckBlockHeaderRK12CBlockHeaderR16CValidationStateP11CBlockIndex
FN:5121,_Z20ContextualCheckBlockRK6CBlockR16CValidationStateP11CBlockIndex
FN:5199,_Z17AcceptBlockHeaderRK12CBlockHeaderR16CValidationStatePP11CBlockIndexb
FN:5253,_Z11AcceptBlockR6CBlockR16CValidationStatePP11CBlockIndexbP13CDiskBlockPosPSt3setIPKS3_21CompareBlocksByHeightSaISA_EE
FN:5319,_Z15ProcessNewBlockR16CValidationStateP5CNodeP6CBlockbP13CDiskBlockPos
FN:5378,_Z17TestBlockValidityR16CValidationStateRK6CBlockP11CBlockIndex12flagCheckPow19flagCheckMerkleRoot19flagScRelatedChecks
FN:5412,_Z21CalculateCurrentUsagev
FN:5422,_Z17PruneOneBlockFilei
FN:5454,_Z17UnlinkPrunedFilesRSt3setIiSt4lessIiESaIiEE
FN:5465,_Z16FindFilesToPruneRSt3setIiSt4lessIiESaIiEE
FN:5512,_Z14CheckDiskSpacem
FN:5523,_Z12OpenDiskFileRK13CDiskBlockPosPKcb
FN:5546,_Z13OpenBlockFileRK13CDiskBlockPosb
FN:5550,_Z12OpenUndoFileRK13CDiskBlockPosb
FN:5554,_Z19GetBlockPosFilenameRK13CDiskBlockPosPKc
FN:5559,_Z16InsertBlockIndex7uint256
FN:5579,_ZL16LoadBlockIndexDBv
FN:5739,_ZN9CVerifyDBC2Ev
FN:5744,_ZN9CVerifyDBD2Ev
FN:5749,_ZN9CVerifyDB8VerifyDBEP10CCoinsViewii
FN:5845,_Z16UnloadBlockIndexv
FN:5876,_Z14LoadBlockIndexv
FN:5886,_Z14InitBlockIndexv
FN:5954,_Z13LoadBlockFromR13CBufferedFileP13CDiskBlockPos
FN:6008,_Z26LoadBlocksFromExternalFileP8_IO_FILEP13CDiskBlockPosb
FN:6142,_ZL15CheckBlockIndexv
FN:6338,_Z11GetWarningsRKNSt7__cxx1112basic_stringIcSt11char_traitsIcESaIcEEE
FN:6406,_ZL11AlreadyHaveRK4CInv
FN:6437,_ZL14ProcessGetDataP5CNode
FN:6637,_Z17ProcessMempoolMsgRK10CTxMemPoolP5CNode
FN:6682,_Z31ProcessTxBaseAcceptToMemoryPoolRK16CTransactionBaseP5CNode26BatchVerificationStateFlagR16CValidationState
FN:6786,_Z16ProcessTxBaseMsgRK16CTransactionBaseP5CNode
FN:6846,_ZL14ProcessMessageP5CNodeNSt7__cxx1112basic_stringIcSt11char_traitsIcESaIcEEER11CDataStreaml
FN:7768,_Z15ProcessMessagesP5CNode
FN:7888,_Z12SendMessagesP5CNodeb
FN:8176,_ZNK14CBlockFileInfo8ToStringB5cxx11Ev
FN:8186,_ZN12CMainCleanupD2Ev
FN:8199,_Z21RelayAlternativeChainR16CValidationStateP6CBlockPSt3setIPK11CBlockIndex21CompareBlocksByHeightSaIS6_EE
FN:8306,_Z17dbg_blk_in_fligthB5cxx11v
FN:8326,_Z16dbg_blk_unlinkedB5cxx11v
FN:8348,_Z18dbg_blk_candidatesB5cxx11v
FN:8368,_Z19dbg_blk_global_tipsB5cxx11v
FN:8423,_Z10dump_indexPK11CBlockIndexi
FN:8460,_Z7dump_dbv
FN:8516,_Z15dump_candidatesv
FN:8532,_Z16dump_global_tipsi
FN:8565,_Z10dump_dirtyv
FN:8581,_Z18getHeadersIsOnMainRK13CBlockLocatorRK7uint256PP11CBlockIndex
FN:8666,_ZL19getInitCbhSafeDepthv
FN:8677,_Z30getCheckBlockAtHeightSafeDepthv
FN:8684,_Z29getScMinWithdrawalEpochLengthv
FN:8691,_Z29getScMaxWithdrawalEpochLengthv
FN:8698,_ZL16getInitCbhMinAgev
FN:8709,_Z27getCheckBlockAtHeightMinAgev
FN:8716,_ZL22getInitRequireStandardv
FN:8733,_Z18getRequireStandardv
FNDA:40070,_Z19HighQualityCertDataRK6CBlockRK10CBlockUndo
FNDA:226137,_Z20updateGlobalForkTipsPK11CBlockIndexb
FNDA:112119,_ZL25PruneBlockIndexCandidatesv
FNDA:36615,_Z17AreInputsStandardRK16CTransactionBaseRK15CCoinsViewCache
FNDA:454310,_Z25CheckCertificatesOrderingRKSt6vectorI14CScCertificateSaIS0_EER16CValidationState
FNDA:490,_Z21UnregisterNodeSignalsR12CNodeSignals
FNDA:228213,_ZL11AlreadyHaveRK4CInv
FNDA:0,_Z16FindFilesToPruneRSt3setIiSt4lessIiESaIiEE
FNDA:653487,_Z16CheckTransactionRK12CTransactionR16CValidationStateRN8libzcash13ProofVerifierE
FNDA:5320,_Z13ApplyTxInUndoRK9CTxInUndoR15CCoinsViewCacheRK9COutPoint
FNDA:112909,_Z15AddToBlockIndexRK12CBlockHeader
FNDA:171299,_Z19addToGlobalForkTipsPK11CBlockIndex
FNDA:348,_Z29getScMaxWithdrawalEpochLengthv
FNDA:283743,_ZN12CScriptCheckC2Ev
FNDA:1211,_Z11AddOrphanTxRK16CTransactionBasei
FNDA:1004059,_Z15GetBlockSubsidyiRKN9Consensus6ParamsE
FNDA:0,_Z16dbg_blk_unlinkedB5cxx11v
FNDA:1211,_Z17LimitOrphanTxSizej
FNDA:0,_Z7dump_dbv
FNDA:212596,_ZN12_GLOBAL__N_123UpdateBlockAvailabilityEiRK7uint256
FNDA:889765,_Z19GetLegacySigOpCountRK16CTransactionBase
FNDA:566973,_Z16CheckBlockHeaderRK12CBlockHeaderR16CValidationState12flagCheckPow
FNDA:338737,_Z16dump_global_tipsi
FNDA:338737,_Z17AcceptBlockHeaderRK12CBlockHeaderR16CValidationStatePP11CBlockIndexb
FNDA:37948,_Z12IsStandardTxRK16CTransactionBaseRNSt7__cxx1112basic_stringIcSt11char_traitsIcESaIcEEEi
FNDA:23860,_Z31ProcessTxBaseAcceptToMemoryPoolRK16CTransactionBaseP5CNode26BatchVerificationStateFlagR16CValidationState
FNDA:490,_ZN9CVerifyDBC2Ev
FNDA:490,_ZN9CVerifyDB8VerifyDBEP10CCoinsViewii
FNDA:1424531,_Z12SendMessagesP5CNodeb
FNDA:72034,_Z27getCheckBlockAtHeightMinAgev
FNDA:111555,_Z26CheckForkWarningConditionsv
FNDA:192337,_Z12OpenUndoFileRK13CDiskBlockPosb
FNDA:111604,_ZN12_GLOBAL__N_115UndoWriteToDiskERK10CBlockUndoR13CDiskBlockPosRK7uint256RA4_Kh
FNDA:11984418,_Z9IsFinalTxRK16CTransactionBaseil
FNDA:492773,_Z12OpenDiskFileRK13CDiskBlockPosPKcb
FNDA:46,_Z14GetCertificateRK7uint256R14CScCertificateRS_b
FNDA:111942,_ZL10ConnectTipR16CValidationStateP11CBlockIndexP6CBlock
FNDA:9787,_Z27getMostRecentGlobalForkTipsRSt6vectorI7uint256SaIS0_EE
FNDA:257504,_ZN12CScriptCheckC2ERK7CScriptRK16CTransactionBasejPK6CChainjb
FNDA:0,_Z17PruneOneBlockFilei
FNDA:72,_Z14PartitionCheckPFbvER14AnnotatedMixinIN5boost15recursive_mutexEERKPK11CBlockIndexl
FNDA:0,_Z21CalculateCurrentUsagev
FNDA:873,_Z14GetTransactionRK7uint256R12CTransactionRS_b
FNDA:0,_Z17ProcessMempoolMsgRK10CTxMemPoolP5CNode
FNDA:19,_Z22RejectMemoryPoolTxBaseRK16CValidationStateRK16CTransactionBaseP5CNode
FNDA:112490,_Z16WriteBlockToDiskR6CBlockR13CDiskBlockPosRA4_Kh
FNDA:867,_Z12GetTxBaseObjRK7uint256RSt10unique_ptrI16CTransactionBaseSt14default_deleteIS3_EERS_b
FNDA:8027,_Z17GetNodeStateStatsiR15CNodeStateStats
FNDA:283743,_ZN12CScriptCheck4swapERS_
FNDA:111604,_Z11FindUndoPosR16CValidationStateiR13CDiskBlockPosj
FNDA:293,_ZL16getInitCbhMinAgev
FNDA:1370,_ZN12_GLOBAL__N_112FinalizeNodeEi
FNDA:490,_Z14LoadBlockIndexv
FNDA:16014676,_ZN9Consensus13CheckTxInputsERK16CTransactionBaseR16CValidationStateRK15CCoinsViewCacheiRKNS_6ParamsE
FNDA:37122,_Z20AcceptTxToMemoryPoolR10CTxMemPoolR16CValidationStateRK12CTransaction13LimitFreeFlag19RejectAbsurdFeeFlag28MempoolProofVerificationFlagP5CNode
FNDA:0,_ZN12_GLOBAL__N_19AbortNodeER16CValidationStateRKNSt7__cxx1112basic_stringIcSt11char_traitsIcESaIcEEES9_
FNDA:2526,_Z16CheckCertificateRK14CScCertificateR16CValidationState
FNDA:150848,_Z19HighQualityCertDataRK6CBlockRK15CCoinsViewCache
FNDA:6,_ZL13EraseOrphanTx7uint256
FNDA:3,_ZNK12CScriptCheck14GetScriptErrorEv
FNDA:0,_Z13PruneAndFlushv
FNDA:490,_ZN9CVerifyDBD2Ev
FNDA:489,_ZL16LoadBlockIndexDBv
FNDA:2711,_Z14CheckDiskSpacem
FNDA:454373,_Z10CheckBlockRK6CBlockR16CValidationStateRN8libzcash13ProofVerifierE12flagCheckPow19flagCheckMerkleRoot
FNDA:120807,_ZL17FindMostWorkChainv
FNDA:2,_ZL17InvalidBlockFoundP11CBlockIndexRK16CValidationState
FNDA:70165,_Z18getHeadersIsOnMainRK13CBlockLocatorRK7uint256PP11CBlockIndex
FNDA:3305,_Z25ContextualCheckCertInputsRK14CScCertificateR16CValidationStateRK15CCoinsViewCachebRK6CChainjbRKN9Consensus6ParamsEPSt6vectorI12CScriptCheckSaISF_EE
FNDA:39236,_Z17TestBlockValidityR16CValidationStateRK6CBlockP11CBlockIndex12flagCheckPow19flagCheckMerkleRoot19flagScRelatedChecks
FNDA:0,_Z17UnlinkPrunedFilesRSt3setIiSt4lessIiESaIiEE
FNDA:79622,_ZN12_GLOBAL__N_116UndoReadFromDiskER10CBlockUndoRK13CDiskBlockPosRK7uint256
FNDA:492773,_Z19GetBlockPosFilenameRK13CDiskBlockPosPKc
FNDA:16090558,_Z11UpdateCoinsRK12CTransactionR15CCoinsViewCacheR7CTxUndoi
FNDA:2,_Z35CheckForkWarningConditionsOnNewForkP11CBlockIndex
FNDA:46,_Z15InvalidateBlockR16CValidationStateP11CBlockIndex
FNDA:1339,_ZN12_GLOBAL__N_123UpdatePreferredDownloadEP5CNodePNS_10CNodeStateE
FNDA:25591,_Z24AcceptTxBaseToMemoryPoolR10CTxMemPoolR16CValidationStateRK16CTransactionBase13LimitFreeFlag19RejectAbsurdFeeFlag28MempoolProofVerificationFlagP5CNode
FNDA:186635,_Z17ReadBlockFromDiskR6CBlockRK13CDiskBlockPos
FNDA:349,_Z29getScMinWithdrawalEpochLengthv
FNDA:112494,_Z25ReceivedBlockTransactionsRK6CBlockR16CValidationStateP11CBlockIndexRK13CDiskBlockPosPSt3setIPKS4_21CompareBlocksByHeightSaISB_EE
FNDA:113037,_Z17ActivateBestChainR16CValidationStateP6CBlockRb
FNDA:7335710,_Z30getCheckBlockAtHeightSafeDepthv
FNDA:339,_ZL19getInitCbhSafeDepthv
FNDA:112191,_Z11AcceptBlockR6CBlockR16CValidationStatePP11CBlockIndexbP13CDiskBlockPosPSt3setIPKS3_21CompareBlocksByHeightSaISA_EE
FNDA:116780,_Z16InsertBlockIndex7uint256
FNDA:40070,_Z15DisconnectBlockR6CBlockR16CValidationStateP11CBlockIndexR15CCoinsViewCache23flagLevelDBIndexesWritePbPSt6vectorI30CScCertificateStatusUpdateInfoSaISA_EE
FNDA:0,_ZN12CScriptCheckC2ERK6CCoinsRK16CTransactionBasejPK6CChainjb
FNDA:112185,_Z21RelayAlternativeChainR16CValidationStateP6CBlockPSt3setIPK11CBlockIndex21CompareBlocksByHeightSaIS6_EE
FNDA:489,_ZNK14CBlockFileInfo8ToStringB5cxx11Ev
FNDA:281749,_ZN12_GLOBAL__N_115GetBlockTimeoutEliRKN9Consensus6ParamsE
FNDA:0,_Z19dbg_blk_global_tipsB5cxx11v
FNDA:0,_Z17dbg_blk_in_fligthB5cxx11v
FNDA:151408,_Z20ContextualCheckBlockRK6CBlockR16CValidationStateP11CBlockIndex
FNDA:800,_ZL14FlushBlockFileb
FNDA:490,_ZN12CMainCleanupD2Ev
FNDA:1370,_Z15EraseOrphansFori
FNDA:111505,_ZL21ActivateBestChainStepR16CValidationStateP11CBlockIndexP6CBlockRb
FNDA:490,_Z16FlushStateToDiskv
FNDA:185062,_ZN12_GLOBAL__N_119MarkBlockAsReceivedERK7uint256
FNDA:662591,_Z15IsCommunityFundPK6CCoinsi
FNDA:100676,_Z17GetP2SHSigOpCountRK16CTransactionBaseRK15CCoinsViewCache
FNDA:69823,_Z21FindForkInGlobalIndexRK6CChainRK13CBlockLocator
FNDA:76724,_ZL14ProcessGetDataP5CNode
FNDA:112458,_ZL9UpdateTipP11CBlockIndex
FNDA:4863760,_ZN12_GLOBAL__N_15StateEi
FNDA:1950,_ZN12_GLOBAL__N_19GetHeightEv
FNDA:1612187,_ZN12_GLOBAL__N_124ProcessBlockAvailabilityEi
FNDA:311,_ZL22getInitRequireStandardv
FNDA:257503,_Z16InputScriptCheckRK7CScriptRK16CTransactionBasejRK6CChainjbR16CValidationStatePSt6vectorI12CScriptCheckSaISB_EE
FNDA:151835,_Z26ContextualCheckBlockHeaderRK12CBlockHeaderR16CValidationStateP11CBlockIndex
FNDA:257504,_ZN12CScriptCheckclEv
FNDA:4,_Z15ReconsiderBlockR16CValidationStateP11CBlockIndex
FNDA:490,_Z16UnloadBlockIndexv
FNDA:388139,_ZL14ProcessMessageP5CNodeNSt7__cxx1112basic_stringIcSt11char_traitsIcESaIcEEER11CDataStreaml
FNDA:491,_Z14InitBlockIndexv
FNDA:23552,_Z16ProcessTxBaseMsgRK16CTransactionBaseP5CNode
FNDA:50,_ZL17InvalidChainFoundP11CBlockIndex
FNDA:11660130,_Z12CheckFinalTxRK16CTransactionBasei
FNDA:3920588,_Z22IsInitialBlockDownloadv
FNDA:36529,_Z14GetMinRelayFeeRK16CTransactionBasejbj
FNDA:300436,_Z13OpenBlockFileRK13CDiskBlockPosb
FNDA:74573,_Z18getRequireStandardv
FNDA:3050,_ZN12_GLOBAL__N_110CNodeStateC2Ev
FNDA:16011371,_Z23ContextualCheckTxInputsRK12CTransactionR16CValidationStateRK15CCoinsViewCachebRK6CChainjbRKN9Consensus6ParamsEPSt6vectorI12CScriptCheckSaISF_EE
FNDA:0,_Z13LoadBlockFromR13CBufferedFileP13CDiskBlockPos
FNDA:112248,_Z15ProcessNewBlockR16CValidationStateP5CNodeP6CBlockbP13CDiskBlockPos
FNDA:835,_Z29AcceptCertificateToMemoryPoolR10CTxMemPoolR16CValidationStateRK14CScCertificate13LimitFreeFlag19RejectAbsurdFeeFlag28MempoolProofVerificationFlagP5CNode
FNDA:112494,_Z12FindBlockPosR16CValidationStateR13CDiskBlockPosjjmb
FNDA:216993,_ZL16FlushStateToDiskR16CValidationState14FlushStateMode
FNDA:7584,_Z10dump_indexPK11CBlockIndexi
FNDA:1,_Z26LoadBlocksFromExternalFileP8_IO_FILEP13CDiskBlockPosb
FNDA:1407297,_Z15ProcessMessagesP5CNode
FNDA:653487,_Z40CheckTransactionWithoutProofVerificationRK12CTransactionR16CValidationState
FNDA:121,_Z11Misbehavingii
FNDA:68513,_Z11GetWarningsRKNSt7__cxx1112basic_stringIcSt11char_traitsIcESaIcEEE
FNDA:1399591,_ZN12_GLOBAL__N_124FindNextBlocksToDownloadEijRSt6vectorIP11CBlockIndexSaIS2_EERi
FNDA:0,_ZN12_GLOBAL__N_19AbortNodeERKNSt7__cxx1112basic_stringIcSt11char_traitsIcESaIcEEES7_
FNDA:112182,_ZNK12_GLOBAL__N_129CBlockIndexRealWorkComparatorclEP11CBlockIndexS2_
FNDA:518,_ZL13DisconnectTipR16CValidationState
FNDA:3430,_Z17ThreadScriptCheckv
FNDA:72814,_ZN12_GLOBAL__N_119MarkBlockAsInFlightEiRK7uint256RKN9Consensus6ParamsEP11CBlockIndex
FNDA:3050,_ZN12_GLOBAL__N_114InitializeNodeEiPK5CNode
FNDA:151159,_Z12ConnectBlockRK6CBlockR16CValidationStateP11CBlockIndexR15CCoinsViewCacheRK6CChain23flagBlockProcessingType19flagScRelatedChecks23flagScProofVerification23flagLevelDBIndexesWritePSt6vectorI30CScCertificateStatusUpdateInfoSaISG_EE
FNDA:186635,_Z17ReadBlockFromDiskR6CBlockPK11CBlockIndex
FNDA:0,_Z15dump_candidatesv
FNDA:0,_Z10dump_dirtyv
FNDA:0,_Z18dbg_blk_candidatesB5cxx11v
FNDA:287312,_ZL15CheckBlockIndexv
FNDA:264059360,_ZNK12_GLOBAL__N_125CBlockIndexWorkComparatorclEP11CBlockIndexS2_
FNDA:490,_Z19RegisterNodeSignalsR12CNodeSignals
FNDA:707825,_ZN12_GLOBAL__N_118LastCommonAncestorEP11CBlockIndexS1_
FNDA:1733,_Z11UpdateCoinsRK14CScCertificateR15CCoinsViewCacheR7CTxUndoib
FNF:153
FNH:136
DA:123,264059360
DA:125,264059360
DA:126,263337671
DA:129,261896141
DA:130,173506615
DA:133,1193147
DA:134,1192487
DA:138,1191762
DA:139,1191687
DA:148,112182
DA:151,112182
DA:152,880
DA:155,69
DA:156,69
DA:160,0
DA:161,0
DA:260,6
DA:301,3050
DA:302,3050
DA:303,3050
DA:304,3050
DA:305,3050
DA:306,3050
DA:307,3050
DA:308,3050
DA:309,3050
DA:310,3050
DA:311,3050
DA:312,3050
DA:313,3050
DA:320,4863760
DA:321,4863760
DA:322,4863760
DA:324,4863760
DA:327,1950
DA:329,1950
DA:330,1950
DA:331,1950
DA:333,1339
DA:335,1339
DA:338,1339
DA:340,1339
DA:341,1339
DA:344,281749
DA:346,281749
DA:349,3050
DA:350,3050
DA:351,6100
DA:352,3050
DA:353,3050
DA:354,3050
DA:356,1370
DA:357,1370
DA:358,1370
DA:360,1370
DA:361,755
DA:363,1370
DA:364,71
DA:367,1387
DA:368,17
DA:369,1370
DA:370,1370
DA:372,1370
DA:373,1370
DA:377,185062
DA:378,185062
DA:379,185062
DA:380,72779
DA:381,72779
DA:382,72779
DA:383,72779
DA:384,72779
DA:385,72779
DA:386,72779
DA:387,72779
DA:393,72814
DA:394,72814
DA:395,72814
DA:398,72814
DA:400,72814
DA:401,72814
DA:402,72814
DA:403,72814
DA:404,72814
DA:405,72814
DA:406,72814
DA:407,72814
DA:410,1612187
DA:411,1612187
DA:412,1612187
DA:414,1612187
DA:415,343405
DA:416,390675
DA:417,47270
DA:418,47207
DA:419,47270
DA:422,1612187
DA:425,212596
DA:426,212596
DA:427,212596
DA:429,212596
DA:431,212596
DA:432,301691
DA:434,89095
DA:435,80646
DA:438,123501
DA:440,212596
DA:444,707825
DA:445,707825
DA:446,0
DA:447,707825
DA:448,257012
DA:451,710128
DA:452,2303
DA:453,2303
DA:457,707825
DA:458,707825
DA:463,1399591
DA:464,1399591
DA:466,0
DA:467,0
DA:470,1399591
DA:471,1399591
DA:472,1399591
DA:475,1399591
DA:477,1399591
DA:479,691766
DA:482,707825
DA:485,1774
DA:490,707825
DA:491,707825
DA:494,257048
DA:495,257048
DA:499,257048
DA:500,257048
DA:501,257048
DA:502,512155
DA:506,514598
DA:507,257299
DA:508,257299
DA:509,257299
DA:510,980104
DA:511,722805
DA:518,1948345
DA:519,847715
DA:521,2192
DA:523,847695
DA:524,254563
DA:525,183107
DA:526,593132
DA:528,3410
DA:530,0
DA:532,0
DA:534,0
DA:535,0
DA:537,3410
DA:538,3410
DA:541,589722
DA:543,206157
DA:547,1399591
DA:551,8027
DA:552,8027
DA:553,8027
DA:554,8027
DA:556,8027
DA:557,8027
DA:558,8027
DA:559,8569
DA:560,542
DA:561,542
DA:564,8027
DA:566,490
DA:568,980
DA:569,980
DA:570,980
DA:571,980
DA:572,980
DA:573,490
DA:575,490
DA:577,490
DA:578,490
DA:579,490
DA:580,490
DA:581,490
DA:582,490
DA:584,69823
DA:587,72734
DA:588,72733
DA:589,72733
DA:591,72312
DA:592,72312
DA:593,69823
DA:596,1
DA:607,1211
DA:609,1211
DA:610,1211
DA:611,0
DA:620,1211
DA:621,1211
DA:623,0
DA:624,0
DA:627,1211
DA:628,1211
DA:629,3318
DA:630,2107
DA:632,1211
DA:633,1211
DA:634,1211
DA:637,6
DA:639,6
DA:640,6
DA:641,6
DA:642,12
DA:644,6
DA:645,6
DA:646,0
DA:647,6
DA:648,6
DA:649,6
DA:651,6
DA:654,1370
DA:656,1370
DA:657,1370
DA:658,1370
DA:660,0
DA:661,0
DA:663,0
DA:664,0
DA:667,1370
DA:668,1370
DA:671,1211
DA:673,1211
DA:674,1211
DA:677,0
DA:678,0
DA:679,0
DA:680,0
DA:681,0
DA:682,0
DA:684,1211
DA:688,37948
DA:690,37948
DA:692,0
DA:693,0
DA:697,109355
DA:706,71407
DA:707,0
DA:708,37948
DA:710,71407
DA:711,37948
DA:716,37948
DA:717,37948
DA:718,110837
DA:719,72915
DA:720,72915
DA:721,72915
DA:722,5
DA:724,5
DA:728,72910
DA:730,72019
DA:732,15
DA:735,15
DA:741,144899
DA:742,72004
DA:743,0
DA:747,72895
DA:748,12
DA:749,72883
DA:750,26
DA:752,72883
DA:753,26
DA:757,7
DA:762,6
DA:764,6
DA:765,6
DA:768,72915
DA:771,37922
DA:772,0
DA:773,0
DA:779,11984418
DA:782,11984418
DA:784,5903556
DA:786,2
DA:790,2
DA:791,11984418
DA:795,11660130
DA:797,11660130
DA:805,11660130
DA:813,11660130
DA:819,11660130
DA:820,11660130
DA:821,11623033
DA:823,11660130
DA:835,36615
DA:837,36615
DA:840,49857
DA:842,42355
DA:843,42355
DA:845,42355
DA:846,42355
DA:848,42355
DA:849,42355
DA:851,1
DA:853,1
DA:855,42354
DA:856,42354
DA:865,42354
DA:866,42354
DA:869,42354
DA:871,29121
DA:872,29112
DA:873,29121
DA:874,29121
DA:875,29121
DA:876,29121
DA:878,9
DA:879,9
DA:881,9
DA:886,29112
DA:888,29112
DA:890,58233
DA:892,13242
DA:894,42355
DA:896,7502
DA:899,889765
DA:901,889765
DA:902,1985015
DA:904,1095250
DA:906,3586857
DA:908,2697092
DA:911,889765
DA:913,886664
DA:914,886664
DA:915,887393
DA:917,729
DA:918,729
DA:920,0
DA:921,0
DA:923,0
DA:924,0
DA:927,889765
DA:930,100676
DA:932,100676
DA:936,287502
DA:938,186826
DA:939,186826
DA:940,155940
DA:945,2526
DA:947,2526
DA:950,2526
DA:953,2525
DA:956,2525
DA:959,2525
DA:962,2525
DA:965,2525
DA:966,0
DA:971,150848
DA:977,150848
DA:978,150848
DA:979,151400
DA:981,552
DA:982,61
DA:984,491
DA:985,491
DA:986,0
DA:988,491
DA:989,40
DA:991,451
DA:993,491
DA:994,491
DA:996,150848
DA:997,150848
DA:999,40070
DA:1005,40070
DA:1006,40070
DA:1008,40227
DA:1010,157
DA:1011,157
DA:1012,18
DA:1014,139
DA:1015,14
DA:1017,125
DA:1019,139
DA:1022,40070
DA:1023,40070
DA:1025,454310
DA:1027,454310
DA:1029,455929
DA:1031,1619
DA:1032,3066
DA:1034,172
DA:1036,0
DA:1037,0
DA:1038,0
DA:1041,172
DA:1043,0
DA:1044,0
DA:1045,0
DA:1049,3238
DA:1050,1619
DA:1051,1619
DA:1055,454310
DA:1057,653487
DA:1061,653487
DA:1062,180056
DA:1064,653487
DA:1069,653915
DA:1070,429
DA:1071,0
DA:1076,653486
DA:1077,2
DA:1082,653487
DA:1084,653487
DA:1087,653487
DA:1090,653486
DA:1093,653486
DA:1096,653486
DA:1099,653486
DA:1102,653486
DA:1104,180055
DA:1106,426
DA:1107,426
DA:1108,426
DA:1109,426
DA:1110,0
DA:1111,0
DA:1113,0
DA:1115,426
DA:1119,426
DA:1120,426
DA:1123,0
DA:1126,426
DA:1132,36529
DA:1134,36529
DA:1135,36529
DA:1136,36529
DA:1137,36529
DA:1138,36529
DA:1139,36529
DA:1140,36529
DA:1141,0
DA:1142,0
DA:1144,36529
DA:1146,36529
DA:1152,36529
DA:1153,36529
DA:1156,36529
DA:1157,0
DA:1161,19
DA:1163,57
DA:1164,19
DA:1165,19
DA:1166,19
DA:1167,38
DA:1168,38
DA:1169,19
DA:1170,1
DA:1171,19
DA:1173,835
DA:1176,835
DA:1180,835
DA:1182,835
DA:1184,0
DA:1185,0
DA:1188,835
DA:1190,1
DA:1191,1
DA:1194,834
DA:1195,834
DA:1197,0
DA:1198,0
DA:1202,834
DA:1203,834
DA:1205,4
DA:1206,8
DA:1208,4
DA:1211,830
DA:1213,27
DA:1218,803
DA:1220,803
DA:1221,803
DA:1222,803
DA:1223,803
DA:1225,803
DA:1226,803
DA:1227,803
DA:1228,803
DA:1229,803
DA:1232,803
DA:1234,2
DA:1235,1
DA:1236,1
DA:1239,802
DA:1240,802
DA:1242,802
DA:1243,802
DA:1245,14
DA:1246,4
DA:1248,28
DA:1249,28
DA:1251,14
DA:1257,1741
DA:1259,954
DA:1261,1
DA:1262,2
DA:1263,1
DA:1265,954
DA:1268,787
DA:1270,0
DA:1271,0
DA:1273,0
DA:1277,787
DA:1278,787
DA:1280,1574
DA:1282,2
DA:1283,1
DA:1284,2
DA:1286,1
DA:1290,786
DA:1291,820
DA:1294,786
DA:1295,0
DA:1297,0
DA:1300,786
DA:1301,786
DA:1303,0
DA:1304,0
DA:1305,0
DA:1307,0
DA:1312,786
DA:1313,786
DA:1315,786
DA:1316,786
DA:1319,786
DA:1321,786
DA:1322,786
DA:1324,0
DA:1325,0
DA:1327,0
DA:1331,1572
DA:1332,1572
DA:1333,0
DA:1335,0
DA:1336,0
DA:1342,786
DA:1344,27
DA:1345,27
DA:1346,27
DA:1347,27
DA:1349,27
DA:1352,27
DA:1353,27
DA:1356,27
DA:1358,0
DA:1360,0
DA:1362,27
DA:1363,27
DA:1364,27
DA:1366,786
DA:1368,0
DA:1370,0
DA:1375,786
DA:1377,0
DA:1378,0
DA:1390,786
DA:1392,0
DA:1394,0
DA:1397,786
DA:1399,329
DA:1402,457
DA:1404,162
DA:1405,162
DA:1407,162
DA:1408,162
DA:1410,20
DA:1411,20
DA:1412,10
DA:1414,162
DA:1416,447
DA:1418,0
DA:1419,0
DA:1420,0
DA:1422,0
DA:1426,447
DA:1439,803
DA:1440,447
DA:1441,835
DA:1443,37122
DA:1446,37122
DA:1450,37122
DA:1452,37122
DA:1454,0
DA:1455,0
DA:1458,37122
DA:1459,37122
DA:1461,3
DA:1462,3
DA:1467,37119
DA:1469,0
DA:1470,0
DA:1474,37119
DA:1476,0
DA:1477,0
DA:1478,0
DA:1482,37119
DA:1484,0
DA:1486,0
DA:1491,37119
DA:1492,37119
DA:1494,44
DA:1496,22
DA:1502,37097
DA:1504,0
DA:1505,0
DA:1508,37097
DA:1510,10
DA:1511,10
DA:1513,5
DA:1516,37092
DA:1518,6
DA:1519,6
DA:1522,37086
DA:1523,37086
DA:1524,37086
DA:1525,37086
DA:1527,37086
DA:1528,37086
DA:1529,37086
DA:1530,37086
DA:1531,37086
DA:1534,37086
DA:1536,0
DA:1537,0
DA:1538,0
DA:1544,105381
DA:1546,69508
DA:1548,2426
DA:1549,1213
DA:1550,1213
DA:1552,69508
DA:1555,35873
DA:1557,9
DA:1558,9
DA:1560,9
DA:1563,35864
DA:1564,35864
DA:1566,35864
DA:1567,35864
DA:1569,18
DA:1570,0
DA:1572,36
DA:1573,18
DA:1574,36
DA:1576,18
DA:1580,35846
DA:1582,12
DA:1584,12
DA:1588,35834
DA:1590,35834
DA:1593,35834
DA:1594,38338
DA:1597,35834
DA:1599,1
DA:1601,1
DA:1609,35833
DA:1610,35833
DA:1611,35833
DA:1613,0
DA:1614,0
DA:1615,0
DA:1617,0
DA:1620,35833
DA:1621,35833
DA:1623,35833
DA:1624,35833
DA:1627,35833
DA:1630,35743
DA:1631,35743
DA:1635,35743
DA:1637,35743
DA:1638,35743
DA:1640,0
DA:1641,0
DA:1643,0
DA:1648,71666
DA:1649,71666
DA:1650,0
DA:1652,0
DA:1653,0
DA:1659,35833
DA:1661,50
DA:1662,50
DA:1663,50
DA:1664,50
DA:1666,50
DA:1669,50
DA:1670,50
DA:1673,50
DA:1675,0
DA:1677,0
DA:1679,50
DA:1680,50
DA:1681,50
DA:1683,35833
DA:1685,0
DA:1687,0
DA:1692,35833
DA:1694,5
DA:1695,5
DA:1707,35828
DA:1709,0
DA:1710,0
DA:1714,35828
DA:1716,115
DA:1718,49
DA:1721,66
DA:1723,23
DA:1724,23
DA:1726,23
DA:1727,23
DA:1729,0
DA:1730,0
DA:1731,0
DA:1733,0
DA:1735,23
DA:1738,35779
DA:1751,37086
DA:1753,35779
DA:1754,37122
DA:1756,25591
DA:1759,25591
DA:1761,25591
DA:1763,622
DA:1768,24969
DA:1772,0
DA:1774,0
DA:1775,0
DA:1777,0
DA:1832,873
DA:1834,873
DA:1836,873
DA:1839,128
DA:1841,17
DA:1842,17
DA:1844,12
DA:1845,12
DA:1846,0
DA:1847,12
DA:1848,12
DA:1850,12
DA:1851,12
DA:1852,12
DA:1853,0
DA:1855,0
DA:1856,0
DA:1857,12
DA:1858,12
DA:1859,5
DA:1861,24
DA:1864,116
DA:1866,112
DA:1867,112
DA:1868,112
DA:1869,112
DA:1870,112
DA:1871,112
DA:1872,80
DA:1874,80
DA:1875,80
DA:1877,112
DA:1879,80
DA:1880,80
DA:1882,88
DA:1884,85
DA:1886,77
DA:1887,77
DA:1888,77
DA:1892,80
DA:1896,873
DA:1899,46
DA:1901,46
DA:1903,46
DA:1906,22
DA:1908,9
DA:1909,9
DA:1911,9
DA:1912,9
DA:1913,0
DA:1914,9
DA:1915,9
DA:1917,9
DA:1918,9
DA:1919,9
DA:1920,0
DA:1922,0
DA:1923,0
DA:1924,9
DA:1925,9
DA:1926,0
DA:1928,18
DA:1931,13
DA:1933,10
DA:1934,10
DA:1935,10
DA:1936,10
DA:1937,10
DA:1938,10
DA:1939,3
DA:1941,3
DA:1942,3
DA:1944,10
DA:1946,3
DA:1947,3
DA:1949,4
DA:1951,4
DA:1953,3
DA:1954,3
DA:1955,3
DA:1959,3
DA:1963,46
DA:1965,867
DA:1967,867
DA:1968,867
DA:1970,825
DA:1971,825
DA:1974,42
DA:1975,42
DA:1977,32
DA:1978,32
DA:1982,867
DA:1989,112490
DA:1992,112490
DA:1993,112490
DA:1994,0
DA:1997,112490
DA:1998,112490
DA:2001,112490
DA:2002,112490
DA:2003,0
DA:2004,112490
DA:2005,112490
DA:2008,112490
DA:2010,186635
DA:2012,186635
DA:2015,186635
DA:2016,186635
DA:2017,2
DA:2020,186633
DA:2021,186633
DA:2023,0
DA:2024,0
DA:2025,0
DA:2028,373266
DA:2029,186633
DA:2030,0
DA:2033,186635
DA:2035,186635
DA:2037,373268
DA:2039,186633
DA:2040,0
DA:2041,0
DA:2045,1004059
DA:2047,1004059
DA:2048,1004059
DA:2054,1004058
DA:2055,0
DA:2056,0
DA:2057,0
DA:2058,1004058
DA:2059,0
DA:2060,0
DA:2061,0
DA:2064,1004058
DA:2065,1004058
DA:2067,1004058
DA:2071,1004058
DA:2072,1004058
DA:2075,3920588
DA:2077,3920588
DA:2080,3920588
DA:2083,50680
DA:2084,50680
DA:2085,50680
DA:2087,50680
DA:2089,50668
DA:2091,50358
DA:2093,50358
DA:2095,50358
DA:2096,49886
DA:2097,472
DA:2098,472
DA:2099,472
DA:2100,3920588
DA:2106,111555
DA:2108,111555
DA:2111,111555
DA:2116,110704
DA:2117,0
DA:2119,110704
DA:2121,13
DA:2123,0
DA:2124,0
DA:2125,0
DA:2126,0
DA:2127,13
DA:2129,0
DA:2132,0
DA:2136,13
DA:2137,13
DA:2138,13
DA:2139,13
DA:2140,13
DA:2144,110691
DA:2145,110691
DA:2149,2
DA:2151,2
DA:2153,2
DA:2154,2
DA:2155,6
DA:2157,2
DA:2158,0
DA:2159,2
DA:2161,2
DA:2171,2
DA:2172,4
DA:2173,0
DA:2175,0
DA:2176,0
DA:2179,2
DA:2180,2
DA:2183,121
DA:2185,121
DA:2188,121
DA:2189,121
DA:2192,121
DA:2193,121
DA:2194,121
DA:2196,5
DA:2197,5
DA:2199,116
DA:2202,50
DA:2204,50
DA:2205,24
DA:2207,100
DA:2211,50
DA:2212,50
DA:2213,100
DA:2216,50
DA:2217,50
DA:2219,2
DA:2221,2
DA:2223,2
DA:2224,2
DA:2226,4
DA:2227,2
DA:2228,2
DA:2229,2
DA:2230,2
DA:2233,2
DA:2235,2
DA:2236,2
DA:2237,2
DA:2238,2
DA:2240,2
DA:2249,5320
DA:2251,5320
DA:2253,5320
DA:2254,5320
DA:2256,298
DA:2257,298
DA:2258,298
DA:2259,298
DA:2260,298
DA:2263,5022
DA:2264,0
DA:2267,5320
DA:2268,0
DA:2269,5320
DA:2270,433
DA:2272,5320
DA:2274,5320
DA:2275,5320
DA:2277,16090558
DA:2280,16090558
DA:2282,15939710
DA:2283,47993389
DA:2285,32053679
DA:2286,32053679
DA:2287,32053679
DA:2290,32053679
DA:2291,32053679
DA:2292,32053679
DA:2294,22748737
DA:2295,22748737
DA:2296,22748737
DA:2297,22748737
DA:2298,22748737
DA:2299,22748737
DA:2301,32053679
DA:2305,16090846
DA:2306,864
DA:2307,576
DA:2312,16090558
DA:2313,16090558
DA:2315,1733
DA:2318,1733
DA:2319,3752
DA:2321,2019
DA:2322,2019
DA:2323,2019
DA:2326,2019
DA:2327,2019
DA:2328,2019
DA:2330,1212
DA:2331,1212
DA:2332,1212
DA:2333,1212
DA:2334,1212
DA:2335,1212
DA:2337,2019
DA:2340,1733
DA:2341,1733
DA:2342,1733
DA:2343,1733
DA:2344,1733
DA:2345,1733
DA:2347,283743
DA:2348,283743
DA:2349,283743
DA:2350,0
DA:2352,0
DA:2353,0
DA:2354,0
DA:2355,0
DA:2357,257504
DA:2359,257504
DA:2360,257504
DA:2361,257504
DA:2363,257504
DA:2364,257504
DA:2367,283743
DA:2368,283743
DA:2369,283743
DA:2370,283743
DA:2371,283743
DA:2372,283743
DA:2373,283743
DA:2374,283743
DA:2375,283743
DA:2377,3
DA:2379,662591
DA:2381,662591
DA:2382,1325182
DA:2383,1987773
DA:2384,662591
DA:2386,662591
DA:2387,662591
DA:2389,2650364
DA:2390,1987773
DA:2391,1460905
DA:2392,1460905
DA:2393,0
DA:2394,1460905
DA:2402,16014676
DA:2406,16014676
DA:2407,0
DA:2410,16014676
DA:2411,0
DA:2413,16014676
DA:2414,48208680
DA:2416,32194007
DA:2417,32194007
DA:2418,32194007
DA:2419,32194007
DA:2422,32194007
DA:2424,505912
DA:2426,2
DA:2428,2
DA:2430,2
DA:2431,3
DA:2432,2
DA:2434,1
DA:2435,2
DA:2436,1
DA:2441,32194005
DA:2445,1006914
DA:2446,503457
DA:2447,78
DA:2451,0
DA:2452,0
DA:2453,0
DA:2454,0
DA:2459,31690548
DA:2461,31690548
DA:2464,320694
DA:2465,320694
DA:2467,320694
DA:2469,3
DA:2470,1
DA:2471,2
DA:2474,320694
DA:2478,32194004
DA:2479,32194004
DA:2480,0
DA:2484,16014673
DA:2485,16014673
DA:2486,16014673
DA:2487,0
DA:2489,0
DA:2490,0
DA:2492,0
DA:2494,16014673
DA:2495,16014673
DA:2496,0
DA:2499,16014673
DA:2500,0
DA:2506,257503
DA:2510,257503
DA:2511,257503
DA:2512,94581
DA:2513,94581
DA:2514,162922
DA:2515,2
DA:2516,2
DA:2518,1
DA:2525,1
DA:2526,1
DA:2527,1
DA:2528,1
DA:2529,1
DA:2537,0
DA:2541,257503
DA:2543,16011371
DA:2545,16011371
DA:2549,16011371
DA:2550,16011371
DA:2554,16011368
DA:2555,51159
DA:2564,16011368
DA:2565,389995
DA:2566,254192
DA:2567,254192
DA:2568,254192
DA:2570,254192
DA:2571,254192
DA:2576,135803
DA:2577,136382
DA:2578,579
DA:2579,579
DA:2580,0
DA:2582,579
DA:2589,3305
DA:2593,3305
DA:2594,3305
DA:2598,3305
DA:2599,552
DA:2608,3305
DA:2609,5000
DA:2610,2732
DA:2611,2732
DA:2612,2732
DA:2614,2732
DA:2615,2732
DA:2626,111604
DA:2629,111604
DA:2630,111604
DA:2631,0
DA:2634,111604
DA:2635,111604
DA:2638,111604
DA:2639,111604
DA:2640,0
DA:2641,111604
DA:2642,111604
DA:2645,111604
DA:2646,111604
DA:2647,111604
DA:2648,111604
DA:2650,111604
DA:2651,111604
DA:2653,79622
DA:2656,79622
DA:2657,79622
DA:2658,0
DA:2661,79622
DA:2662,79622
DA:2663,79622
DA:2664,79622
DA:2666,0
DA:2667,0
DA:2668,0
DA:2671,79622
DA:2672,79622
DA:2673,79622
DA:2675,79622
DA:2677,79622
DA:2678,0
DA:2681,79622
DA:2684,0
DA:2686,0
DA:2687,0
DA:2688,0
DA:2689,0
DA:2691,0
DA:2692,0
DA:2695,0
DA:2697,0
DA:2698,0
DA:2703,40070
DA:2711,40070
DA:2712,40070
DA:2714,40070
DA:2716,40070
DA:2717,39552
DA:2719,40070
DA:2721,40070
DA:2723,40070
DA:2724,36141
DA:2726,40070
DA:2728,40070
DA:2729,40070
DA:2730,0
DA:2731,40070
DA:2732,0
DA:2734,40070
DA:2735,0
DA:2737,40070
DA:2739,0
DA:2740,0
DA:2743,40070
DA:2745,518
DA:2747,7
DA:2750,518
DA:2752,3
DA:2764,40070
DA:2765,40070
DA:2769,40227
DA:2770,157
DA:2771,157
DA:2772,157
DA:2774,157
DA:2776,157
DA:2778,35
DA:2781,1
DA:2782,1
DA:2783,1
DA:2784,1
DA:2815,157
DA:2816,157
DA:2817,157
DA:2819,157
DA:2820,157
DA:2821,157
DA:2822,157
DA:2827,157
DA:2828,157
DA:2831,157
DA:2833,0
DA:2834,0
DA:2836,0
DA:2841,157
DA:2842,157
DA:2843,157
DA:2845,157
DA:2846,157
DA:2848,139
DA:2850,139
DA:2853,139
DA:2854,1
DA:2855,1
DA:2856,1
DA:2857,1
DA:2858,1
DA:2859,1
DA:2862,278
DA:2865,14
DA:2866,14
DA:2868,14
DA:2870,5
DA:2871,0
DA:2872,0
DA:2873,0
DA:2891,139
DA:2893,28
DA:2894,28
DA:2895,28
DA:2896,28
DA:2900,139
DA:2902,0
DA:2903,0
DA:2908,157
DA:2909,0
DA:2910,314
DA:2911,157
DA:2912,157
DA:2913,157
DA:2914,0
DA:2915,0
DA:2949,82024
DA:2950,41954
DA:2951,41954
DA:2980,41954
DA:2981,41954
DA:2982,41954
DA:2984,41954
DA:2988,41954
DA:2989,248
DA:2990,41954
DA:2991,0
DA:2992,0
DA:2996,41954
DA:2997,41954
DA:2998,41954
DA:3001,41977
DA:3002,69
DA:3003,46
DA:3007,42021
DA:3008,67
DA:3009,0
DA:3010,0
DA:3014,41954
DA:3015,41954
DA:3017,0
DA:3018,0
DA:3022,41954
DA:3023,1884
DA:3024,1884
DA:3025,0
DA:3026,7047
DA:3027,5163
DA:3028,5163
DA:3029,5163
DA:3030,0
DA:3031,0
DA:3073,40070
DA:3076,40070
DA:3078,40070
DA:3079,39552
DA:3080,39552
DA:3083,518
DA:3085,518
DA:3086,7
DA:3087,0
DA:3089,518
DA:3090,3
DA:3091,0
DA:3119,40070
DA:3121,800
DA:3123,800
DA:3125,800
DA:3127,800
DA:3128,800
DA:3129,800
DA:3130,0
DA:3131,800
DA:3132,800
DA:3135,800
DA:3136,800
DA:3137,800
DA:3138,0
DA:3139,800
DA:3140,800
DA:3142,800
DA:3148,3430
DA:3149,3430
DA:3150,3430
DA:3151,0
DA:3158,72
DA:3161,72
DA:3163,72
DA:3164,72
DA:3165,72
DA:3167,68
DA:3168,68
DA:3169,68
DA:3171,68
DA:3173,68
DA:3174,68
DA:3176,68
DA:3177,68
DA:3178,68
DA:3179,12036
DA:3180,11970
DA:3181,11970
DA:3182,11970
DA:3186,66
DA:3188,66
DA:3189,66
DA:3192,66
DA:3193,66
DA:3195,66
DA:3198,0
DA:3199,0
DA:3201,66
DA:3204,24
DA:3205,12
DA:3207,66
DA:3209,12
DA:3210,12
DA:3211,12
DA:3213,74
DA:3222,151159
DA:3232,151159
DA:3234,39217
DA:3237,151159
DA:3239,151159
DA:3240,151159
DA:3242,151159
DA:3244,125574
DA:3247,151159
DA:3248,151159
DA:3249,151159
DA:3250,151159
DA:3256,151159
DA:3257,151159
DA:3258,17908
DA:3259,169066
DA:3260,17907
DA:3261,151159
DA:3265,151159
DA:3267,151159
DA:3268,151159
DA:3271,151159
DA:3273,151159
DA:3277,151159
DA:3278,151159
DA:3282,151159
DA:3283,311
DA:3285,311
DA:3287,311
DA:3288,311
DA:3290,311
DA:3291,311
DA:3292,311
DA:3297,352855
DA:3299,202007
DA:3300,202007
DA:3301,0
DA:3304,151400
DA:3306,552
DA:3307,552
DA:3308,0
DA:3314,150848
DA:3318,150848
DA:3320,150848
DA:3321,125263
DA:3323,150848
DA:3325,150848
DA:3327,150848
DA:3328,150848
DA:3330,150848
DA:3331,150848
DA:3332,150848
DA:3333,150848
DA:3334,262491
DA:3335,150848
DA:3336,150848
DA:3337,150848
DA:3338,150848
DA:3348,150848
DA:3350,150848
DA:3352,111631
DA:3354,150848
DA:3357,150848
DA:3359,150848
DA:3362,150848
DA:3365,150848
DA:3368,150848
DA:3369,150848
DA:3371,352855
DA:3373,202007
DA:3375,202007
DA:3376,202007
DA:3377,202007
DA:3378,0
DA:3381,202007
DA:3383,51159
DA:3384,0
DA:3387,51159
DA:3388,51159
DA:3390,0
DA:3391,0
DA:3392,0
DA:3397,51159
DA:3399,38170
DA:3403,51159
DA:3404,0
DA:3448,51159
DA:3449,51159
DA:3450,0
DA:3453,51159
DA:3455,51159
DA:3456,51159
DA:3457,0
DA:3459,51159
DA:3460,51159
DA:3487,202007
DA:3488,202007
DA:3489,51159
DA:3491,202007
DA:3493,202007
DA:3495,51159
DA:3497,0
DA:3498,0
DA:3502,51282
DA:3503,123
DA:3504,0
DA:3510,202115
DA:3511,324
DA:3513,216
DA:3517,202007
DA:3518,202007
DA:3520,202007
DA:3521,21542
DA:3522,202007
DA:3525,150848
DA:3528,151400
DA:3530,552
DA:3531,552
DA:3532,552
DA:3533,552
DA:3534,0
DA:3537,552
DA:3538,0
DA:3583,552
DA:3584,552
DA:3585,0
DA:3588,552
DA:3590,552
DA:3591,552
DA:3594,552
DA:3596,552
DA:3597,552
DA:3599,0
DA:3600,0
DA:3604,552
DA:3606,407
DA:3635,552
DA:3636,552
DA:3637,552
DA:3639,552
DA:3640,552
DA:3641,552
DA:3643,552
DA:3644,61
DA:3647,552
DA:3650,491
DA:3651,4
DA:3652,4
DA:3655,491
DA:3657,0
DA:3661,491
DA:3662,491
DA:3666,40
DA:3668,28
DA:3671,3
DA:3672,3
DA:3673,3
DA:3674,3
DA:3686,28
DA:3688,1
DA:3689,1
DA:3693,40
DA:3694,40
DA:3695,40
DA:3696,28
DA:3697,28
DA:3698,28
DA:3702,491
DA:3703,362
DA:3704,362
DA:3706,61
DA:3707,45
DA:3708,45
DA:3711,552
DA:3713,445
DA:3714,445
DA:3715,445
DA:3716,445
DA:3719,552
DA:3720,552
DA:3722,552
DA:3724,408
DA:3753,552
DA:3754,552
DA:3756,150848
DA:3765,111631
DA:3768,774
DA:3770,111631
DA:3772,7448
DA:3776,150848
DA:3778,0
DA:3782,150848
DA:3784,150848
DA:3786,111631
DA:3789,150848
DA:3791,150848
DA:3793,150848
DA:3794,150848
DA:3796,301696
DA:3797,150848
DA:3798,301696
DA:3799,150848
DA:3801,150848
DA:3802,150848
DA:3803,6
DA:3804,2
DA:3805,4
DA:3808,150846
DA:3809,0
DA:3811,150846
DA:3812,150846
DA:3814,150846
DA:3815,150846
DA:3817,150846
DA:3819,17908
DA:3820,17908
DA:3821,17908
DA:3822,17908
DA:3824,17908
DA:3829,4
DA:3830,2
DA:3833,35814
DA:3834,17907
DA:3837,150845
DA:3839,111629
DA:3840,111629
DA:3841,111629
DA:3843,0
DA:3846,111629
DA:3847,111629
DA:3850,150845
DA:3852,150845
DA:3855,223258
DA:3856,111629
DA:3859,111654
DA:3861,111604
DA:3862,111604
DA:3863,111604
DA:3864,0
DA:3865,111604
DA:3866,0
DA:3868,111604
DA:3870,111604
DA:3871,111604
DA:3874,111604
DA:3875,111604
DA:3878,111629
DA:3880,111629
DA:3881,7448
DA:3882,0
DA:3884,111629
DA:3885,774
DA:3886,0
DA:3937,111629
DA:3939,111629
DA:3940,111629
DA:3943,111629
DA:3944,111629
DA:3945,111629
DA:3947,111629
DA:3948,111629
DA:3950,111629
DA:3951,151161
DA:3966,216993
DA:3967,216993
DA:3968,216993
DA:3969,216993
DA:3970,216993
DA:3971,216993
DA:3972,216993
DA:3973,216993
DA:3974,216993
DA:3975,216993
DA:3977,0
DA:3978,0
DA:3979,0
DA:3980,0
DA:3981,0
DA:3982,0
DA:3983,0
DA:3987,216993
DA:3989,216993
DA:3990,490
DA:3992,216993
DA:3993,490
DA:3995,216993
DA:3996,490
DA:3998,216993
DA:4000,216993
DA:4002,216993
DA:4004,216993
DA:4006,216993
DA:4008,216993
DA:4010,216993
DA:4012,800
DA:4013,0
DA:4015,800
DA:4017,800
DA:4018,800
DA:4019,800
DA:4020,1521
DA:4021,721
DA:4022,721
DA:4024,800
DA:4025,800
DA:4026,113712
DA:4027,112912
DA:4028,112912
DA:4030,800
DA:4031,0
DA:4033,800
DA:4035,800
DA:4036,0
DA:4037,800
DA:4040,216993
DA:4046,800
DA:4047,0
DA:4049,800
DA:4050,0
DA:4051,800
DA:4053,216993
DA:4055,0
DA:4056,0
DA:4058,0
DA:4059,0
DA:4060,0
DA:4062,650979
DA:4064,490
DA:4065,490
DA:4066,490
DA:4067,490
DA:4069,0
DA:4070,0
DA:4071,0
DA:4072,0
DA:4073,0
DA:4076,112458
DA:4077,112458
DA:4078,112458
DA:4081,112458
DA:4082,112458
DA:4084,112458
DA:4085,112458
DA:4086,414
DA:4087,414
DA:4090,224916
DA:4095,112458
DA:4096,112458
DA:4099,518
DA:4100,518
DA:4101,518
DA:4102,518
DA:4104,518
DA:4105,518
DA:4106,0
DA:4108,518
DA:4109,518
DA:4110,518
DA:4111,518
DA:4112,518
DA:4113,518
DA:4114,0
DA:4115,518
DA:4116,518
DA:4117,518
DA:4118,518
DA:4120,518
DA:4124,518
DA:4125,518
DA:4126,1147
DA:4128,629
DA:4129,629
DA:4130,64
DA:4133,740
DA:4134,111
DA:4137,1042
DA:4138,521
DA:4139,521
DA:4141,629
DA:4143,518
DA:4144,518
DA:4145,553
DA:4147,35
DA:4148,35
DA:4149,35
DA:4152,0
DA:4153,0
DA:4155,0
DA:4157,35
DA:4159,518
DA:4162,10
DA:4165,518
DA:4166,518
DA:4168,518
DA:4170,518
DA:4172,518
DA:4173,518
DA:4177,1147
DA:4178,629
DA:4181,553
DA:4182,35
DA:4183,35
DA:4186,550
DA:4187,32
DA:4188,32
DA:4192,518
DA:4193,518
DA:4194,1554
DA:4206,111942
DA:4207,111942
DA:4208,111942
DA:4210,111942
DA:4211,111942
DA:4212,111942
DA:4213,12171
DA:4214,0
DA:4218,111942
DA:4219,111942
DA:4221,111942
DA:4222,111942
DA:4223,111942
DA:4224,111942
DA:4225,111942
DA:4226,111942
DA:4227,111942
DA:4229,111942
DA:4230,111942
DA:4231,2
DA:4232,2
DA:4233,2
DA:4235,111940
DA:4236,111940
DA:4237,111940
DA:4238,111940
DA:4239,111942
DA:4240,111940
DA:4241,111940
DA:4243,111940
DA:4245,111940
DA:4246,111940
DA:4249,111940
DA:4250,111940
DA:4251,111940
DA:4252,111940
DA:4254,111940
DA:4255,111940
DA:4257,111940
DA:4259,111940
DA:4262,111985
DA:4263,45
DA:4265,111948
DA:4266,8
DA:4267,8
DA:4271,262050
DA:4272,150110
DA:4273,150110
DA:4276,112347
DA:4277,407
DA:4278,407
DA:4279,407
DA:4280,814
DA:4281,407
DA:4282,407
DA:4283,407
DA:4285,112447
DA:4286,507
DA:4287,507
DA:4291,111940
DA:4293,111940
DA:4295,111940
DA:4296,111940
DA:4297,111940
DA:4298,111940
DA:4299,335824
DA:4305,120807
DA:4306,120807
DA:4307,120807
DA:4310,120807
DA:4311,120807
DA:4312,120807
DA:4313,120807
DA:4314,120806
DA:4319,120806
DA:4320,120806
DA:4321,527137
DA:4322,406331
DA:4328,406331
DA:4329,406331
DA:4330,406331
DA:4332,0
DA:4333,0
DA:4334,0
DA:4336,0
DA:4337,0
DA:4338,0
DA:4339,0
DA:4340,0
DA:4341,0
DA:4345,0
DA:4347,0
DA:4348,0
DA:4350,0
DA:4351,0
DA:4352,0
DA:4354,406331
DA:4356,120806
DA:4357,120806
DA:4358,0
DA:4362,112119
DA:4365,112119
DA:4366,279996
DA:4367,167877
DA:4370,112119
DA:4371,112119
DA:4377,111505
DA:4379,111505
DA:4380,111505
DA:4381,111505
DA:4382,111505
DA:4383,111505
DA:4386,111942
DA:4388,437
DA:4395,111505
DA:4396,111505
DA:4397,111505
DA:4399,223014
DA:4403,111509
DA:4404,111509
DA:4405,111509
DA:4406,111509
DA:4407,288301
DA:4408,176792
DA:4409,176792
DA:4411,111509
DA:4414,335393
DA:4415,120147
DA:4416,2
DA:4418,2
DA:4419,2
DA:4420,2
DA:4421,2
DA:4422,2
DA:4423,2
DA:4424,2
DA:4427,0
DA:4430,111940
DA:4431,111940
DA:4441,111505
DA:4442,2
DA:4444,111503
DA:4447,111505
DA:4454,113037
DA:4455,113037
DA:4456,113037
DA:4457,113037
DA:4458,120807
DA:4459,120807
DA:4461,120807
DA:4462,120807
DA:4463,120807
DA:4464,120807
DA:4467,120807
DA:4468,9302
DA:4470,111505
DA:4472,121696
DA:4475,111505
DA:4477,111505
DA:4478,111505
DA:4479,9302
DA:4483,111505
DA:4484,110654
DA:4486,110654
DA:4487,110654
DA:4488,110654
DA:4491,110654
DA:4492,110654
DA:4493,385643
DA:4495,274989
DA:4497,274989
DA:4501,0
DA:4502,0
DA:4503,0
DA:4506,110654
DA:4509,0
DA:4510,0
DA:4514,110654
DA:4515,110654
DA:4519,851
DA:4522,111505
DA:4523,103735
DA:4526,103735
DA:4527,0
DA:4533,46
DA:4534,46
DA:4537,46
DA:4538,46
DA:4539,46
DA:4541,127
DA:4542,81
DA:4543,81
DA:4544,81
DA:4545,81
DA:4548,81
DA:4549,0
DA:4555,46
DA:4556,46
DA:4557,20657
DA:4558,46
DA:4560,20703
DA:4563,46
DA:4567,4
DA:4568,4
DA:4570,4
DA:4573,4
DA:4574,4
DA:4575,1760
DA:4576,25
DA:4577,25
DA:4578,25
DA:4579,25
DA:4581,25
DA:4583,4
DA:4586,1764
DA:4590,1742
DA:4591,1738
DA:4592,0
DA:4593,0
DA:4595,1738
DA:4597,4
DA:4600,171299
DA:4602,171299
DA:4605,171299
DA:4606,171299
DA:4609,170809
DA:4612,170809
DA:4614,1216
DA:4615,608
DA:4618,171299
DA:4621,226137
DA:4623,226137
DA:4626,452274
DA:4627,226137
DA:4629,226137
DA:4631,41464
DA:4632,20732
DA:4633,20732
DA:4636,205405
DA:4638,117072
DA:4639,58536
DA:4640,58536
DA:4641,58536
DA:4647,146869
DA:4649,3
DA:4650,3
DA:4652,9
DA:4654,6
DA:4655,6
DA:4656,3
DA:4658,12
DA:4659,6
DA:4661,6
DA:4663,3
DA:4664,3
DA:4668,46
DA:4670,43
DA:4673,3
DA:4675,6
DA:4676,3
DA:4677,3
DA:4678,3
DA:4683,0
DA:4684,0
DA:4688,3
DA:4689,3
DA:4693,293732
DA:4694,146866
DA:4695,146866
DA:4699,9787
DA:4701,9787
DA:4703,9787
DA:4705,14018
DA:4707,9787
DA:4708,49963
DA:4710,13392
DA:4711,13392
DA:4715,9787
DA:4716,9787
DA:4718,112909
DA:4721,112909
DA:4722,112909
DA:4723,112909
DA:4724,0
DA:4727,112909
DA:4728,112909
DA:4732,112909
DA:4733,112909
DA:4734,112909
DA:4735,112909
DA:4736,112909
DA:4738,112598
DA:4739,112598
DA:4740,112598
DA:4742,338727
DA:4743,112909
DA:4744,112598
DA:4746,311
DA:4748,112909
DA:4749,2489
DA:4752,112909
DA:4754,35790
DA:4755,17895
DA:4757,17895
DA:4760,112909
DA:4761,112909
DA:4762,110222
DA:4764,112909
DA:4766,112909
DA:4768,112909
DA:4772,112494
DA:4774,112494
DA:4775,112494
DA:4776,112494
DA:4777,263160
DA:4778,150748
DA:4779,82
DA:4780,82
DA:4781,82
DA:4782,150666
DA:4783,112494
DA:4784,112494
DA:4785,112494
DA:4786,112494
DA:4787,112494
DA:4788,112494
DA:4789,112494
DA:4790,112494
DA:4792,112494
DA:4794,105694
DA:4795,105694
DA:4798,218187
DA:4799,112493
DA:4800,112493
DA:4801,112493
DA:4802,112493
DA:4803,112182
DA:4804,112182
DA:4806,0
DA:4809,311
DA:4811,112493
DA:4812,112493
DA:4813,112493
DA:4814,112493
DA:4815,112493
DA:4816,109962
DA:4820,112493
DA:4822,111613
DA:4824,111303
DA:4825,222606
DA:4826,111303
DA:4827,111303
DA:4828,111303
DA:4832,112493
DA:4833,119292
DA:4834,6799
DA:4835,6799
DA:4836,6799
DA:4837,6799
DA:4840,105694
DA:4841,6800
DA:4842,6800
DA:4846,112494
DA:4849,112494
DA:4852,112494
DA:4854,112494
DA:4855,112495
DA:4857,112494
DA:4859,112490
DA:4861,0
DA:4862,0
DA:4865,112490
DA:4866,112490
DA:4869,112494
DA:4870,0
DA:4871,0
DA:4873,0
DA:4874,0
DA:4877,112494
DA:4878,112494
DA:4879,4
DA:4881,112490
DA:4883,112494
DA:4884,112490
DA:4885,112490
DA:4886,112490
DA:4887,310
DA:4888,0
DA:4889,310
DA:4890,310
DA:4891,310
DA:4892,310
DA:4893,310
DA:4894,310
DA:4898,0
DA:4902,112494
DA:4903,112494
DA:4904,112494
DA:4906,111604
DA:4908,111604
DA:4910,111604
DA:4912,111604
DA:4913,111604
DA:4914,111604
DA:4915,111604
DA:4917,111604
DA:4918,111604
DA:4919,111604
DA:4920,311
DA:4921,0
DA:4922,311
DA:4923,311
DA:4924,311
DA:4925,311
DA:4926,311
DA:4927,311
DA:4931,0
DA:4935,111604
DA:4937,566973
DA:4940,566973
DA:4941,0
DA:4945,566973
DA:4946,0
DA:4950,566973
DA:4951,0
DA:4957,454373
DA:4965,454373
DA:4969,454373
DA:4970,375942
DA:4971,375942
DA:4972,375942
DA:4973,4
DA:4979,375940
DA:4980,118
DA:4990,454312
DA:4991,454312
DA:4992,381478
DA:4994,454312
DA:4995,454312
DA:4996,454312
DA:4997,454312
DA:4999,454312
DA:5000,0
DA:5003,454312
DA:5005,72834
DA:5007,0
DA:5012,454312
DA:5013,4
DA:5015,596579
DA:5016,142269
DA:5017,0
DA:5021,1050889
DA:5022,596579
DA:5023,0
DA:5027,454310
DA:5028,0
DA:5030,455929
DA:5032,1619
DA:5033,454373
DA:5037,454310
DA:5038,1050889
DA:5039,596579
DA:5042,455929
DA:5043,1619
DA:5046,454310
DA:5047,0
DA:5053,151835
DA:5055,151835
DA:5056,151835
DA:5057,151835
DA:5058,151835
DA:5061,151834
DA:5063,151834
DA:5066,151834
DA:5067,4
DA:5072,151832
DA:5073,151832
DA:5074,6
DA:5075,4
DA:5080,151830
DA:5081,80400
DA:5082,2
DA:5083,2
DA:5089,151829
DA:5090,151829
DA:5091,3
DA:5092,2
DA:5096,151828
DA:5099,151828
DA:5100,151828
DA:5101,0
DA:5104,151828
DA:5106,2
DA:5110,151826
DA:5112,25579
DA:5113,25579
DA:5114,2
DA:5116,25579
DA:5121,151408
DA:5123,151408
DA:5124,151408
DA:5127,353976
DA:5130,202572
DA:5131,151408
DA:5134,202570
DA:5135,202570
DA:5137,202570
DA:5138,202570
DA:5139,4
DA:5143,151948
DA:5145,544
DA:5146,151408
DA:5154,151404
DA:5156,151403
DA:5157,151403
DA:5158,151403
DA:5159,0
DA:5161,151403
DA:5164,151404
DA:5166,0
DA:5169,151404
DA:5173,605607
DA:5174,454206
DA:5175,454206
DA:5176,372039
DA:5178,372039
DA:5179,1076259
DA:5181,1076256
DA:5188,372039
DA:5189,3
DA:5191,6
DA:5193,372039
DA:5196,151401
DA:5199,338737
DA:5201,338737
DA:5203,338737
DA:5204,338737
DA:5206,338737
DA:5207,338737
DA:5208,338737
DA:5209,338737
DA:5211,226137
DA:5214,226137
DA:5216,226137
DA:5217,226137
DA:5218,226137
DA:5219,1
DA:5223,112600
DA:5227,112600
DA:5228,112600
DA:5229,112599
DA:5230,112599
DA:5232,2
DA:5233,1
DA:5234,2
DA:5236,112598
DA:5237,112598
DA:5238,0
DA:5241,112599
DA:5244,112599
DA:5245,112599
DA:5247,112599
DA:5248,112599
DA:5253,112191
DA:5255,112191
DA:5256,112191
DA:5258,112191
DA:5260,112191
DA:5266,112190
DA:5267,112190
DA:5273,112190
DA:5277,112190
DA:5278,112190
DA:5279,292
DA:5280,292
DA:5281,290
DA:5285,112187
DA:5286,112187
DA:5287,3
DA:5288,3
DA:5289,3
DA:5291,3
DA:5294,112184
DA:5297,112184
DA:5298,112184
DA:5299,112184
DA:5300,112184
DA:5301,4
DA:5302,112184
DA:5303,0
DA:5304,112184
DA:5305,112180
DA:5306,0
DA:5307,112184
DA:5308,0
DA:5309,0
DA:5310,0
DA:5311,0
DA:5313,112184
DA:5314,0
DA:5319,112248
DA:5322,112248
DA:5323,112248
DA:5325,112248
DA:5327,112248
DA:5328,112248
DA:5330,112248
DA:5331,112248
DA:5333,112248
DA:5335,57
DA:5339,112191
DA:5341,112191
DA:5343,112191
DA:5345,73017
DA:5348,112191
DA:5350,112191
DA:5352,4
DA:5354,61
DA:5356,112187
DA:5358,112187
DA:5360,0
DA:5363,112187
DA:5365,112185
DA:5367,0
DA:5372,4
DA:5376,112248
DA:5378,39236
DA:5381,39236
DA:5382,39236
DA:5384,39236
DA:5385,39236
DA:5386,39236
DA:5387,39236
DA:5389,39236
DA:5392,39236
DA:5394,39227
DA:5396,39221
DA:5399,39217
DA:5402,39216
DA:5405,39236
DA:5412,0
DA:5414,0
DA:5415,0
DA:5416,0
DA:5418,0
DA:5422,0
DA:5424,0
DA:5425,0
DA:5426,0
DA:5427,0
DA:5428,0
DA:5429,0
DA:5430,0
DA:5431,0
DA:5432,0
DA:5438,0
DA:5439,0
DA:5440,0
DA:5441,0
DA:5442,0
DA:5443,0
DA:5449,0
DA:5450,0
DA:5451,0
DA:5454,0
DA:5456,0
DA:5457,0
DA:5458,0
DA:5459,0
DA:5460,0
DA:5462,0
DA:5465,0
DA:5467,0
DA:5468,0
DA:5471,0
DA:5475,0
DA:5476,0
DA:5480,0
DA:5481,0
DA:5482,0
DA:5484,0
DA:5485,0
DA:5486,0
DA:5488,0
DA:5489,0
DA:5491,0
DA:5495,0
DA:5496,0
DA:5498,0
DA:5500,0
DA:5501,0
DA:5502,0
DA:5506,0
DA:5507,0
DA:5508,0
DA:5510,0
DA:5512,2711
DA:5514,2711
DA:5517,2711
DA:5518,0
DA:5523,492773
DA:5525,492773
DA:5527,492771
DA:5528,985542
DA:5529,492771
DA:5530,492771
DA:5531,620
DA:5532,492771
DA:5533,0
DA:5536,492771
DA:5537,489755
DA:5538,0
DA:5539,0
DA:5544,492773
DA:5546,300436
DA:5547,300436
DA:5550,192337
DA:5551,192337
DA:5554,492773
DA:5556,985546
DA:5559,116780
DA:5561,233560
DA:5565,116601
DA:5566,116601
DA:5567,58211
DA:5570,58390
DA:5571,58390
DA:5572,0
DA:5573,58390
DA:5574,58390
DA:5576,58390
DA:5579,489
DA:5581,489
DA:5582,489
DA:5585,489
DA:5588,489
DA:5589,489
DA:5590,58879
DA:5592,58390
DA:5593,58390
DA:5595,489
DA:5596,58879
DA:5598,58390
DA:5599,175170
DA:5600,58390
DA:5603,58390
DA:5604,58386
DA:5605,58207
DA:5606,58207
DA:5607,58207
DA:5608,58207
DA:5610,0
DA:5613,0
DA:5614,0
DA:5615,0
DA:5618,179
DA:5619,179
DA:5622,58390
DA:5623,58382
DA:5624,58390
DA:5625,6
DA:5626,58390
DA:5627,58211
DA:5628,58390
DA:5629,58361
DA:5631,58390
DA:5635,489
DA:5636,489
DA:5637,489
DA:5638,978
DA:5639,489
DA:5641,489
DA:5642,489
DA:5643,489
DA:5644,489
DA:5645,0
DA:5649,0
DA:5652,489
DA:5653,489
DA:5654,58879
DA:5656,58390
DA:5657,58390
DA:5658,58386
DA:5661,668
DA:5663,179
DA:5664,358
DA:5665,0
DA:5670,489
DA:5671,489
DA:5672,0
DA:5675,489
DA:5676,489
DA:5677,489
DA:5679,489
DA:5680,489
DA:5681,489
DA:5684,489
DA:5685,978
DA:5688,489
DA:5689,978
DA:5706,58879
DA:5708,58390
DA:5714,58390
DA:5715,58211
DA:5720,489
DA:5721,489
DA:5723,179
DA:5725,179
DA:5727,179
DA:5729,358
DA:5734,179
DA:5737,978
DA:5739,490
DA:5741,490
DA:5742,490
DA:5744,490
DA:5746,490
DA:5747,490
DA:5749,490
DA:5751,490
DA:5752,490
DA:5753,311
DA:5756,179
DA:5757,0
DA:5758,179
DA:5759,112
DA:5760,358
DA:5761,179
DA:5762,179
DA:5763,179
DA:5764,179
DA:5765,179
DA:5766,179
DA:5768,179
DA:5769,39731
DA:5771,39619
DA:5772,157177
DA:5773,39619
DA:5775,39552
DA:5777,39552
DA:5778,0
DA:5780,39552
DA:5781,0
DA:5783,39552
DA:5785,39552
DA:5787,39552
DA:5788,35756
DA:5790,39552
DA:5792,39552
DA:5793,39552
DA:5794,39552
DA:5795,0
DA:5797,39552
DA:5799,39552
DA:5800,39552
DA:5801,39552
DA:5802,0
DA:5803,39552
DA:5804,39552
DA:5805,0
DA:5806,0
DA:5808,39552
DA:5811,39552
DA:5814,39552
DA:5816,179
DA:5817,0
DA:5820,179
DA:5821,0
DA:5822,0
DA:5823,0
DA:5824,0
DA:5825,0
DA:5826,0
DA:5827,0
DA:5829,0
DA:5830,0
DA:5832,0
DA:5834,0
DA:5836,0
DA:5837,0
DA:5838,0
DA:5840,179
DA:5842,179
DA:5843,669
DA:5845,490
DA:5847,490
DA:5848,490
DA:5849,490
DA:5850,490
DA:5851,490
DA:5852,490
DA:5853,490
DA:5854,490
DA:5855,490
DA:5856,490
DA:5857,490
DA:5858,490
DA:5859,490
DA:5860,490
DA:5861,490
DA:5862,490
DA:5863,490
DA:5864,490
DA:5865,490
DA:5866,490
DA:5867,490
DA:5869,490
DA:5870,0
DA:5872,490
DA:5873,490
DA:5874,490
DA:5876,490
DA:5879,490
DA:5882,489
DA:5886,491
DA:5887,491
DA:5888,491
DA:5891,491
DA:5894,491
DA:5900,311
DA:5901,622
DA:5904,311
DA:5905,311
DA:5908,311
DA:5909,311
DA:5924,311
DA:5927,311
DA:5930,310
DA:5931,310
DA:5933,310
DA:5934,310
DA:5935,310
DA:5936,310
DA:5937,0
DA:5938,310
DA:5939,0
DA:5940,310
DA:5941,310
DA:5942,0
DA:5943,310
DA:5944,0
DA:5946,310
DA:5947,310
DA:5948,0
DA:5949,0
DA:5952,982
DA:5954,0
DA:5956,0
DA:5958,0
DA:5961,0
DA:5964,0
DA:5966,0
DA:5967,0
DA:5968,0
DA:5970,0
DA:5972,0
DA:5973,0
DA:5974,0
DA:5975,0
DA:5976,0
DA:5977,0
DA:5979,0
DA:5980,0
DA:5981,0
DA:5982,0
DA:5984,0
DA:5986,0
DA:5987,0
DA:5990,0
DA:5994,0
DA:5995,0
DA:5996,0
DA:5997,0
DA:5998,0
DA:5999,0
DA:6000,0
DA:6001,0
DA:6002,0
DA:6004,0
DA:6006,0
DA:6008,1
DA:6010,1
DA:6012,1
DA:6013,1
DA:6015,1
DA:6016,1
DA:6018,1
DA:6021,1
DA:6022,1
DA:6023,5
DA:6025,5
DA:6027,5
DA:6028,5
DA:6029,5
DA:6030,5
DA:6031,5
DA:6033,5
DA:6034,5
DA:6035,4
DA:6036,4
DA:6037,4
DA:6038,0
DA:6040,4
DA:6041,4
DA:6042,0
DA:6043,1
DA:6045,1
DA:6046,1
DA:6047,4
DA:6050,4
DA:6051,4
DA:6052,4
DA:6053,4
DA:6054,4
DA:6055,4
DA:6056,4
DA:6057,4
DA:6059,4
DA:6060,4
DA:6061,0
DA:6062,0
DA:6063,0
DA:6064,0
DA:6065,0
DA:6069,4
DA:6071,4
DA:6072,4
DA:6074,0
DA:6075,0
DA:6077,0
DA:6081,4
DA:6082,4
DA:6084,4
DA:6087,4
DA:6088,0
DA:6092,4
DA:6093,4
DA:6095,4
DA:6096,4
DA:6097,4
DA:6098,4
DA:6100,0
DA:6101,0
DA:6103,0
DA:6104,0
DA:6106,0
DA:6108,0
DA:6110,0
DA:6111,0
DA:6114,0
DA:6118,0
DA:6120,0
DA:6121,0
DA:6124,0
DA:6125,0
DA:6126,0
DA:6128,4
DA:6129,4
DA:6130,0
DA:6131,0
DA:6133,1
DA:6134,0
DA:6135,0
DA:6137,1
DA:6138,1
DA:6139,1
DA:6142,287312
DA:6144,287312
DA:6145,287312
DA:6146,1
DA:6149,287312
DA:6154,287312
DA:6156,1
DA:6161,287311
DA:6165,287311
DA:6166,87607931
DA:6167,87320620
DA:6169,287311
DA:6171,287311
DA:6172,287311
DA:6173,287311
DA:6174,287311
DA:6188,87607931
DA:6189,87320620
DA:6190,87320620
DA:6191,87320620
DA:6192,87320620
DA:6193,87320620
DA:6194,87320620
DA:6195,87320620
DA:6196,87320620
DA:6199,87320620
DA:6201,287311
DA:6202,287311
DA:6204,87320620
DA:6207,87320620
DA:6209,87320620
DA:6210,87320620
DA:6213,0
DA:6215,87320620
DA:6216,87320620
DA:6218,87320620
DA:6219,87320620
DA:6220,87320620
DA:6221,87320620
DA:6222,87320620
DA:6223,87320620
DA:6224,87320620
DA:6225,87320620
DA:6226,87320620
DA:6227,87320620
DA:6229,87315932
DA:6231,87320620
DA:6232,397244
DA:6237,396962
DA:6239,793924
DA:6246,173846752
DA:6249,87320620
DA:6250,87320620
DA:6251,87320620
DA:6252,120337
DA:6253,120337
DA:6257,87320620
DA:6259,87320620
DA:6261,120337
DA:6263,87320620
DA:6264,87320620
DA:6265,87320620
DA:6267,0
DA:6276,0
DA:6277,0
DA:6278,0
DA:6286,87320620
DA:6287,87320620
DA:6289,87021152
DA:6290,87021152
DA:6291,87021152
DA:6295,87607931
DA:6298,87320620
DA:6299,87320620
DA:6300,87320620
DA:6301,87320620
DA:6302,87320620
DA:6303,87320620
DA:6304,87320620
DA:6306,87320620
DA:6308,87320620
DA:6309,87333428
DA:6310,12808
DA:6311,87333428
DA:6314,87320620
DA:6315,87320620
DA:6317,12157
DA:6318,12157
DA:6321,87308463
DA:6322,87308463
DA:6323,87308463
DA:6329,287311
DA:6330,574623
DA:6338,68513
DA:6340,68513
DA:6341,68513
DA:6342,68513
DA:6344,68513
DA:6347,68513
DA:6348,0
DA:6351,68513
DA:6353,2853
DA:6354,2853
DA:6357,68513
DA:6359,0
DA:6360,0
DA:6362,68513
DA:6364,44
DA:6365,88
DA:6369,68513
DA:6370,68513
DA:6371,68513
DA:6373,0
DA:6374,0
DA:6376,0
DA:6377,0
DA:6378,0
DA:6379,0
DA:6383,0
DA:6385,68513
DA:6386,12
DA:6387,68501
DA:6388,137014
DA:6389,0
DA:6391,68513
DA:6406,228213
DA:6408,228213
DA:6410,87003
DA:6411,87003
DA:6412,87003
DA:6413,87003
DA:6419,1194
DA:6420,1194
DA:6423,174006
DA:6424,87003
DA:6425,237221
DA:6426,75109
DA:6428,141210
DA:6429,141210
DA:6430,141210
DA:6437,76724
DA:6439,76724
DA:6441,76724
DA:6443,76724
DA:6445,100281
DA:6447,94990
DA:6450,94990
DA:6451,94990
DA:6452,94990
DA:6453,94990
DA:6455,94990
DA:6457,71433
DA:6458,71433
DA:6459,71433
DA:6461,71433
DA:6464,1008
DA:6470,1008
DA:6471,1008
DA:6472,2016
DA:6473,1008
DA:6475,1008
DA:6476,1008
DA:6478,1006
DA:6483,1006
DA:6484,1006
DA:6485,1006
DA:6489,0
DA:6490,0
DA:6497,71433
DA:6500,71433
DA:6501,71433
DA:6502,0
DA:6503,71433
DA:6505,71433
DA:6506,71433
DA:6509,0
DA:6511,0
DA:6512,0
DA:6514,0
DA:6515,0
DA:6522,0
DA:6523,0
DA:6525,0
DA:6526,0
DA:6528,0
DA:6529,0
DA:6532,0
DA:6534,0
DA:6536,0
DA:6537,0
DA:6542,0
DA:6545,0
DA:6548,0
DA:6551,0
DA:6555,71433
DA:6560,0
DA:6561,0
DA:6562,0
DA:6563,0
DA:6564,0
DA:6565,0
DA:6566,71433
DA:6569,0
DA:6571,0
DA:6575,23557
DA:6578,23557
DA:6579,23557
DA:6580,23557
DA:6581,23557
DA:6582,23557
DA:6583,23557
DA:6586,0
DA:6587,23557
DA:6588,0
DA:6589,0
DA:6590,0
DA:6591,0
DA:6592,0
DA:6593,0
DA:6594,0
DA:6595,0
DA:6596,0
DA:6599,0
DA:6600,0
DA:6601,0
DA:6602,0
DA:6603,0
DA:6604,0
DA:6605,0
DA:6606,0
DA:6607,0
DA:6608,0
DA:6609,0
DA:6610,23557
DA:6611,0
DA:6616,94990
DA:6618,94990
DA:6623,76724
DA:6625,76724
DA:6633,0
DA:6635,76724
DA:6637,0
DA:6639,0
DA:6641,0
DA:6642,0
DA:6643,0
DA:6644,0
DA:6646,0
DA:6647,0
DA:6648,0
DA:6650,0
DA:6652,0
DA:6653,0
DA:6654,0
DA:6655,0
DA:6657,0
DA:6658,0
DA:6659,0
DA:6662,0
DA:6664,0
DA:6666,0
DA:6669,0
DA:6671,0
DA:6672,0
DA:6674,0
DA:6676,0
DA:6677,0
DA:6679,0
DA:6680,0
DA:6682,23860
DA:6684,23860
DA:6686,2
DA:6689,1
DA:6691,1
DA:6694,23859
DA:6696,23859
DA:6699,23859
DA:6705,23859
DA:6707,22228
DA:6708,22228
DA:6709,22228
DA:6710,22228
DA:6712,44456
DA:6713,22228
DA:6714,0
DA:6715,22228
DA:6718,22228
DA:6719,44461
DA:6721,22233
DA:6722,22233
DA:6723,22227
DA:6724,12
DA:6726,6
DA:6727,6
DA:6728,6
DA:6732,6
DA:6734,6
DA:6735,0
DA:6737,6
DA:6739,6
DA:6741,5
DA:6742,5
DA:6743,5
DA:6744,5
DA:6746,1
DA:6748,0
DA:6751,0
DA:6752,0
DA:6753,0
DA:6757,0
DA:6758,0
DA:6759,0
DA:6760,0
DA:6762,1
DA:6764,1
DA:6766,6
DA:6767,6
DA:6770,22234
DA:6771,6
DA:6772,22228
DA:6774,1631
DA:6776,1211
DA:6779,2422
DA:6780,1211
DA:6781,1211
DA:6782,0
DA:6784,23859
DA:6786,23552
DA:6788,23552
DA:6789,23552
DA:6791,23552
DA:6793,23552
DA:6794,23552
DA:6796,23552
DA:6797,23552
DA:6799,23552
DA:6801,23541
DA:6804,70621
DA:6806,2
DA:6810,23541
DA:6814,11
DA:6815,11
DA:6817,11
DA:6827,0
DA:6829,0
DA:6830,0
DA:6834,0
DA:6840,23552
DA:6842,18
DA:6844,47104
DA:6846,388139
DA:6848,388139
DA:6849,388139
DA:6850,776278
DA:6852,0
DA:6853,0
DA:6856,388139
DA:6859,1939
DA:6861,0
DA:6862,0
DA:6863,600
DA:6866,1939
DA:6867,1939
DA:6868,1939
DA:6869,1939
DA:6870,1939
DA:6871,1939
DA:6874,0
DA:6875,0
DA:6876,0
DA:6877,0
DA:6878,0
DA:6881,1939
DA:6882,0
DA:6883,1939
DA:6884,1939
DA:6885,1939
DA:6886,1939
DA:6887,1939
DA:6889,1939
DA:6890,1939
DA:6891,1939
DA:6892,1934
DA:6894,5
DA:6897,1939
DA:6899,600
DA:6900,600
DA:6901,600
DA:6904,1339
DA:6905,1339
DA:6907,0
DA:6911,1339
DA:6912,672
DA:6914,1339
DA:6917,1339
DA:6920,1339
DA:6921,1339
DA:6923,1339
DA:6926,667
DA:6928,266
DA:6929,266
DA:6931,0
DA:6932,0
DA:6933,266
DA:6934,0
DA:6935,0
DA:6936,0
DA:6941,667
DA:6943,667
DA:6944,667
DA:6946,667
DA:6948,672
DA:6950,0
DA:6951,0
DA:6956,1339
DA:6957,1339
DA:6958,1339
DA:6959,0
DA:6960,0
DA:6962,1339
DA:6964,1339
DA:6965,1339
DA:6966,0
DA:6968,1339
DA:6973,1339
DA:6974,1339
DA:6977,386200
DA:6980,57
DA:6981,57
DA:6985,386143
DA:6987,1339
DA:6990,1339
DA:6991,667
DA:6992,667
DA:6993,667
DA:6997,384804
DA:6999,0
DA:7000,0
DA:7003,0
DA:7005,0
DA:7007,0
DA:7008,0
DA:7012,0
DA:7013,0
DA:7014,0
DA:7015,0
DA:7017,0
DA:7019,0
DA:7020,0
DA:7021,0
DA:7022,0
DA:7023,0
DA:7026,0
DA:7027,0
DA:7030,0
DA:7031,0
DA:7032,0
DA:7033,0
DA:7034,0
DA:7035,0
DA:7036,0
DA:7037,0
DA:7039,0
DA:7040,0
DA:7041,0
DA:7042,0
DA:7043,0
DA:7044,0
DA:7045,0
DA:7047,0
DA:7048,0
DA:7049,0
DA:7050,0
DA:7053,0
DA:7054,0
DA:7056,0
DA:7057,0
DA:7058,0
DA:7059,0
DA:7060,0
DA:7061,0
DA:7064,384804
DA:7066,97118
DA:7067,97118
DA:7068,97118
DA:7070,0
DA:7071,0
DA:7074,97118
DA:7076,97118
DA:7078,278088
DA:7080,180970
DA:7082,180970
DA:7083,180970
DA:7085,180970
DA:7086,361940
DA:7087,332323
DA:7089,180970
DA:7090,27852
DA:7092,180970
DA:7093,141210
DA:7094,192888
DA:7105,71823
DA:7107,71823
DA:7109,2782
DA:7110,2782
DA:7112,8590
DA:7114,5808
DA:7115,5808
DA:7116,5808
DA:7118,2782
DA:7119,71823
DA:7120,71823
DA:7121,71823
DA:7122,71125
DA:7123,69404
DA:7126,69404
DA:7128,143646
DA:7129,71823
DA:7130,71823
DA:7133,78082
DA:7135,60692
DA:7136,121384
DA:7142,180970
DA:7144,180970
DA:7145,0
DA:7146,0
DA:7150,97118
DA:7152,37715
DA:7153,37715
DA:7155,194236
DA:7158,287686
DA:7160,45038
DA:7161,45038
DA:7162,45038
DA:7164,0
DA:7165,0
DA:7168,45038
DA:7169,36188
DA:7171,45038
DA:7173,119065
DA:7174,154056
DA:7178,45038
DA:7179,45038
DA:7180,45038
DA:7183,242648
DA:7185,0
DA:7186,0
DA:7187,0
DA:7189,0
DA:7192,0
DA:7195,0
DA:7196,0
DA:7197,0
DA:7198,0
DA:7199,0
DA:7201,0
DA:7203,0
DA:7204,0
DA:7206,0
DA:7207,0
DA:7208,0
DA:7212,0
DA:7213,0
DA:7214,0
DA:7217,0
DA:7220,242648
DA:7222,70718
DA:7223,70718
DA:7224,70718
DA:7226,70718
DA:7228,70718
DA:7231,70165
DA:7232,70165
DA:7234,70165
DA:7236,69365
DA:7237,69365
DA:7240,0
DA:7241,0
DA:7242,0
DA:7243,0
DA:7248,69365
DA:7249,69365
DA:7250,69365
DA:7256,69365
DA:7257,69365
DA:7258,69365
DA:7259,187308
DA:7261,559539
DA:7262,186513
DA:7265,69365
DA:7266,69365
DA:7267,69365
DA:7270,800
DA:7273,0
DA:7274,0
DA:7277,800
DA:7279,799
DA:7280,799
DA:7283,0
DA:7284,0
DA:7287,1598
DA:7288,799
DA:7290,799
DA:7295,17707
DA:7297,53121
DA:7299,324500
DA:7301,305999
DA:7304,1588
DA:7305,794
DA:7306,794
DA:7307,794
DA:7311,17707
DA:7316,16908
DA:7319,799
DA:7320,799
DA:7322,799
DA:7323,18503
DA:7324,17705
DA:7325,17705
DA:7326,17705
DA:7329,799
DA:7330,799
DA:7331,799
DA:7334,1
DA:7338,1
DA:7339,1
DA:7340,1
DA:7342,1
DA:7344,2
DA:7345,1
DA:7349,5
DA:7351,2
DA:7352,2
DA:7354,1
DA:7355,1
DA:7358,1
DA:7360,2
DA:7361,1
DA:7363,4
DA:7364,3
DA:7365,2
DA:7367,2
DA:7369,4
DA:7370,2
DA:7371,6
DA:7372,2
DA:7374,2
DA:7377,1
DA:7380,2
DA:7381,1
DA:7385,3
DA:7387,2
DA:7389,2
DA:7390,2
DA:7395,0
DA:7398,0
DA:7399,0
DA:7404,0
DA:7406,1
DA:7408,1
DA:7409,1
DA:7410,1
DA:7412,1
DA:7416,70718
DA:7419,171930
DA:7421,23552
DA:7422,23552
DA:7424,23552
DA:7425,23552
DA:7428,23552
DA:7429,23552
DA:7430,23552
DA:7431,23552
DA:7435,0
DA:7437,0
DA:7439,23552
DA:7441,148378
DA:7443,71437
DA:7446,71437
DA:7447,71437
DA:7448,0
DA:7449,0
DA:7451,71437
DA:7452,297983
DA:7453,226546
DA:7454,226546
DA:7457,71437
DA:7459,71437
DA:7464,71387
DA:7465,71387
DA:7466,524477
DA:7467,226546
DA:7468,226546
DA:7469,0
DA:7470,0
DA:7471,0
DA:7474,226546
DA:7476,226546
DA:7478,1
DA:7480,1
DA:7481,0
DA:7482,1
DA:7485,226546
DA:7487,71386
DA:7488,71386
DA:7490,71386
DA:7495,14
DA:7496,14
DA:7498,14
DA:7499,14
DA:7500,28
DA:7501,14
DA:7503,14
DA:7504,14
DA:7505,14
DA:7507,71386
DA:7508,71437
DA:7510,76941
DA:7512,73075
DA:7513,73075
DA:7515,73075
DA:7516,73075
DA:7518,73075
DA:7520,73075
DA:7525,73075
DA:7526,73075
DA:7527,73075
DA:7529,61
DA:7530,122
DA:7531,122
DA:7532,61
DA:7534,61
DA:7535,61
DA:7536,61
DA:7538,73075
DA:7546,3866
DA:7550,667
DA:7551,0
DA:7552,0
DA:7554,667
DA:7556,667
DA:7557,667
DA:7558,667
DA:7559,0
DA:7560,667
DA:7563,3199
DA:7565,0
DA:7569,3199
DA:7571,1598
DA:7573,1598
DA:7574,1598
DA:7586,1598
DA:7591,1601
DA:7593,1579
DA:7594,1579
DA:7595,1579
DA:7596,1579
DA:7597,1579
DA:7599,1579
DA:7600,1579
DA:7603,1579
DA:7604,1579
DA:7606,1579
DA:7607,1579
DA:7608,1579
DA:7610,1579
DA:7611,3033
DA:7614,1579
DA:7618,0
DA:7619,0
DA:7621,0
DA:7622,0
DA:7626,0
DA:7630,0
DA:7631,0
DA:7634,1579
DA:7635,0
DA:7637,0
DA:7639,0
DA:7643,1579
DA:7644,1579
DA:7646,1579
DA:7649,44
DA:7651,0
DA:7652,0
DA:7654,0
DA:7655,0
DA:7657,0
DA:7660,0
DA:7661,0
DA:7662,0
DA:7663,0
DA:7664,0
DA:7665,0
DA:7674,0
DA:7677,0
DA:7680,22
DA:7682,0
DA:7683,0
DA:7685,0
DA:7687,0
DA:7690,0
DA:7691,0
DA:7692,0
DA:7693,0
DA:7694,0
DA:7695,0
DA:7696,0
DA:7699,22
DA:7701,0
DA:7702,0
DA:7706,0
DA:7708,0
DA:7710,0
DA:7711,0
DA:7712,0
DA:7714,0
DA:7715,0
DA:7716,0
DA:7719,22
DA:7721,0
DA:7722,0
DA:7723,0
DA:7724,0
DA:7725,0
DA:7728,22
DA:7730,22
DA:7731,10
DA:7732,10
DA:7733,10
DA:7735,10
DA:7736,20
DA:7738,18
DA:7740,10
DA:7741,10
DA:7742,20
DA:7744,20
DA:7745,10
DA:7747,0
DA:7748,0
DA:7752,0
DA:7759,0
DA:7768,1407297
DA:7781,1407297
DA:7783,1407297
DA:7784,31686
DA:7787,1407297
DA:7789,1388787
DA:7790,1388787
DA:7792,388140
DA:7796,388140
DA:7804,388140
DA:7808,388139
DA:7811,388139
DA:7812,0
DA:7813,0
DA:7814,0
DA:7818,388139
DA:7819,388139
DA:7821,0
DA:7822,0
DA:7824,388139
DA:7827,388139
DA:7830,388139
DA:7831,388139
DA:7832,388139
DA:7833,388139
DA:7835,0
DA:7837,0
DA:7841,388139
DA:7842,388139
DA:7844,388139
DA:7845,388139
DA:7847,1
DA:7849,0
DA:7850,0
DA:7853,0
DA:7855,0
DA:7858,0
DA:7862,0
DA:7864,0
DA:7865,1
DA:7866,1
DA:7867,1
DA:7868,0
DA:7869,0
DA:7870,0
DA:7871,0
DA:7872,0
DA:7874,388138
DA:7875,117
DA:7877,388138
DA:7878,388139
DA:7881,1388786
DA:7882,1388186
DA:7888,1424531
DA:7890,1424531
DA:7891,1424531
DA:7893,1424531
DA:7894,14089
DA:7899,1423500
DA:7900,1423500
DA:7902,0
DA:7904,1423500
DA:7908,1421321
DA:7909,2179
DA:7910,4358
DA:7911,2179
DA:7913,2179
DA:7914,2179
DA:7915,2179
DA:7916,2179
DA:7917,2179
DA:7920,0
DA:7921,0
DA:7925,1423500
DA:7926,1423500
DA:7927,13058
DA:7930,1410442
DA:7931,1410442
DA:7933,459
DA:7934,1421
DA:7937,962
DA:7938,0
DA:7941,962
DA:7943,459
DA:7944,459
DA:7945,459
DA:7950,1410442
DA:7952,504099
DA:7953,504099
DA:7954,504099
DA:7956,0
DA:7958,0
DA:7959,0
DA:7961,0
DA:7963,0
DA:7964,0
DA:7968,504099
DA:7969,504099
DA:7970,0
DA:7971,504099
DA:7973,1410442
DA:7974,1410442
DA:7975,5
DA:7976,4
DA:7978,3
DA:7980,3
DA:7983,8
DA:7985,1
DA:7988,3
DA:7989,4
DA:7992,1
DA:7995,5
DA:7998,1410444
DA:7999,4
DA:8000,1410442
DA:8003,1410442
DA:8004,0
DA:8005,1410442
DA:8006,1410442
DA:8008,11031
DA:8009,11031
DA:8010,11031
DA:8011,0
DA:8012,0
DA:8013,0
DA:8014,0
DA:8015,0
DA:8016,0
DA:8017,0
DA:8018,0
DA:8022,11031
DA:8023,1939
DA:8024,1939
DA:8025,1939
DA:8026,1939
DA:8027,1939
DA:8028,3878
DA:8036,1410442
DA:8038,1391030
DA:8044,1410442
DA:8045,1410442
DA:8046,1410442
DA:8047,1410442
DA:8048,1410442
DA:8049,1410442
DA:8050,1628019
DA:8052,217577
DA:8053,5718
DA:8056,211859
DA:8059,38843
DA:8060,77686
DA:8061,240
DA:8062,77686
DA:8063,38843
DA:8064,77686
DA:8066,38843
DA:8068,34175
DA:8069,34175
DA:8074,177684
DA:8076,177684
DA:8077,177684
DA:8079,0
DA:8080,0
DA:8081,217577
DA:8085,1410442
DA:8086,0
DA:8087,1410442
DA:8089,96565
DA:8090,96565
DA:8094,1410442
DA:8095,1410442
DA:8099,0
DA:8100,0
DA:8112,1410442
DA:8113,208935
DA:8114,208935
DA:8115,208935
DA:8116,3071
DA:8117,3071
DA:8119,208935
DA:8120,0
DA:8121,0
DA:8128,1410442
DA:8129,1410442
DA:8130,1399591
DA:8131,1399591
DA:8132,1399591
DA:8133,1403001
DA:8134,3410
DA:8135,3410
DA:8136,6820
DA:8137,3410
DA:8139,1399591
DA:8140,0
DA:8141,0
DA:8142,0
DA:8145,1399591
DA:8150,1434133
DA:8152,23691
DA:8153,23691
DA:8155,23553
DA:8156,7947
DA:8157,23553
DA:8158,23553
DA:8160,0
DA:8161,0
DA:8165,138
DA:8167,23691
DA:8169,1410442
DA:8170,8015
DA:8172,1424531
DA:8173,1410442
DA:8176,489
DA:8177,978
DA:8186,490
DA:8188,490
DA:8189,172279
DA:8190,342598
DA:8191,490
DA:8194,490
DA:8195,490
DA:8196,490
DA:8199,112185
DA:8201,112185
DA:8203,0
DA:8204,0
DA:8207,112185
DA:8208,112185
DA:8212,112185
DA:8218,12726
DA:8219,12726
DA:8220,12726
DA:8222,12726
DA:8225,12726
DA:8227,0
DA:8228,0
DA:8232,12726
DA:8246,8764
DA:8248,6803
DA:8249,6803
DA:8258,1961
DA:8259,1961
DA:8261,1961
DA:8263,3299
DA:8265,2676
DA:8269,1961
DA:8270,1961
DA:8271,1961
DA:8273,1961
DA:8274,1961
DA:8275,1961
DA:8276,7678
DA:8278,5717
DA:8280,5707
DA:8286,5717
DA:8288,5717
DA:8289,9749
DA:8291,8064
DA:8292,4032
DA:8293,4032
DA:8298,1961
DA:8299,1961
DA:8300,112185
DA:8306,0
DA:8308,0
DA:8309,0
DA:8310,0
DA:8311,0
DA:8312,0
DA:8317,0
DA:8318,0
DA:8320,0
DA:8321,0
DA:8324,0
DA:8326,0
DA:8328,0
DA:8329,0
DA:8330,0
DA:8331,0
DA:8332,0
DA:8337,0
DA:8338,0
DA:8340,0
DA:8341,0
DA:8342,0
DA:8343,0
DA:8346,0
DA:8348,0
DA:8350,0
DA:8351,0
DA:8352,0
DA:8353,0
DA:8354,0
DA:8359,0
DA:8360,0
DA:8362,0
DA:8363,0
DA:8366,0
DA:8368,0
DA:8370,0
DA:8371,0
DA:8372,0
DA:8373,0
DA:8374,0
DA:8379,0
DA:8381,0
DA:8383,0
DA:8384,0
DA:8385,0
DA:8388,0
DA:8391,0
DA:8392,0
DA:8393,0
DA:8394,0
DA:8396,0
DA:8398,0
DA:8402,0
DA:8407,0
DA:8409,0
DA:8412,0
DA:8413,0
DA:8415,0
DA:8416,0
DA:8418,0
DA:8420,0
DA:8421,0
DA:8423,7584
DA:8425,7584
DA:8426,7584
DA:8427,7584
DA:8430,5298
DA:8433,7584
DA:8434,7584
DA:8437,5298
DA:8439,7584
DA:8440,7584
DA:8441,9747
DA:8442,7584
DA:8443,7584
DA:8444,7584
DA:8445,7584
DA:8446,7584
DA:8447,7584
DA:8448,7584
DA:8449,15168
DA:8450,15168
DA:8451,7584
DA:8452,7584
DA:8453,7584
DA:8455,7584
DA:8457,7584
DA:8460,0
DA:8462,0
DA:8464,0
DA:8467,0
DA:8468,0
DA:8469,0
DA:8471,0
DA:8473,0
DA:8474,0
DA:8475,0
DA:8479,0
DA:8481,0
DA:8483,0
DA:8484,0
DA:8486,0
DA:8488,0
DA:8490,0
DA:8492,0
DA:8493,0
DA:8495,0
DA:8496,0
DA:8510,0
DA:8514,0
DA:8516,0
DA:8518,0
DA:8523,0
DA:8524,0
DA:8526,0
DA:8528,0
DA:8532,338737
DA:8534,338737
DA:8536,331732
DA:8539,7005
DA:8541,7005
DA:8542,22173
DA:8544,7584
DA:8546,0
DA:8549,7584
DA:8551,7584
DA:8554,7005
DA:8555,7005
DA:8557,7005
DA:8558,7005
DA:8559,14589
DA:8561,15168
DA:8563,7005
DA:8565,0
DA:8567,0
DA:8572,0
DA:8573,0
DA:8575,0
DA:8577,0
DA:8581,70165
DA:8583,70165
DA:8584,70165
DA:8586,0
DA:8587,0
DA:8590,1356656
DA:8591,1286491
DA:8594,70165
DA:8596,69357
DA:8597,69357
DA:8599,69357
DA:8600,69357
DA:8601,138714
DA:8602,70156
DA:8603,69357
DA:8608,0
DA:8609,0
DA:8618,808
DA:8621,254
DA:8622,254
DA:8625,554
DA:8626,554
DA:8628,554
DA:8631,26
DA:8632,13
DA:8634,13
DA:8635,13
DA:8637,13
DA:8639,13
DA:8642,1
DA:8643,1
DA:8644,1
DA:8645,70165
DA:8651,0
DA:8652,0
DA:8656,553
DA:8657,553
DA:8666,339
DA:8668,339
DA:8670,339
DA:8671,339
DA:8672,339
DA:8674,0
DA:8677,7335710
DA:8680,7335710
DA:8681,7335710
DA:8684,349
DA:8687,349
DA:8688,349
DA:8691,348
DA:8694,348
DA:8695,348
DA:8698,293
DA:8700,293
DA:8702,293
DA:8703,293
DA:8704,293
DA:8706,0
DA:8709,72034
DA:8712,72034
DA:8713,72034
DA:8716,311
DA:8718,311
DA:8720,311
DA:8722,311
DA:8727,311
DA:8728,311
DA:8730,0
DA:8733,74573
DA:8736,74573
DA:8737,74573
LF:4191
LH:3244
end_of_record
TN:
SF:/home/apetrini/dev/src/zen/src/main.h
FN:621,_ZNK14CBlockFileInfo16GetSerializeSizeEii
FN:624,_ZN14CBlockFileInfo15SerializationOpI13CSizeComputer19CSerActionSerializeEEvRT_T0_ii
FN:624,_ZN14CBlockFileInfo15SerializationOpI15CBaseDataStreamISt6vectorIc25zero_after_free_allocatorIcEEE21CSerActionUnserializeEEvRT_T0_ii
FN:624,_ZN14CBlockFileInfo15SerializationOpI15CBaseDataStreamISt6vectorIc25zero_after_free_allocatorIcEEE19CSerActionSerializeEEvRT_T0_ii
FN:651,_ZN14CBlockFileInfo8AddBlockEjm
FNDA:721,_ZNK14CBlockFileInfo16GetSerializeSizeEii
FNDA:179,_ZN14CBlockFileInfo15SerializationOpI15CBaseDataStreamISt6vectorIc25zero_after_free_allocatorIcEEE21CSerActionUnserializeEEvRT_T0_ii
FNDA:721,_ZN14CBlockFileInfo15SerializationOpI15CBaseDataStreamISt6vectorIc25zero_after_free_allocatorIcEEE19CSerActionSerializeEEvRT_T0_ii
FNDA:721,_ZN14CBlockFileInfo15SerializationOpI13CSizeComputer19CSerActionSerializeEEvRT_T0_ii
FNDA:112494,_ZN14CBlockFileInfo8AddBlockEjm
FNF:5
FNH:5
DA:174,1560256
DA:179,1560256
DA:180,891766
DA:182,668490
DA:393,16054
DA:400,2422
DA:505,641045
DA:621,1621
DA:624,1621
DA:625,1621
DA:626,1621
DA:627,1621
DA:628,1621
DA:629,1621
DA:630,1621
DA:631,1621
DA:632,1621
DA:634,979
DA:635,979
DA:636,979
DA:637,979
DA:638,979
DA:639,979
DA:640,979
DA:641,0
DA:644,979
DA:645,979
DA:651,112494
DA:652,112494
DA:653,311
DA:654,112494
DA:655,311
DA:656,112494
DA:657,112494
DA:658,98565
DA:659,112494
DA:660,21712
DA:661,112494
LF:38
LH:37
end_of_record
TN:
SF:/home/apetrini/dev/src/zen/src/maturityheightindex.h
FN:40,_ZNK18CMaturityHeightKey9SerializeI15CBaseDataStreamISt6vectorIc25zero_after_free_allocatorIcEEEEEvRT_ii
FN:46,_ZN18CMaturityHeightKey11UnserializeI15CBaseDataStreamISt6vectorIc25zero_after_free_allocatorIcEEEEEvRT_ii
FN:56,_ZN18CMaturityHeightKeyC2Ev
FN:60,_ZN18CMaturityHeightKey7SetNullEv
FNDA:900,_ZN18CMaturityHeightKeyC2Ev
FNDA:900,_ZN18CMaturityHeightKey7SetNullEv
FNDA:900,_ZN18CMaturityHeightKey11UnserializeI15CBaseDataStreamISt6vectorIc25zero_after_free_allocatorIcEEEEEvRT_ii
FNDA:9,_ZNK18CMaturityHeightKey9SerializeI15CBaseDataStreamISt6vectorIc25zero_after_free_allocatorIcEEEEEvRT_ii
FNF:4
FNH:4
DA:10,1420
DA:12,1420
DA:19,1420
DA:20,1420
DA:40,9
DA:42,9
DA:43,9
DA:44,9
DA:46,900
DA:47,900
DA:48,900
DA:49,900
DA:51,9
DA:52,9
DA:53,9
DA:56,900
DA:57,900
DA:58,900
DA:60,900
DA:61,900
DA:62,900
DA:63,900
DA:70,5
DA:72,5
DA:73,5
DA:76,5
DA:77,5
DA:80,4
DA:81,4
DA:84,4
DA:85,4
DA:88,9
DA:89,9
LF:33
LH:33
end_of_record
TN:
SF:/home/apetrini/dev/src/zen/src/memusage.h
FNF:0
FNH:0
DA:46,238272090
DA:49,238272090
DA:50,238272090
DA:72,237821837
DA:74,237821837
DA:78,5579
DA:81,5579
DA:86,2295
DA:88,2295
DA:92,11622
DA:94,11622
DA:113,408555
DA:115,408555
LF:13
LH:13
end_of_record
TN:
SF:/home/apetrini/dev/src/zen/src/merkleblock.cpp
FN:14,_ZN12CMerkleBlockC2ERK6CBlockR12CBloomFilter
FN:53,_ZN12CMerkleBlockC2ERK6CBlockRKSt3setI7uint256St4lessIS4_ESaIS4_EE
FN:85,_ZN18CPartialMerkleTree8CalcHashEijRKSt6vectorI7uint256SaIS1_EE
FN:102,_ZN18CPartialMerkleTree16TraverseAndBuildEijRKSt6vectorI7uint256SaIS1_EERKS0_IbSaIbEE
FN:120,_ZN18CPartialMerkleTree18TraverseAndExtractEijRjS0_RSt6vectorI7uint256SaIS2_EE
FN:156,_ZN18CPartialMerkleTreeC2ERKSt6vectorI7uint256SaIS1_EERKS0_IbSaIbEE
FN:170,_ZN18CPartialMerkleTreeC2Ev
FN:172,_ZN18CPartialMerkleTree14ExtractMatchesERSt6vectorI7uint256SaIS1_EE
FNDA:0,_ZN12CMerkleBlockC2ERK6CBlockR12CBloomFilter
FNDA:40,_ZN18CPartialMerkleTree8CalcHashEijRKSt6vectorI7uint256SaIS1_EE
FNDA:11,_ZN12CMerkleBlockC2ERK6CBlockRKSt3setI7uint256St4lessIS4_ESaIS4_EE
FNDA:54,_ZN18CPartialMerkleTree16TraverseAndBuildEijRKSt6vectorI7uint256SaIS1_EERKS0_IbSaIbEE
FNDA:21,_ZN18CPartialMerkleTreeC2Ev
FNDA:50,_ZN18CPartialMerkleTree18TraverseAndExtractEijRjS0_RSt6vectorI7uint256SaIS2_EE
FNDA:10,_ZN18CPartialMerkleTree14ExtractMatchesERSt6vectorI7uint256SaIS1_EE
FNDA:11,_ZN18CPartialMerkleTreeC2ERKSt6vectorI7uint256SaIS1_EERKS0_IbSaIbEE
FNF:8
FNH:7
DA:14,0
DA:15,0
DA:17,0
DA:18,0
DA:20,0
DA:21,0
DA:23,0
DA:25,0
DA:26,0
DA:28,0
DA:29,0
DA:32,0
DA:33,0
DA:36,0
DA:38,0
DA:39,0
DA:40,0
DA:42,0
DA:43,0
DA:46,0
DA:47,0
DA:50,0
DA:51,0
DA:53,11
DA:54,11
DA:56,11
DA:57,11
DA:59,11
DA:60,11
DA:62,40
DA:64,29
DA:65,29
DA:66,11
DA:68,18
DA:69,29
DA:72,15
DA:74,4
DA:75,4
DA:76,4
DA:78,0
DA:79,4
DA:82,22
DA:83,11
DA:85,40
DA:86,40
DA:88,33
DA:91,7
DA:93,7
DA:94,5
DA:96,2
DA:98,7
DA:102,54
DA:104,54
DA:105,141
DA:106,87
DA:108,54
DA:109,54
DA:111,28
DA:114,26
DA:115,26
DA:116,17
DA:118,54
DA:120,50
DA:121,50
DA:123,0
DA:124,0
DA:126,50
DA:127,50
DA:129,26
DA:131,0
DA:132,0
DA:134,26
DA:135,26
DA:136,14
DA:137,26
DA:140,24
DA:141,24
DA:142,16
DA:143,16
DA:146,0
DA:149,8
DA:152,24
DA:156,11
DA:158,11
DA:159,11
DA:162,11
DA:163,33
DA:164,22
DA:167,11
DA:168,11
DA:170,21
DA:172,10
DA:173,10
DA:175,10
DA:176,0
DA:178,10
DA:179,0
DA:181,10
DA:182,0
DA:184,10
DA:185,0
DA:188,30
DA:189,20
DA:191,10
DA:192,10
DA:194,10
DA:195,0
DA:197,10
DA:198,0
DA:200,10
DA:201,0
DA:202,10
LF:112
LH:76
end_of_record
TN:
SF:/home/apetrini/dev/src/zen/src/merkleblock.h
FN:88,_ZN18CPartialMerkleTree15SerializationOpI15CBaseDataStreamISt6vectorIc25zero_after_free_allocatorIcEEE19CSerActionSerializeEEvRT_T0_ii
FN:88,_ZN18CPartialMerkleTree15SerializationOpI15CBaseDataStreamISt6vectorIc25zero_after_free_allocatorIcEEE21CSerActionUnserializeEEvRT_T0_ii
FN:145,_ZN12CMerkleBlockC2Ev
FN:150,_ZN12CMerkleBlock15SerializationOpI15CBaseDataStreamISt6vectorIc25zero_after_free_allocatorIcEEE21CSerActionUnserializeEEvRT_T0_ii
FN:150,_ZN12CMerkleBlock15SerializationOpI15CBaseDataStreamISt6vectorIc25zero_after_free_allocatorIcEEE19CSerActionSerializeEEvRT_T0_ii
FNDA:11,_ZN12CMerkleBlock15SerializationOpI15CBaseDataStreamISt6vectorIc25zero_after_free_allocatorIcEEE19CSerActionSerializeEEvRT_T0_ii
FNDA:10,_ZN18CPartialMerkleTree15SerializationOpI15CBaseDataStreamISt6vectorIc25zero_after_free_allocatorIcEEE21CSerActionUnserializeEEvRT_T0_ii
FNDA:11,_ZN18CPartialMerkleTree15SerializationOpI15CBaseDataStreamISt6vectorIc25zero_after_free_allocatorIcEEE19CSerActionSerializeEEvRT_T0_ii
FNDA:10,_ZN12CMerkleBlock15SerializationOpI15CBaseDataStreamISt6vectorIc25zero_after_free_allocatorIcEEE21CSerActionUnserializeEEvRT_T0_ii
FNDA:10,_ZN12CMerkleBlockC2Ev
FNF:5
FNH:5
DA:50,11
DA:66,120
DA:67,120
DA:85,21
DA:88,21
DA:89,21
DA:90,21
DA:91,21
DA:93,10
DA:94,10
DA:95,10
DA:96,90
DA:97,80
DA:98,10
DA:100,11
DA:101,65
DA:102,54
DA:103,11
DA:105,21
DA:145,10
DA:147,21
DA:150,21
DA:151,21
DA:152,21
DA:153,21
LF:25
LH:25
end_of_record
TN:
SF:/home/apetrini/dev/src/zen/src/metrics.cpp
FN:30,_ZN11AtomicTimer5startEv
FN:39,_ZN11AtomicTimer4stopEv
FN:52,_ZN11AtomicTimer7runningEv
FN:58,_ZN11AtomicTimer11threadCountEv
FN:64,_ZN11AtomicTimer4rateERK13AtomicCounter
FN:93,_Z15TrackMinedBlock7uint256
FN:100,_Z13MarkStartTimev
FN:105,_Z9GetUptimev
FN:110,_Z13GetLocalSolPSv
FN:115,_Z22EstimateNetHeightInnerililll
FN:134,_Z17EstimateNetHeightil12CChainParams
FN:145,_Z14TriggerRefreshv
FN:152,_ZL28metrics_ThreadSafeMessageBoxRKNSt7__cxx1112basic_stringIcSt11char_traitsIcESaIcEEES6_j
FN:185,_ZL26metrics_ThreadSafeQuestionRKNSt7__cxx1112basic_stringIcSt11char_traitsIcESaIcEEES6_S6_j
FN:190,_ZL19metrics_InitMessageRKNSt7__cxx1112basic_stringIcSt11char_traitsIcESaIcEEE
FN:195,_Z20ConnectMetricsScreenv
FN:205,_Z10printStatsb
FN:272,_Z17printMiningStatusb
FN:311,_Z12printMetricsmb
FN:406,_Z15printMessageBoxm
FN:437,_Z16printInitMessagev
FN:477,_Z23ThreadShowMetricsScreenv
FNDA:0,_Z22EstimateNetHeightInnerililll
FNDA:0,_Z17EstimateNetHeightil12CChainParams
FNDA:0,_Z14TriggerRefreshv
FNDA:0,_Z20ConnectMetricsScreenv
FNDA:0,_Z10printStatsb
FNDA:0,_ZN11AtomicTimer5startEv
FNDA:0,_ZN11AtomicTimer7runningEv
FNDA:0,_Z16printInitMessagev
FNDA:0,_Z15TrackMinedBlock7uint256
FNDA:0,_Z15printMessageBoxm
FNDA:4,_Z13GetLocalSolPSv
FNDA:0,_ZN11AtomicTimer11threadCountEv
FNDA:0,_ZL26metrics_ThreadSafeQuestionRKNSt7__cxx1112basic_stringIcSt11char_traitsIcESaIcEEES6_S6_j
FNDA:0,_Z17printMiningStatusb
FNDA:0,_ZL19metrics_InitMessageRKNSt7__cxx1112basic_stringIcSt11char_traitsIcESaIcEEE
FNDA:0,_Z23ThreadShowMetricsScreenv
FNDA:4,_ZN11AtomicTimer4rateERK13AtomicCounter
FNDA:0,_Z12printMetricsmb
FNDA:490,_Z13MarkStartTimev
FNDA:0,_Z9GetUptimev
FNDA:0,_ZL28metrics_ThreadSafeMessageBoxRKNSt7__cxx1112basic_stringIcSt11char_traitsIcESaIcEEES6_j
FNDA:0,_ZN11AtomicTimer4stopEv
FNF:22
FNH:3
DA:30,0
DA:32,0
DA:33,0
DA:34,0
DA:36,0
DA:37,0
DA:39,0
DA:41,0
DA:43,0
DA:44,0
DA:45,0
DA:46,0
DA:47,0
DA:50,0
DA:52,0
DA:54,0
DA:55,0
DA:56,0
DA:58,0
DA:60,0
DA:61,0
DA:62,0
DA:64,4
DA:66,8
DA:67,4
DA:68,4
DA:70,0
DA:72,4
DA:73,4
DA:93,0
DA:95,0
DA:96,0
DA:97,0
DA:98,0
DA:100,490
DA:102,490
DA:103,490
DA:105,0
DA:107,0
DA:110,4
DA:112,4
DA:115,0
DA:122,0
DA:125,0
DA:126,0
DA:127,0
DA:128,0
DA:129,0
DA:131,0
DA:134,0
DA:136,0
DA:137,0
DA:141,0
DA:142,0
DA:143,0
DA:145,0
DA:147,0
DA:149,0
DA:150,0
DA:152,0
DA:157,0
DA:159,0
DA:161,0
DA:162,0
DA:163,0
DA:164,0
DA:165,0
DA:166,0
DA:167,0
DA:168,0
DA:169,0
DA:170,0
DA:171,0
DA:172,0
DA:175,0
DA:176,0
DA:177,0
DA:178,0
DA:181,0
DA:182,0
DA:183,0
DA:185,0
DA:187,0
DA:190,0
DA:192,0
DA:193,0
DA:195,0
DA:197,0
DA:198,0
DA:199,0
DA:200,0
DA:201,0
DA:202,0
DA:203,0
DA:205,0
DA:208,0
DA:210,0
DA:211,0
DA:212,0
DA:213,0
DA:214,0
DA:215,0
DA:216,0
DA:217,0
DA:218,0
DA:219,0
DA:250,0
DA:259,0
DA:260,0
DA:261,0
DA:262,0
DA:263,0
DA:264,0
DA:266,0
DA:267,0
DA:269,0
DA:272,0
DA:276,0
DA:278,0
DA:279,0
DA:280,0
DA:281,0
DA:282,0
DA:284,0
DA:285,0
DA:286,0
DA:287,0
DA:288,0
DA:289,0
DA:290,0
DA:291,0
DA:292,0
DA:294,0
DA:297,0
DA:299,0
DA:300,0
DA:301,0
DA:303,0
DA:305,0
DA:311,0
DA:314,0
DA:317,0
DA:318,0
DA:319,0
DA:320,0
DA:321,0
DA:324,0
DA:325,0
DA:326,0
DA:327,0
DA:328,0
DA:329,0
DA:330,0
DA:332,0
DA:334,0
DA:335,0
DA:336,0
DA:338,0
DA:339,0
DA:340,0
DA:341,0
DA:342,0
DA:344,0
DA:347,0
DA:348,0
DA:349,0
DA:351,0
DA:352,0
DA:353,0
DA:354,0
DA:355,0
DA:356,0
DA:357,0
DA:358,0
DA:359,0
DA:362,0
DA:363,0
DA:364,0
DA:365,0
DA:366,0
DA:367,0
DA:368,0
DA:370,0
DA:371,0
DA:372,0
DA:374,0
DA:375,0
DA:377,0
DA:379,0
DA:381,0
DA:385,0
DA:386,0
DA:387,0
DA:389,0
DA:390,0
DA:391,0
DA:392,0
DA:393,0
DA:395,0
DA:396,0
DA:397,0
DA:398,0
DA:399,0
DA:401,0
DA:403,0
DA:404,0
DA:406,0
DA:408,0
DA:410,0
DA:414,0
DA:415,0
DA:416,0
DA:417,0
DA:418,0
DA:420,0
DA:422,0
DA:423,0
DA:424,0
DA:425,0
DA:428,0
DA:430,0
DA:432,0
DA:433,0
DA:435,0
DA:437,0
DA:439,0
DA:443,0
DA:444,0
DA:445,0
DA:447,0
DA:448,0
DA:451,0
DA:452,0
DA:477,0
DA:480,0
DA:483,0
DA:484,0
DA:485,0
DA:487,0
DA:492,0
DA:495,0
DA:496,0
DA:499,0
DA:500,0
DA:501,0
DA:502,0
DA:505,0
DA:506,0
DA:509,0
DA:511,0
DA:512,0
DA:515,0
DA:521,0
DA:522,0
DA:523,0
DA:524,0
DA:529,0
DA:531,0
DA:536,0
DA:541,0
DA:542,0
DA:543,0
DA:545,0
DA:546,0
DA:547,0
DA:549,0
DA:552,0
DA:556,0
DA:558,0
DA:561,0
DA:564,0
DA:565,0
DA:566,0
DA:567,0
DA:570,0
DA:572,0
LF:276
LH:11
end_of_record
TN:
SF:/home/apetrini/dev/src/zen/src/metrics.h
FNF:0
FNH:0
DA:14,0
DA:16,1793796
DA:17,1793796
DA:18,180056
DA:20,0
DA:21,0
DA:24,0
DA:25,0
DA:37,0
LF:9
LH:3
end_of_record
TN:
SF:/home/apetrini/dev/src/zen/src/miner.cpp
FN:60,_ZN17TxPriorityCompareclERKN5boost6tuples5tupleId8CFeeRatePK16CTransactionBaseNS1_9null_typeES7_S7_S7_S7_S7_S7_EESA_
FN:97,_Z10UpdateTimeP12CBlockHeaderRKN9Consensus6ParamsEPK11CBlockIndex
FN:110,_Z30VerifyCertificatesDependenciesRK14CScCertificate
FN:150,_Z29VerifySidechainTxDependenciesRK12CTransactionRK15CCoinsViewCacheRNSt7__cxx114listI7COrphanSaIS7_EEERSt3mapI7uint256St6vectorIPS7_SaISE_EESt4lessISC_ESaISt4pairIKSC_SG_EEERSE_
FN:195,_Z21GetInputsDependenciesRK16CTransactionBaseRlRNSt7__cxx114listI7COrphanSaIS5_EEERSt3mapI7uint256St6vectorIPS5_SaISC_EESt4lessISA_ESaISt4pairIKSA_SE_EEERSC_
FN:249,_Z15AddToPrioritiesRK16CTransactionBaseRK15CCoinsViewCacheRliRK13CMemPoolEntryRSt6vectorIN5boost6tuples5tupleId8CFeeRatePS0_NSB_9null_typeESF_SF_SF_SF_SF_SF_EESaISG_EEP7COrphan
FN:318,_Z24GetBlockCertPriorityDataRK15CCoinsViewCacheiRSt6vectorIN5boost6tuples5tupleId8CFeeRatePK16CTransactionBaseNS4_9null_typeESA_SA_SA_SA_SA_SA_EESaISB_EERNSt7__cxx114listI7COrphanSaISH_EEERSt3mapI7uint256S2_IPSH_SaISN_EESt4lessISM_ESaISt4pairIKSM_SP_EEE
FN:352,_Z22GetBlockTxPriorityDataRK15CCoinsViewCacheilRSt6vectorIN5boost6tuples5tupleId8CFeeRatePK16CTransactionBaseNS4_9null_typeESA_SA_SA_SA_SA_SA_EESaISB_EERNSt7__cxx114listI7COrphanSaISH_EEERSt3mapI7uint256S2_IPSH_SaISN_EESt4lessISM_ESaISt4pairIKSM_SP_EEE
FN:389,_Z25GetBlockTxPriorityDataOldRK15CCoinsViewCacheilRSt6vectorIN5boost6tuples5tupleId8CFeeRatePK16CTransactionBaseNS4_9null_typeESA_SA_SA_SA_SA_SA_EESaISB_EERNSt7__cxx114listI7COrphanSaISH_EEERSt3mapI7uint256S2_IPSH_SaISN_EESt4lessISM_ESaISt4pairIKSM_SP_EEE
FN:478,_Z14CreateNewBlockRK7CScript
FN:486,_Z14createCoinbaseRK7CScriptli
FN:521,_Z14CreateNewBlockRK7CScriptj
FN:827,_Z20GetMinerScriptPubKeyR11CReserveKey
FN:853,_Z21CreateNewBlockWithKeyR11CReserveKey
FN:875,_Z19IncrementExtraNonceP6CBlockP11CBlockIndexRj
FN:899,_ZL17ProcessBlockFoundP6CBlockP7CWalletR11CReserveKey
FN:939,_ZL12BitcoinMinerP7CWallet
FN:968,_ZZL12BitcoinMinerP7CWalletENUlRK7uint256E_clES3_
FN:1052,_ZZL12BitcoinMinerP7CWalletENKUlSt6vectorIhSaIhEEE0_clES3_
FN:1180,_Z16GenerateBitcoinsbP7CWalleti
FNDA:0,_ZL17ProcessBlockFoundP6CBlockP7CWalletR11CReserveKey
FNDA:39216,_Z14createCoinbaseRK7CScriptli
FNDA:39216,_Z21CreateNewBlockWithKeyR11CReserveKey
FNDA:39209,_Z22GetBlockTxPriorityDataRK15CCoinsViewCacheilRSt6vectorIN5boost6tuples5tupleId8CFeeRatePK16CTransactionBaseNS4_9null_typeESA_SA_SA_SA_SA_SA_EESaISB_EERNSt7__cxx114listI7COrphanSaISH_EEERSt3mapI7uint256S2_IPSH_SaISN_EESt4lessISM_ESaISt4pairIKSM_SP_EEE
FNDA:39216,_Z20GetMinerScriptPubKeyR11CReserveKey
FNDA:145,_Z30VerifyCertificatesDependenciesRK14CScCertificate
FNDA:39169,_Z19IncrementExtraNonceP6CBlockP11CBlockIndexRj
FNDA:39216,_Z14CreateNewBlockRK7CScriptj
FNDA:39216,_Z24GetBlockCertPriorityDataRK15CCoinsViewCacheiRSt6vectorIN5boost6tuples5tupleId8CFeeRatePK16CTransactionBaseNS4_9null_typeESA_SA_SA_SA_SA_SA_EESaISB_EERNSt7__cxx114listI7COrphanSaISH_EEERSt3mapI7uint256S2_IPSH_SaISN_EESt4lessISM_ESaISt4pairIKSM_SP_EEE
FNDA:121718,_Z29VerifySidechainTxDependenciesRK12CTransactionRK15CCoinsViewCacheRNSt7__cxx114listI7COrphanSaIS7_EEERSt3mapI7uint256St6vectorIPS7_SaISE_EESt4lessISC_ESaISt4pairIKSC_SG_EEERSE_
FNDA:121850,_Z15AddToPrioritiesRK16CTransactionBaseRK15CCoinsViewCacheRliRK13CMemPoolEntryRSt6vectorIN5boost6tuples5tupleId8CFeeRatePS0_NSB_9null_typeESF_SF_SF_SF_SF_SF_EESaISG_EEP7COrphan
FNDA:39314,_Z10UpdateTimeP12CBlockHeaderRKN9Consensus6ParamsEPK11CBlockIndex
FNDA:7,_Z25GetBlockTxPriorityDataOldRK15CCoinsViewCacheilRSt6vectorIN5boost6tuples5tupleId8CFeeRatePK16CTransactionBaseNS4_9null_typeESA_SA_SA_SA_SA_SA_EESaISB_EERNSt7__cxx114listI7COrphanSaISH_EEERSt3mapI7uint256S2_IPSH_SaISN_EESt4lessISM_ESaISt4pairIKSM_SP_EEE
FNDA:971131,_ZN17TxPriorityCompareclERKN5boost6tuples5tupleId8CFeeRatePK16CTransactionBaseNS1_9null_typeES7_S7_S7_S7_S7_S7_EESA_
FNDA:0,_ZZL12BitcoinMinerP7CWalletENUlRK7uint256E_clES3_
FNDA:39216,_Z14CreateNewBlockRK7CScript
FNDA:121850,_Z21GetInputsDependenciesRK16CTransactionBaseRlRNSt7__cxx114listI7COrphanSaIS5_EEERSt3mapI7uint256St6vectorIPS5_SaISC_EESt4lessISA_ESaISt4pairIKSA_SE_EEERSC_
FNDA:0,_ZL12BitcoinMinerP7CWallet
FNDA:1027,_Z16GenerateBitcoinsbP7CWalleti
FNDA:0,_ZZL12BitcoinMinerP7CWalletENKUlSt6vectorIhSaIhEEE0_clES3_
FNF:20
FNH:16
DA:60,971131
DA:65,971131
DA:68,14
DA:69,14
DA:70,14
DA:72,14
DA:74,10
DA:76,0
DA:77,0
DA:78,0
DA:79,0
DA:82,971121
DA:84,850233
DA:85,445708
DA:86,404525
DA:91,120888
DA:92,678
DA:93,120210
DA:97,39314
DA:99,39314
DA:100,39314
DA:102,39314
DA:104,21678
DA:106,39314
DA:108,39314
DA:110,145
DA:113,145
DA:115,0
DA:119,145
DA:121,0
DA:125,145
DA:127,0
DA:131,145
DA:132,185
DA:134,40
DA:135,9
DA:137,31
DA:138,31
DA:139,10
DA:140,21
DA:142,0
DA:143,145
DA:148,145
DA:150,121718
DA:153,121718
DA:154,121949
DA:155,231
DA:157,121789
DA:158,71
DA:160,121961
DA:162,243
DA:163,221
DA:164,22
DA:165,22
DA:166,44
DA:167,22
DA:170,22
DA:171,0
DA:173,22
DA:174,5
DA:175,5
DA:178,22
DA:179,22
DA:180,44
DA:181,22
DA:186,0
DA:187,0
DA:188,121718
DA:193,121718
DA:195,121850
DA:198,121850
DA:201,361077
DA:203,239227
DA:207,20
DA:209,40
DA:210,20
DA:213,0
DA:216,0
DA:217,121850
DA:219,20
DA:222,20
DA:223,20
DA:225,20
DA:226,20
DA:227,20
DA:228,40
DA:229,20
DA:231,413889
DA:233,64525
DA:236,36651
DA:237,36651
DA:239,64525
DA:240,64525
DA:241,64525
DA:242,129050
DA:243,64525
DA:249,121850
DA:252,121850
DA:253,121850
DA:254,121850
DA:255,121850
DA:258,121850
DA:260,85174
DA:261,85174
DA:262,85174
DA:264,85174
DA:266,170348
DA:267,85174
DA:269,85174
DA:273,111066
DA:277,74390
DA:278,64525
DA:279,9865
DA:280,20
DA:281,9845
DA:286,0
DA:287,0
DA:288,0
DA:290,9845
DA:291,9845
DA:293,9845
DA:294,9845
DA:296,9845
DA:298,9845
DA:300,36676
DA:305,36676
DA:306,36676
DA:308,36676
DA:310,36676
DA:312,36676
DA:313,36676
DA:318,39216
DA:321,39361
DA:323,145
DA:325,145
DA:326,145
DA:328,145
DA:330,0
DA:331,0
DA:332,0
DA:335,145
DA:337,0
DA:338,0
DA:339,0
DA:342,145
DA:343,145
DA:345,0
DA:346,0
DA:347,0
DA:350,39216
DA:352,39209
DA:355,160914
DA:357,121705
DA:359,121705
DA:360,0
DA:362,121705
DA:363,121705
DA:365,121705
DA:367,0
DA:368,0
DA:369,0
DA:372,121705
DA:374,0
DA:375,0
DA:376,0
DA:379,121705
DA:380,121705
DA:382,0
DA:383,0
DA:384,0
DA:387,39209
DA:389,7
DA:392,7
DA:394,20
DA:396,13
DA:398,13
DA:399,0
DA:401,13
DA:402,13
DA:403,13
DA:404,13
DA:405,376
DA:408,363
DA:414,7
DA:416,0
DA:417,0
DA:418,0
DA:419,0
DA:420,0
DA:425,7
DA:428,6
DA:429,6
DA:431,7
DA:432,7
DA:433,7
DA:434,7
DA:436,356
DA:437,356
DA:439,356
DA:440,356
DA:442,356
DA:444,356
DA:446,13
DA:448,13
DA:450,13
DA:454,0
DA:455,0
DA:456,0
DA:460,13
DA:461,13
DA:463,13
DA:464,13
DA:466,13
DA:468,13
DA:470,6
DA:471,6
DA:474,7
DA:476,7
DA:478,39216
DA:481,39216
DA:483,39216
DA:486,39216
DA:488,39216
DA:489,39216
DA:491,39216
DA:492,39216
DA:493,39216
DA:495,39216
DA:496,39216
DA:497,39216
DA:498,39216
DA:500,39216
DA:501,156864
DA:503,117648
DA:504,117648
DA:507,96782
DA:509,193564
DA:513,39216
DA:515,175214
DA:516,135998
DA:518,39216
DA:519,39216
DA:521,39216
DA:523,39216
DA:525,39216
DA:526,39216
DA:528,39216
DA:531,78432
DA:532,39216
DA:533,39216
DA:535,39216
DA:538,39216
DA:539,39216
DA:540,39216
DA:541,39216
DA:542,39216
DA:543,39216
DA:544,39216
DA:546,39216
DA:550,39216
DA:551,39216
DA:554,39216
DA:555,39216
DA:556,39216
DA:558,31539
DA:559,31539
DA:563,39216
DA:565,40745
DA:569,39216
DA:570,39216
DA:573,39216
DA:576,39216
DA:578,39216
DA:582,39680
DA:586,39218
DA:587,39216
DA:589,39216
DA:592,39216
DA:593,39216
DA:594,39218
DA:597,39216
DA:598,39216
DA:600,39216
DA:604,39216
DA:605,39216
DA:606,7
DA:608,39209
DA:610,39216
DA:613,39216
DA:614,39216
DA:616,39216
DA:617,39216
DA:618,39216
DA:619,39216
DA:621,39216
DA:622,39216
DA:626,125929
DA:629,86713
DA:630,86713
DA:631,86713
DA:633,86713
DA:634,86713
DA:637,86713
DA:639,86713
DA:642,86568
DA:644,30
DA:645,15
DA:646,73581
DA:650,86698
DA:652,147050
DA:653,147049
DA:654,73525
DA:658,13173
DA:659,13173
DA:660,0
DA:662,13173
DA:665,13173
DA:666,13173
DA:667,13173
DA:668,13173
DA:670,36
DA:671,18
DA:672,18
DA:677,13155
DA:678,901
DA:680,374
DA:681,374
DA:682,374
DA:686,13155
DA:687,13155
DA:688,23
DA:690,13132
DA:692,0
DA:693,0
DA:694,0
DA:697,13132
DA:698,13132
DA:699,13132
DA:701,0
DA:702,0
DA:703,0
DA:706,13132
DA:710,13132
DA:711,13132
DA:713,13132
DA:715,144
DA:716,144
DA:717,0
DA:719,144
DA:720,144
DA:721,144
DA:722,144
DA:723,144
DA:726,12988
DA:727,12988
DA:728,0
DA:730,12988
DA:731,12988
DA:732,12988
DA:733,12988
DA:734,12988
DA:735,12988
DA:738,13132
DA:739,13132
DA:740,13132
DA:742,13132
DA:743,13132
DA:744,13132
DA:746,13132
DA:748,380
DA:752,13132
DA:753,0
DA:755,0
DA:756,0
DA:759,24650
DA:761,3228
DA:762,1614
DA:763,4681
DA:765,3067
DA:767,2297
DA:768,2297
DA:769,2297
DA:771,3064
DA:772,1532
DA:774,1532
DA:775,1532
DA:780,770
DA:786,39216
DA:787,39216
DA:789,39216
DA:790,39216
DA:792,39216
DA:795,78432
DA:796,39216
DA:799,39218
DA:801,39216
DA:802,39216
DA:803,39216
DA:806,39216
DA:808,39216
DA:810,7677
DA:813,39216
DA:814,39216
DA:815,39216
DA:816,39216
DA:818,39216
DA:819,39216
DA:820,2
DA:821,78440
DA:823,39214
DA:824,39216
DA:827,39216
DA:832,39216
DA:833,39216
DA:834,39216
DA:835,0
DA:838,39216
DA:839,39216
DA:840,0
DA:842,39216
DA:848,78432
DA:849,39216
DA:850,78432
DA:853,39216
DA:855,39216
DA:862,39216
DA:865,39216
DA:866,39214
DA:875,39169
DA:878,39169
DA:879,39169
DA:881,39167
DA:882,39167
DA:884,39169
DA:885,39169
DA:886,39169
DA:887,39169
DA:888,39169
DA:890,39169
DA:891,39169
DA:896,39169
DA:899,0
DA:904,0
DA:905,0
DA:908,0
DA:909,0
DA:910,0
DA:911,0
DA:912,0
DA:915,0
DA:917,0
DA:921,0
DA:923,0
DA:924,0
DA:925,0
DA:929,0
DA:930,0
DA:931,0
DA:933,0
DA:936,0
DA:939,0
DA:944,0
DA:945,0
DA:946,0
DA:948,0
DA:952,0
DA:956,0
DA:958,0
DA:959,0
DA:961,0
DA:962,0
DA:963,0
DA:965,0
DA:966,0
DA:967,0
DA:968,0
DA:969,0
DA:970,0
DA:971,0
DA:972,0
DA:973,0
DA:975,0
DA:976,0
DA:977,0
DA:980,0
DA:981,0
DA:982,0
DA:983,0
DA:984,0
DA:985,0
DA:986,0
DA:987,0
DA:989,0
DA:991,0
DA:997,0
DA:998,0
DA:1001,0
DA:1005,0
DA:1007,0
DA:1008,0
DA:1011,0
DA:1013,0
DA:1015,0
DA:1016,0
DA:1017,0
DA:1023,0
DA:1024,0
DA:1026,0
DA:1028,0
DA:1029,0
DA:1032,0
DA:1033,0
DA:1034,0
DA:1037,0
DA:1040,0
DA:1041,0
DA:1042,0
DA:1043,0
DA:1044,0
DA:1047,0
DA:1048,0
DA:1050,0
DA:1052,0
DA:1056,0
DA:1058,0
DA:1059,0
DA:1060,0
DA:1062,0
DA:1067,0
DA:1068,0
DA:1069,0
DA:1071,0
DA:1076,0
DA:1077,0
DA:1078,0
DA:1079,0
DA:1082,0
DA:1084,0
DA:1085,0
DA:1089,0
DA:1090,0
DA:1091,0
DA:1092,0
DA:1093,0
DA:1096,0
DA:1098,0
DA:1099,0
DA:1102,0
DA:1103,0
DA:1104,0
DA:1105,0
DA:1106,0
DA:1107,0
DA:1108,0
DA:1110,0
DA:1111,0
DA:1114,0
DA:1115,0
DA:1116,0
DA:1117,0
DA:1118,0
DA:1120,0
DA:1122,0
DA:1127,0
DA:1128,0
DA:1129,0
DA:1131,0
DA:1132,0
DA:1133,0
DA:1136,0
DA:1137,0
DA:1138,0
DA:1139,0
DA:1140,0
DA:1144,0
DA:1146,0
DA:1148,0
DA:1150,0
DA:1152,0
DA:1156,0
DA:1157,0
DA:1158,0
DA:1159,0
DA:1161,0
DA:1163,0
DA:1164,0
DA:1165,0
DA:1166,0
DA:1167,0
DA:1168,0
DA:1170,0
DA:1171,0
DA:1172,0
DA:1173,0
DA:1174,0
DA:1177,0
DA:1180,1027
DA:1185,1027
DA:1187,1027
DA:1188,0
DA:1190,1027
DA:1192,0
DA:1193,0
DA:1194,0
DA:1195,0
DA:1198,1027
DA:1201,0
DA:1202,0
DA:1204,0
LF:609
LH:388
end_of_record
TN:
SF:/home/apetrini/dev/src/zen/src/miner.h
FNF:0
FNH:0
DA:41,110046
DA:49,36682
DA:58,39590
LF:3
LH:3
end_of_record
TN:
SF:/home/apetrini/dev/src/zen/src/mruset.h
FN:31,_ZN6mrusetIiEC2Em
FN:31,_ZN6mrusetI4CInvEC2Em
FN:38,_ZN6mrusetIiE5clearEv
FN:38,_ZN6mrusetI4CInvE5clearEv
FN:48,_ZN6mrusetI4CInvE6insertERKS0_
FN:48,_ZN6mrusetIiE6insertERKi
FNDA:3050,_ZN6mrusetI4CInvE5clearEv
FNDA:0,_ZN6mrusetIiE5clearEv
FNDA:0,_ZN6mrusetIiE6insertERKi
FNDA:3050,_ZN6mrusetI4CInvEC2Em
FNDA:455281,_ZN6mrusetI4CInvE6insertERKS0_
FNDA:0,_ZN6mrusetIiEC2Em
FNF:6
FNH:3
DA:31,3050
DA:32,0
DA:33,0
DA:37,1131838
DA:38,3050
DA:40,3050
DA:41,3050
DA:42,3050
DA:43,3050
DA:44,3050
DA:48,455281
DA:50,455281
DA:51,455281
DA:52,349553
DA:53,57096
DA:54,57096
DA:55,57096
DA:57,349553
DA:58,349553
DA:60,455281
LF:20
LH:18
end_of_record
TN:
SF:/home/apetrini/dev/src/zen/src/net.cpp
FN:120,_Z14GetNodeSignalsv
FN:137,_Z10AddOneShotRKNSt7__cxx1112basic_stringIcSt11char_traitsIcESaIcEEE
FN:143,_Z13GetListenPortv
FN:149,_Z8GetLocalR8CServicePK8CNetAddr
FN:174,_ZL12convertSeed6RKSt6vectorI9SeedSpec6SaIS0_EE
FN:198,_Z15GetLocalAddressPK8CNetAddr
FN:211,_Z9GetnScoreRK8CService
FN:220,_Z19IsPeerAddrLocalGoodP5CNode
FN:227,_Z14AdvertizeLocalP5CNode
FN:249,_Z8AddLocalRK8CServicei
FN:275,_Z8AddLocalRK8CNetAddri
FN:280,_Z11RemoveLocalRK8CService
FN:289,_Z10SetLimited7Networkb
FN:297,_Z9IsLimited7Network
FN:303,_Z9IsLimitedRK8CNetAddr
FN:309,_Z9SeenLocalRK8CService
FN:322,_Z7IsLocalRK8CService
FN:329,_Z11IsReachable7Network
FN:336,_Z11IsReachableRK8CNetAddr
FN:342,_Z25AddressCurrentlyConnectedRK8CService
FN:356,_Z8FindNodeRK8CNetAddr
FN:365,_Z8FindNodeRK7CSubNet
FN:374,_Z8FindNodeRKNSt7__cxx1112basic_stringIcSt11char_traitsIcESaIcEEE
FN:383,_Z8FindNodeRK8CService
FN:394,_Z11ConnectNode8CAddressPKc
FN:530,_ZN5CNode21CloseSocketDisconnectEv
FN:567,_ZN5CNode11PushVersionEv
FN:590,_ZN5CNode11ClearBannedEv
FN:596,_ZN5CNode8IsBannedE8CNetAddr
FN:613,_ZN5CNode8IsBannedE7CSubNet
FN:629,_ZN5CNode3BanERK8CNetAddrlb
FN:634,_ZN5CNode3BanERK7CSubNetlb
FN:644,_ZN5CNode5UnbanERK8CNetAddr
FN:649,_ZN5CNode5UnbanERK7CSubNet
FN:656,_ZN5CNode9GetBannedERSt3mapI7CSubNetlSt4lessIS1_ESaISt4pairIKS1_lEEE
FN:666,_ZN5CNode18IsWhitelistedRangeERK8CNetAddr
FN:675,_ZN5CNode19AddWhitelistedRangeERK7CSubNet
FN:682,_ZN5CNode9copyStatsER10CNodeStats
FN:727,_ZN5CNode15ReceiveMsgBytesEPKcj
FN:765,_ZN11CNetMessage10readHeaderEPKcj
FN:796,_ZN11CNetMessage8readDataEPKcj
FN:821,_Z14SocketSendDataP5CNode
FN:921,_ZN8CNodeRefC2EP5CNode
FN:926,_ZN8CNodeRefD2Ev
FN:934,_ZN8CNodeRefaSERKS_
FN:946,_ZN8CNodeRefC2ERKS_
FN:956,_ZL29ReverseCompareNodeMinPingTimeRK8CNodeRefS1_
FN:961,_ZL31ReverseCompareNodeTimeConnectedRK8CNodeRefS1_
FN:970,_ZN20CompareNetGroupKeyedC2Ev
FN:976,_ZN20CompareNetGroupKeyedclERK8CNodeRefS2_
FN:998,_ZL24AttemptToEvictConnectionb
FN:1074,_ZL16AcceptConnectionRKN12_GLOBAL__N_112ListenSocketE
FN:1228,_Z24ThreadNonTLSPoolsCleanerv
FN:1241,_Z19ThreadSocketHandlerv
FN:1461,_Z20ThreadDNSAddressSeedv
FN:1515,_Z13DumpAddressesv
FN:1526,_ZL14ProcessOneShotv
FN:1544,_Z21ThreadOpenConnectionsv
FN:1644,_Z26ThreadOpenAddedConnectionsv
FN:1716,_Z21OpenNetworkConnectionRK8CAddressP15CSemaphoreGrantPKcb
FN:1770,_Z20ThreadMessageHandlerv
FN:1843,_Z14BindListenPortRK8CServiceRNSt7__cxx1112basic_stringIcSt11char_traitsIcESaIcEEEb
FN:1946,_ZL8Discoverv
FN:1999,_Z9StartNodeRN5boost12thread_groupER10CScheduler
FN:2074,_Z8StopNodev
FN:2090,_ZN5CNode10NetCleanupEv
FN:2119,_Z5RelayRK16CTransactionBaseRK11CDataStream
FN:2160,_ZN5CNode15RecordBytesRecvEm
FN:2166,_ZN5CNode15RecordBytesSentEm
FN:2172,_ZN5CNode17GetTotalBytesRecvEv
FN:2178,_ZN5CNode17GetTotalBytesSentEv
FN:2184,_ZN5CNode4FuzzEi
FN:2223,_ZN7CAddrDBC2Ev
FN:2228,_ZN7CAddrDB5WriteERK8CAddrMan
FN:2266,_ZN7CAddrDB4ReadER8CAddrMan
FN:2320,_Z16ReceiveFloodSizev
FN:2321,_Z14SendBufferSizev
FN:2323,_ZN5CNodeC2EjRK8CAddressRKNSt7__cxx1112basic_stringIcSt11char_traitsIcESaIcEEEbP6ssl_st
FN:2381,_ZN5CNode20GetTlsFallbackNonTlsEv
FN:2402,_ZN5CNode14GetTlsValidateEv
FN:2423,_ZN5CNodeD2Ev
FN:2448,_ZN5CNode6AskForERK4CInv
FN:2482,_ZN5CNode12BeginMessageEPKc
FN:2490,_ZN5CNode12AbortMessageEv
FN:2499,_ZN5CNode10EndMessageEv
FNDA:1950,_ZN5CNode11PushVersionEv
FNDA:8,_ZN5CNode9GetBannedERSt3mapI7CSubNetlSt4lessIS1_ESaISt4pairIKS1_lEEE
FNDA:3,_ZN5CNode3BanERK7CSubNetlb
FNDA:490,_Z13DumpAddressesv
FNDA:0,_ZN5CNode12AbortMessageEv
FNDA:484,_Z20ThreadDNSAddressSeedv
FNDA:0,_Z9GetnScoreRK8CService
FNDA:71,_Z25AddressCurrentlyConnectedRK8CService
FNDA:490,_ZN7CAddrDB4ReadER8CAddrMan
FNDA:948,_Z9IsLimitedRK8CNetAddr
FNDA:2,_ZN5CNode5UnbanERK7CSubNet
FNDA:489,_Z24ThreadNonTLSPoolsCleanerv
FNDA:490,_Z26ThreadOpenAddedConnectionsv
FNDA:3050,_ZN5CNodeD2Ev
FNDA:389041,_ZN5CNode10EndMessageEv
FNDA:3274,_ZN5CNode21CloseSocketDisconnectEv
FNDA:948,_Z14BindListenPortRK8CServiceRNSt7__cxx1112basic_stringIcSt11char_traitsIcESaIcEEEb
FNDA:2442809,_Z8FindNodeRK8CNetAddr
FNDA:388428,_ZN5CNode15RecordBytesRecvEm
FNDA:962,_Z14AdvertizeLocalP5CNode
FNDA:7080,_Z14GetNodeSignalsv
FNDA:1,_ZN5CNode5UnbanERK8CNetAddr
FNDA:0,_ZN8CNodeRefD2Ev
FNDA:490,_Z19ThreadSocketHandlerv
FNDA:87,_ZL12convertSeed6RKSt6vectorI9SeedSpec6SaIS0_EE
FNDA:387284,_ZN11CNetMessage8readDataEPKcj
FNDA:0,_Z8AddLocalRK8CNetAddri
FNDA:3172,_Z8GetLocalR8CServicePK8CNetAddr
FNDA:3050,_ZN5CNodeC2EjRK8CAddressRKNSt7__cxx1112basic_stringIcSt11char_traitsIcESaIcEEEbP6ssl_st
FNDA:490,_Z8StopNodev
FNDA:4120,_Z13GetListenPortv
FNDA:0,_Z8FindNodeRK8CService
FNDA:980,_ZN7CAddrDBC2Ev
FNDA:7,_ZN5CNode19AddWhitelistedRangeERK7CSubNet
FNDA:0,_ZN8CNodeRefaSERKS_
FNDA:0,_Z7IsLocalRK8CService
FNDA:0,_ZN20CompareNetGroupKeyedclERK8CNodeRefS2_
FNDA:1294,_ZN5CNode8IsBannedE8CNetAddr
FNDA:389041,_Z14SocketSendDataP5CNode
FNDA:0,_Z8AddLocalRK8CServicei
FNDA:0,_Z11RemoveLocalRK8CService
FNDA:0,_ZN8CNodeRefC2ERKS_
FNDA:0,_ZN20CompareNetGroupKeyedC2Ev
FNDA:482268,_Z16ReceiveFloodSizev
FNDA:490,_Z20ThreadMessageHandlerv
FNDA:490,_ZL8Discoverv
FNDA:0,_ZN5CNode17GetTotalBytesSentEv
FNDA:0,_Z9SeenLocalRK8CService
FNDA:490,_Z9StartNodeRN5boost12thread_groupER10CScheduler
FNDA:0,_ZN5CNode17GetTotalBytesRecvEv
FNDA:1292,_ZL16AcceptConnectionRKN12_GLOBAL__N_112ListenSocketE
FNDA:388428,_ZN5CNode15ReceiveMsgBytesEPKcj
FNDA:1,_ZN5CNode8IsBannedE7CSubNet
FNDA:496,_Z10SetLimited7Networkb
FNDA:0,_ZL24AttemptToEvictConnectionb
FNDA:1222,_Z19IsPeerAddrLocalGoodP5CNode
FNDA:490,_ZN5CNode10NetCleanupEv
FNDA:2,_ZN5CNode3BanERK8CNetAddrlb
FNDA:389041,_ZN5CNode12BeginMessageEPKc
FNDA:36080,_Z5RelayRK16CTransactionBaseRK11CDataStream
FNDA:0,_ZN8CNodeRefC2EP5CNode
FNDA:1454,_Z8FindNodeRKNSt7__cxx1112basic_stringIcSt11char_traitsIcESaIcEEE
FNDA:51661,_ZL14ProcessOneShotv
FNDA:2560,_ZN5CNode14GetTlsValidateEv
FNDA:1,_Z8FindNodeRK7CSubNet
FNDA:2074446,_Z14SendBufferSizev
FNDA:4,_ZN5CNode11ClearBannedEv
FNDA:0,_Z11IsReachableRK8CNetAddr
FNDA:1293,_Z11ConnectNode8CAddressPKc
FNDA:490,_Z21ThreadOpenConnectionsv
FNDA:8027,_ZN5CNode9copyStatsER10CNodeStats
FNDA:388727,_ZN5CNode15RecordBytesSentEm
FNDA:0,_ZL31ReverseCompareNodeTimeConnectedRK8CNodeRefS1_
FNDA:27852,_ZN5CNode6AskForERK4CInv
FNDA:1292,_ZN5CNode18IsWhitelistedRangeERK8CNetAddr
FNDA:0,_ZN5CNode4FuzzEi
FNDA:15,_Z11IsReachable7Network
FNDA:1405,_Z21OpenNetworkConnectionRK8CAddressP15CSemaphoreGrantPKcb
FNDA:963,_Z9IsLimited7Network
FNDA:490,_ZN7CAddrDB5WriteERK8CAddrMan
FNDA:4357,_ZN5CNode20GetTlsFallbackNonTlsEv
FNDA:0,_Z10AddOneShotRKNSt7__cxx1112basic_stringIcSt11char_traitsIcESaIcEEE
FNDA:388971,_ZN11CNetMessage10readHeaderEPKcj
FNDA:0,_ZL29ReverseCompareNodeMinPingTimeRK8CNodeRefS1_
FNDA:3172,_Z15GetLocalAddressPK8CNetAddr
FNF:85
FNH:63
DA:76,948
DA:120,7080
DA:137,0
DA:139,0
DA:140,0
DA:141,0
DA:143,4120
DA:145,4120
DA:149,3172
DA:151,3172
DA:154,3166
DA:155,3166
DA:156,3166
DA:157,3166
DA:158,3166
DA:160,0
DA:161,0
DA:162,0
DA:164,0
DA:165,0
DA:166,0
DA:169,3166
DA:170,3166
DA:174,87
DA:180,87
DA:181,87
DA:182,87
DA:183,87
DA:185,0
DA:186,0
DA:187,0
DA:188,0
DA:189,0
DA:191,87
DA:192,0
DA:198,3172
DA:200,3172
DA:201,3172
DA:202,3172
DA:204,0
DA:206,3172
DA:207,3172
DA:208,3172
DA:211,0
DA:213,0
DA:214,0
DA:215,0
DA:216,0
DA:217,0
DA:220,1222
DA:222,1222
DA:223,0
DA:227,962
DA:229,962
DA:231,956
DA:235,956
DA:236,0
DA:238,0
DA:240,956
DA:242,0
DA:243,0
DA:246,962
DA:249,0
DA:251,0
DA:254,0
DA:257,0
DA:260,0
DA:262,0
DA:263,0
DA:264,0
DA:265,0
DA:266,0
DA:267,0
DA:268,0
DA:270,0
DA:272,0
DA:275,0
DA:277,0
DA:280,0
DA:282,0
DA:283,0
DA:284,0
DA:285,0
DA:286,0
DA:289,496
DA:291,496
DA:292,0
DA:293,496
DA:294,496
DA:295,496
DA:297,963
DA:299,963
DA:300,963
DA:301,963
DA:303,948
DA:305,948
DA:309,0
DA:311,0
DA:312,0
DA:313,0
DA:314,0
DA:315,0
DA:316,0
DA:317,0
DA:322,0
DA:324,0
DA:325,0
DA:326,0
DA:329,15
DA:331,15
DA:332,15
DA:333,15
DA:336,0
DA:338,0
DA:339,0
DA:342,71
DA:344,71
DA:345,71
DA:356,2442809
DA:358,2442809
DA:359,2442809
DA:360,2442808
DA:361,2442809
DA:363,2442809
DA:365,1
DA:367,1
DA:368,1
DA:369,0
DA:370,1
DA:372,1
DA:374,1454
DA:376,1454
DA:377,3577
DA:378,2295
DA:379,1454
DA:381,1454
DA:383,0
DA:385,0
DA:386,0
DA:387,0
DA:388,0
DA:390,0
DA:394,1293
DA:396,1293
DA:397,0
DA:401,0
DA:402,0
DA:404,0
DA:405,0
DA:410,1293
DA:411,1293
DA:412,1293
DA:415,1293
DA:416,1293
DA:417,1293
DA:418,0
DA:420,1293
DA:421,0
DA:422,0
DA:423,0
DA:426,1293
DA:428,1293
DA:432,1293
DA:434,1292
DA:435,1292
DA:437,1292
DA:439,2584
DA:441,1292
DA:443,1292
DA:444,1292
DA:445,1292
DA:447,1281
DA:448,1281
DA:450,15
DA:454,0
DA:455,0
DA:460,30
DA:461,15
DA:462,15
DA:464,15
DA:465,15
DA:470,11
DA:472,11
DA:473,11
DA:477,11
DA:479,2584
DA:483,1
DA:484,1
DA:485,1
DA:487,0
DA:488,0
DA:489,0
DA:490,0
DA:495,1278
DA:497,0
DA:499,0
DA:501,0
DA:502,0
DA:503,0
DA:504,0
DA:510,1278
DA:511,1278
DA:513,1278
DA:514,1278
DA:515,1278
DA:516,1278
DA:518,1278
DA:520,1278
DA:521,0
DA:524,0
DA:530,3274
DA:532,3274
DA:534,3274
DA:535,3274
DA:537,3274
DA:539,2560
DA:541,2560
DA:543,0
DA:547,0
DA:548,0
DA:550,2560
DA:552,2541
DA:553,2541
DA:554,2541
DA:555,2541
DA:557,2560
DA:559,3274
DA:562,3274
DA:563,3274
DA:564,3274
DA:565,3274
DA:567,1950
DA:569,1950
DA:571,1950
DA:572,1950
DA:573,1950
DA:574,1950
DA:575,1950
DA:576,0
DA:578,3900
DA:579,1950
DA:580,3900
DA:581,1950
DA:590,4
DA:592,4
DA:593,4
DA:594,4
DA:596,1294
DA:598,1294
DA:599,1294
DA:600,1294
DA:601,1295
DA:603,1
DA:604,1
DA:606,1
DA:609,1294
DA:610,1294
DA:613,1
DA:615,1
DA:616,1
DA:617,1
DA:618,1
DA:619,1
DA:621,0
DA:622,0
DA:623,0
DA:625,1
DA:626,1
DA:629,2
DA:630,4
DA:631,2
DA:632,2
DA:634,3
DA:635,3
DA:636,3
DA:637,0
DA:639,3
DA:640,3
DA:641,3
DA:642,3
DA:644,1
DA:645,2
DA:646,1
DA:649,2
DA:650,2
DA:651,2
DA:652,1
DA:654,2
DA:656,8
DA:658,8
DA:659,8
DA:660,8
DA:666,1292
DA:667,1292
DA:668,1292
DA:669,9
DA:670,1292
DA:673,1292
DA:675,7
DA:676,7
DA:677,7
DA:678,7
DA:682,8027
DA:684,8027
DA:685,8027
DA:686,8027
DA:687,8027
DA:688,8027
DA:689,8027
DA:690,8027
DA:691,8027
DA:692,8027
DA:693,8027
DA:694,8027
DA:695,8027
DA:696,8027
DA:697,8027
DA:705,8027
DA:706,8027
DA:707,86
DA:711,8027
DA:712,8027
DA:715,8027
DA:718,8027
DA:719,8027
DA:720,8027
DA:721,16054
DA:722,8027
DA:723,8027
DA:727,388428
DA:729,388428
DA:732,776255
DA:733,606069
DA:734,777942
DA:736,776255
DA:739,776255
DA:740,776255
DA:741,388971
DA:743,387284
DA:745,776255
DA:748,776255
DA:749,0
DA:750,0
DA:753,776255
DA:754,776255
DA:756,1940938
DA:757,388971
DA:758,388971
DA:765,388971
DA:768,388971
DA:769,388971
DA:771,388971
DA:772,388971
DA:775,388971
DA:776,0
DA:779,388971
DA:780,388971
DA:782,0
DA:783,0
DA:784,0
DA:787,388971
DA:791,388971
DA:793,388971
DA:796,387284
DA:798,387284
DA:799,387284
DA:801,387284
DA:803,386965
DA:806,387284
DA:807,387284
DA:809,387284
DA:821,389041
DA:823,389041
DA:825,777768
DA:827,389041
DA:828,389041
DA:830,389041
DA:831,389041
DA:832,389041
DA:833,389041
DA:835,389041
DA:837,314
DA:838,314
DA:841,388727
DA:843,388727
DA:845,386611
DA:846,386611
DA:847,386611
DA:851,2116
DA:852,2116
DA:854,314
DA:855,388727
DA:857,388727
DA:858,388727
DA:859,388727
DA:860,388727
DA:862,388727
DA:864,388727
DA:865,388727
DA:866,388727
DA:876,0
DA:880,0
DA:882,0
DA:884,0
DA:885,0
DA:891,0
DA:896,0
DA:898,0
DA:899,0
DA:909,389041
DA:911,388727
DA:912,388727
DA:914,389041
DA:915,389041
DA:921,0
DA:922,0
DA:923,0
DA:924,0
DA:926,0
DA:927,0
DA:928,0
DA:929,0
DA:932,0
DA:934,0
DA:936,0
DA:937,0
DA:939,0
DA:940,0
DA:941,0
DA:942,0
DA:943,0
DA:946,0
DA:947,0
DA:949,0
DA:950,0
DA:951,0
DA:956,0
DA:958,0
DA:961,0
DA:963,0
DA:966,0
DA:970,0
DA:971,0
DA:972,0
DA:973,0
DA:974,0
DA:976,0
DA:978,0
DA:979,0
DA:980,0
DA:982,0
DA:983,0
DA:985,0
DA:986,0
DA:988,0
DA:989,0
DA:991,0
DA:992,0
DA:994,0
DA:995,0
DA:998,0
DA:999,0
DA:1000,0
DA:1001,0
DA:1003,0
DA:1004,0
DA:1005,0
DA:1006,0
DA:1007,0
DA:1008,0
DA:1009,0
DA:1010,0
DA:1012,0
DA:1014,0
DA:1020,0
DA:1021,0
DA:1022,0
DA:1024,0
DA:1028,0
DA:1029,0
DA:1031,0
DA:1035,0
DA:1036,0
DA:1038,0
DA:1042,0
DA:1043,0
DA:1044,0
DA:1045,0
DA:1046,0
DA:1047,0
DA:1048,0
DA:1049,0
DA:1051,0
DA:1052,0
DA:1053,0
DA:1054,0
DA:1059,0
DA:1062,0
DA:1064,0
DA:1068,0
DA:1070,0
DA:1071,0
DA:1074,1292
DA:1075,1292
DA:1076,1292
DA:1077,1292
DA:1078,1292
DA:1079,1292
DA:1080,1292
DA:1082,1292
DA:1083,1292
DA:1084,0
DA:1086,1292
DA:1087,1292
DA:1088,1292
DA:1089,7277
DA:1090,1995
DA:1091,863
DA:1092,1292
DA:1094,1292
DA:1096,0
DA:1097,0
DA:1098,0
DA:1099,10
DA:1102,1292
DA:1104,0
DA:1105,0
DA:1106,0
DA:1109,1292
DA:1111,0
DA:1112,0
DA:1113,0
DA:1116,1292
DA:1118,0
DA:1120,0
DA:1121,0
DA:1122,0
DA:1128,1292
DA:1132,1292
DA:1136,1292
DA:1138,1292
DA:1142,1292
DA:1144,1286
DA:1146,1286
DA:1148,2572
DA:1150,1286
DA:1152,1286
DA:1153,1286
DA:1154,1286
DA:1156,1278
DA:1157,1278
DA:1159,8
DA:1163,0
DA:1168,16
DA:1169,8
DA:1170,8
DA:1172,8
DA:1173,8
DA:1178,8
DA:1180,8
DA:1181,8
DA:1186,8
DA:1188,2572
DA:1191,6
DA:1192,6
DA:1193,6
DA:1195,4
DA:1196,2
DA:1197,2
DA:1198,2
DA:1203,1282
DA:1205,0
DA:1207,0
DA:1209,0
DA:1210,0
DA:1211,0
DA:1212,0
DA:1217,1282
DA:1218,1282
DA:1219,1282
DA:1221,1282
DA:1222,1282
DA:1223,1282
DA:1224,1282
DA:1228,489
DA:1230,10838
DA:1232,5419
DA:1233,5419
DA:1234,5419
DA:1241,490
DA:1243,490
DA:1244,1784428
DA:1249,892459
DA:1250,892459
DA:1252,892459
DA:1253,3280942
DA:1255,4775596
DA:1256,2387113
DA:1259,1370
DA:1262,1370
DA:1265,1370
DA:1268,1370
DA:1269,1370
DA:1270,2388483
DA:1273,892459
DA:1274,892459
DA:1276,892459
DA:1277,894628
DA:1280,2169
DA:1282,1370
DA:1283,1370
DA:1284,1370
DA:1285,1370
DA:1287,1370
DA:1288,1370
DA:1290,1370
DA:1291,1370
DA:1292,1370
DA:1293,1370
DA:1294,1370
DA:1295,0
DA:1296,1370
DA:1298,1370
DA:1299,1370
DA:1303,0
DA:1304,892459
DA:1305,3296
DA:1306,3296
DA:1312,892459
DA:1313,892459
DA:1314,892459
DA:1316,892459
DA:1317,892459
DA:1318,892459
DA:1319,15171803
DA:1320,15171803
DA:1321,15171803
DA:1322,892459
DA:1323,892459
DA:1325,4438959
DA:1326,1773250
DA:1327,1773250
DA:1328,1773250
DA:1331,892459
DA:1332,892459
DA:1333,5666685
DA:1335,2387113
DA:1337,2387113
DA:1338,0
DA:1340,2387113
DA:1341,2387113
DA:1342,2387113
DA:1360,2387113
DA:1361,2387113
DA:1362,2387113
DA:1363,0
DA:1364,0
DA:1365,0
DA:1366,0
DA:1367,2387113
DA:1368,2387113
DA:1369,2387113
DA:1370,2698852
DA:1371,2869381
DA:1372,2216584
DA:1373,2387113
DA:1374,2387113
DA:1375,0
DA:1377,892459
DA:1379,892459
DA:1381,891970
DA:1383,0
DA:1385,0
DA:1386,0
DA:1387,0
DA:1388,0
DA:1390,0
DA:1391,0
DA:1392,0
DA:1398,2664274
DA:1400,1772304
DA:1402,1292
DA:1409,891970
DA:1410,891970
DA:1411,891970
DA:1412,891970
DA:1413,3280457
DA:1414,2388487
DA:1415,0
DA:1416,3280453
DA:1418,2388484
DA:1420,2388483
DA:1421,0
DA:1427,2388483
DA:1428,2388483
DA:1430,714947
DA:1432,0
DA:1433,0
DA:1435,714947
DA:1437,0
DA:1438,0
DA:1440,714947
DA:1442,0
DA:1443,0
DA:1445,714947
DA:1447,1
DA:1448,0
DA:1452,891969
DA:1453,891969
DA:1454,3280452
DA:1455,2388483
DA:1456,891969
DA:1457,891969
DA:1461,484
DA:1464,484
DA:1465,484
DA:1466,0
DA:1468,0
DA:1469,0
DA:1470,0
DA:1471,0
DA:1473,0
DA:1475,484
DA:1476,484
DA:1478,484
DA:1480,484
DA:1481,0
DA:1482,0
DA:1484,0
DA:1485,0
DA:1486,0
DA:1488,0
DA:1490,0
DA:1491,0
DA:1492,0
DA:1493,0
DA:1494,0
DA:1497,0
DA:1498,0
DA:1501,484
DA:1515,490
DA:1517,490
DA:1519,490
DA:1520,490
DA:1522,490
DA:1523,490
DA:1524,490
DA:1526,51661
DA:1528,51661
DA:1529,51661
DA:1530,51661
DA:1531,51661
DA:1532,51661
DA:1533,0
DA:1534,0
DA:1535,51661
DA:1536,0
DA:1537,0
DA:1538,0
DA:1539,0
DA:1540,0
DA:1542,51661
DA:1544,490
DA:1547,986
DA:1549,46
DA:1551,52
DA:1552,100
DA:1554,52
DA:1555,52
DA:1557,234
DA:1559,186
DA:1562,48
DA:1563,46
DA:1567,484
DA:1568,102734
DA:1570,51609
DA:1572,51609
DA:1574,51125
DA:1575,51125
DA:1578,51125
DA:1579,20981
DA:1580,20981
DA:1581,87
DA:1582,87
DA:1583,87
DA:1590,51125
DA:1594,51125
DA:1595,51125
DA:1596,51125
DA:1597,51125
DA:1598,453179
DA:1599,134018
DA:1600,66603
DA:1601,66603
DA:1604,0
DA:1606,51125
DA:1609,51125
DA:1611,51125
DA:1614,51125
DA:1620,0
DA:1621,0
DA:1624,0
DA:1625,0
DA:1628,0
DA:1629,0
DA:1632,0
DA:1633,0
DA:1635,0
DA:1636,0
DA:1637,0
DA:1639,51125
DA:1640,0
DA:1641,51125
DA:1644,490
DA:1646,490
DA:1647,490
DA:1648,980
DA:1649,0
DA:1651,490
DA:1652,4
DA:1653,4
DA:1654,4
DA:1655,4
DA:1656,4
DA:1657,0
DA:1658,0
DA:1659,4
DA:1660,0
DA:1661,0
DA:1662,0
DA:1663,0
DA:1664,0
DA:1665,4
DA:1666,4
DA:1669,79
DA:1671,565
DA:1672,565
DA:1673,565
DA:1674,565
DA:1675,0
DA:1676,0
DA:1678,1051
DA:1679,565
DA:1680,0
DA:1681,0
DA:1683,0
DA:1684,0
DA:1685,0
DA:1686,0
DA:1687,0
DA:1688,0
DA:1690,0
DA:1693,565
DA:1694,565
DA:1695,808
DA:1696,243
DA:1697,0
DA:1698,0
DA:1700,0
DA:1701,0
DA:1704,0
DA:1705,565
DA:1707,0
DA:1708,0
DA:1709,0
DA:1710,0
DA:1711,565
DA:1712,565
DA:1716,1405
DA:1721,1405
DA:1722,1405
DA:1723,0
DA:1724,0
DA:1725,0
DA:1727,1405
DA:1730,1282
DA:1731,1282
DA:1734,1282
DA:1736,1281
DA:1738,15
DA:1739,15
DA:1741,15
DA:1742,0
DA:1744,30
DA:1746,15
DA:1749,11
DA:1750,11
DA:1752,15
DA:1758,1282
DA:1760,1278
DA:1761,0
DA:1762,1278
DA:1763,1278
DA:1764,0
DA:1770,490
DA:1772,490
DA:1773,490
DA:1775,490
DA:1776,1081048
DA:1778,540769
DA:1779,540769
DA:1780,540769
DA:1781,540769
DA:1782,1966034
DA:1783,1425265
DA:1785,0
DA:1788,540769
DA:1789,540769
DA:1790,504569
DA:1792,540769
DA:1794,1966030
DA:1796,1425263
DA:1797,595
DA:1800,1424668
DA:1801,1424668
DA:1802,1424668
DA:1804,1407297
DA:1805,0
DA:1807,1407296
DA:1809,1643243
DA:1815,1
DA:1816,1424667
DA:1819,1424666
DA:1820,1424666
DA:1821,1424666
DA:1822,2340030
DA:1823,0
DA:1824,1424666
DA:1827,540767
DA:1828,540767
DA:1829,1966028
DA:1830,1425261
DA:1831,540767
DA:1833,540767
DA:1834,338513
DA:1835,540769
DA:1836,490
DA:1843,948
DA:1845,948
DA:1846,948
DA:1849,948
DA:1850,948
DA:1852,948
DA:1854,0
DA:1855,0
DA:1856,0
DA:1859,948
DA:1860,948
DA:1862,0
DA:1863,0
DA:1864,0
DA:1866,948
DA:1868,0
DA:1869,0
DA:1870,0
DA:1880,948
DA:1882,948
DA:1894,948
DA:1895,0
DA:1896,0
DA:1897,0
DA:1902,948
DA:1907,474
DA:1916,948
DA:1918,0
DA:1919,0
DA:1920,0
DA:1922,0
DA:1923,0
DA:1924,0
DA:1925,0
DA:1927,948
DA:1930,948
DA:1932,0
DA:1933,0
DA:1934,0
DA:1935,0
DA:1938,948
DA:1940,948
DA:1941,0
DA:1946,490
DA:1948,490
DA:1949,490
DA:1968,0
DA:1969,0
DA:1971,0
DA:1973,0
DA:1974,0
DA:1975,0
DA:1976,0
DA:1977,0
DA:1979,0
DA:1980,0
DA:1981,0
DA:1982,0
DA:1984,0
DA:1986,0
DA:1987,0
DA:1988,0
DA:1989,0
DA:1992,0
DA:1999,490
DA:2001,490
DA:2003,490
DA:2004,490
DA:2005,490
DA:2006,490
DA:2007,374
DA:2008,0
DA:2009,490
DA:2011,490
DA:2013,490
DA:2015,490
DA:2016,490
DA:2019,490
DA:2020,490
DA:2022,490
DA:2026,490
DA:2028,0
DA:2029,0
DA:2032,490
DA:2034,0
DA:2035,0
DA:2045,490
DA:2046,6
DA:2048,484
DA:2051,490
DA:2054,490
DA:2057,490
DA:2060,490
DA:2063,490
DA:2066,489
DA:2071,980
DA:2074,490
DA:2076,490
DA:2077,490
DA:2078,4410
DA:2079,3920
DA:2081,490
DA:2083,490
DA:2084,490
DA:2087,490
DA:2090,490
DA:2093,1680
DA:2094,1190
DA:2095,1438
DA:2096,948
DA:2097,948
DA:2098,0
DA:2101,1680
DA:2102,1190
DA:2103,490
DA:2104,0
DA:2105,490
DA:2106,490
DA:2107,490
DA:2108,980
DA:2109,490
DA:2110,490
DA:2111,490
DA:2117,490
DA:2119,36080
DA:2121,36080
DA:2122,36080
DA:2123,36080
DA:2125,36080
DA:2127,0
DA:2128,0
DA:2132,36080
DA:2133,36080
DA:2134,0
DA:2135,36080
DA:2136,105401
DA:2138,69321
DA:2139,0
DA:2140,69321
DA:2141,69321
DA:2143,69321
DA:2144,69321
DA:2146,0
DA:2147,69321
DA:2148,36080
DA:2160,388428
DA:2162,388428
DA:2163,388428
DA:2164,388428
DA:2166,388727
DA:2168,388727
DA:2169,388727
DA:2170,388727
DA:2172,0
DA:2174,0
DA:2175,0
DA:2176,0
DA:2178,0
DA:2180,0
DA:2181,0
DA:2182,0
DA:2184,0
DA:2186,0
DA:2187,0
DA:2189,0
DA:2191,0
DA:2193,0
DA:2194,0
DA:2195,0
DA:2198,0
DA:2200,0
DA:2201,0
DA:2202,0
DA:2205,0
DA:2207,0
DA:2208,0
DA:2209,0
DA:2210,0
DA:2212,0
DA:2216,0
DA:2223,980
DA:2225,980
DA:2226,980
DA:2228,490
DA:2231,490
DA:2232,490
DA:2233,490
DA:2236,490
DA:2237,490
DA:2238,490
DA:2239,490
DA:2240,490
DA:2243,490
DA:2244,490
DA:2245,490
DA:2246,490
DA:2247,0
DA:2250,490
DA:2251,490
DA:2253,0
DA:2254,0
DA:2255,0
DA:2256,490
DA:2257,490
DA:2260,490
DA:2261,0
DA:2264,490
DA:2266,490
DA:2269,490
DA:2270,490
DA:2271,490
DA:2272,374
DA:2275,116
DA:2276,116
DA:2278,116
DA:2280,116
DA:2281,116
DA:2282,116
DA:2285,116
DA:2286,116
DA:2287,116
DA:2289,0
DA:2290,0
DA:2291,0
DA:2292,116
DA:2294,116
DA:2297,116
DA:2298,116
DA:2299,0
DA:2301,116
DA:2302,116
DA:2304,116
DA:2307,116
DA:2308,0
DA:2311,232
DA:2313,0
DA:2314,0
DA:2315,0
DA:2318,606
DA:2320,482268
DA:2321,2074446
DA:2323,3050
DA:2324,3050
DA:2325,3050
DA:2326,3050
DA:2328,3050
DA:2329,3050
DA:2330,3050
DA:2331,3050
DA:2332,3050
DA:2333,3050
DA:2334,3050
DA:2335,3050
DA:2336,3050
DA:2337,3050
DA:2338,3050
DA:2339,6100
DA:2340,3050
DA:2341,3050
DA:2342,3050
DA:2343,3050
DA:2344,3050
DA:2345,3050
DA:2346,3050
DA:2347,3050
DA:2348,3050
DA:2349,3050
DA:2350,3050
DA:2351,3050
DA:2352,3050
DA:2353,3050
DA:2354,3050
DA:2355,3050
DA:2356,3050
DA:2357,3050
DA:2358,3050
DA:2359,3050
DA:2360,3050
DA:2361,3050
DA:2362,3050
DA:2364,3050
DA:2365,3050
DA:2366,3050
DA:2367,3050
DA:2369,3050
DA:2370,0
DA:2372,3050
DA:2375,3050
DA:2376,1278
DA:2378,3050
DA:2379,3050
DA:2381,4357
DA:2383,4357
DA:2386,490
DA:2388,489
DA:2389,489
DA:2390,489
DA:2394,1
DA:2395,1
DA:2396,1
DA:2399,4357
DA:2402,2560
DA:2404,2560
DA:2407,459
DA:2409,0
DA:2410,0
DA:2411,0
DA:2415,459
DA:2416,459
DA:2417,459
DA:2420,2560
DA:2423,3050
DA:2428,3050
DA:2430,0
DA:2432,0
DA:2433,0
DA:2435,0
DA:2436,0
DA:2439,0
DA:2442,3050
DA:2443,3050
DA:2445,3050
DA:2446,6100
DA:2448,27852
DA:2450,27852
DA:2451,0
DA:2453,27852
DA:2458,27852
DA:2459,27852
DA:2460,27852
DA:2461,5506
DA:2463,22346
DA:2464,55704
DA:2467,27852
DA:2468,27852
DA:2469,27852
DA:2470,27852
DA:2471,27852
DA:2474,27852
DA:2475,27852
DA:2476,5506
DA:2478,22346
DA:2479,27852
DA:2482,389041
DA:2484,389041
DA:2485,389041
DA:2486,389041
DA:2487,778082
DA:2488,389041
DA:2490,0
DA:2492,0
DA:2494,0
DA:2496,0
DA:2497,0
DA:2499,389041
DA:2504,778082
DA:2506,0
DA:2507,0
DA:2508,0
DA:2510,778082
DA:2511,0
DA:2513,389041
DA:2515,0
DA:2516,0
DA:2519,389041
DA:2520,389041
DA:2523,389041
DA:2524,389041
DA:2525,389041
DA:2526,389041
DA:2527,389041
DA:2529,389041
DA:2531,389041
DA:2532,389041
DA:2533,389041
DA:2536,389041
DA:2537,389041
DA:2539,389041
LF:1315
LH:870
end_of_record
TN:
SF:/home/apetrini/dev/src/zen/src/net.h
FN:107,_ZNK11CombinerAllclIN5boost8signals26detail20slot_call_iterator_tINS3_21variadic_slot_invokerIbJP5CNodeEEESt14_List_iteratorINS1_10shared_ptrINS3_15connection_bodyISt4pairINS3_15slot_meta_groupENS1_8optionalIiEEENS2_4slotIFbS7_ENS1_8functionISI_EEEENS2_5mutexEEEEEESN_EEEEbT_SR_
FN:107,_ZNK11CombinerAllclIN5boost8signals26detail20slot_call_iterator_tINS3_21variadic_slot_invokerIbJP5CNodebEEESt14_List_iteratorINS1_10shared_ptrINS3_15connection_bodyISt4pairINS3_15slot_meta_groupENS1_8optionalIiEEENS2_4slotIFbS7_bENS1_8functionISI_EEEENS2_5mutexEEEEEESN_EEEEbT_SR_
FN:107,_ZNK11CombinerAllclIN5boost8signals26detail20slot_call_iterator_tINS3_21variadic_slot_invokerIbJEEESt14_List_iteratorINS1_10shared_ptrINS3_15connection_bodyISt4pairINS3_15slot_meta_groupENS1_8optionalIiEEENS2_4slotIFbvENS1_8functionISG_EEEENS2_5mutexEEEEEESL_EEEEbT_SP_
FN:231,_ZN11CNetMessageC2ERA4_Khii
FN:387,_ZN5CNode11GetRefCountEv
FN:394,_ZN5CNode16GetTotalRecvSizeEv
FN:406,_ZN5CNode14SetRecvVersionEi
FN:426,_ZN5CNode15AddAddressKnownERK8CAddress
FN:431,_ZN5CNode11PushAddressERK8CAddress
FN:446,_ZN5CNode17AddInventoryKnownERK4CInv
FN:454,_ZN5CNode13PushInventoryERK4CInv
FN:477,_ZN5CNode11PushMessageEPKc
FN:492,_ZN5CNode8PushInvsEPKcRKSt6vectorI4CInvSaIS3_EE
FN:498,_ZN5CNode11PushMessageISt6vectorI22CBlockHeaderForNetworkSaIS2_EEEEvPKcRKT_
FN:498,_ZN5CNode11PushMessageI6CBlockEEvPKcRKT_
FN:498,_ZN5CNode11PushMessageI14CScCertificateEEvPKcRKT_
FN:498,_ZN5CNode11PushMessageImEEvPKcRKT_
FN:498,_ZN5CNode11PushMessageI12CMerkleBlockEEvPKcRKT_
FN:498,_ZN5CNode11PushMessageISt6vectorI8CAddressSaIS2_EEEEvPKcRKT_
FN:498,_ZN5CNode11PushMessageI6CAlertEEvPKcRKT_
FN:498,_ZN5CNode11PushMessageI11CDataStreamEEvPKcRKT_
FN:498,_ZN5CNode11PushMessageI12CTransactionEEvPKcRKT_
FN:498,_ZN5CNode11PushMessageISt6vectorI4CInvSaIS2_EEEEvPKcRKT_
FN:514,_ZN5CNode11PushMessageI13CBlockLocator7uint256EEvPKcRKT_RKT0_
FN:530,_ZN5CNode11PushMessageINSt7__cxx1112basic_stringIcSt11char_traitsIcESaIcEEEhS6_EEvPKcRKT_RKT0_RKT1_
FN:546,_ZN5CNode11PushMessageINSt7__cxx1112basic_stringIcSt11char_traitsIcESaIcEEEhS6_7uint256EEvPKcRKT_RKT0_RKT1_RKT2_
FN:626,_ZN5CNode11PushMessageIiml8CAddressS1_mNSt7__cxx1112basic_stringIcSt11char_traitsIcESaIcEEEibEEvPKcRKT_RKT0_RKT1_RKT2_RKT3_RKT4_RKT5_RKT6_RKT7_
FNDA:1407297,_ZNK11CombinerAllclIN5boost8signals26detail20slot_call_iterator_tINS3_21variadic_slot_invokerIbJP5CNodeEEESt14_List_iteratorINS1_10shared_ptrINS3_15connection_bodyISt4pairINS3_15slot_meta_groupENS1_8optionalIiEEENS2_4slotIFbS7_ENS1_8functionISI_EEEENS2_5mutexEEEEEESN_EEEEbT_SR_
FNDA:1339,_ZN5CNode14SetRecvVersionEi
FNDA:2006,_ZN5CNode11PushMessageEPKc
FNDA:0,_ZN5CNode11PushAddressERK8CAddress
FNDA:0,_ZN5CNode8PushInvsEPKcRKSt6vectorI4CInvSaIS3_EE
FNDA:70165,_ZN5CNode11PushMessageISt6vectorI22CBlockHeaderForNetworkSaIS2_EEEEvPKcRKT_
FNDA:73776,_ZN5CNode11PushMessageI13CBlockLocator7uint256EEvPKcRKT_RKT0_
FNDA:348342,_ZN5CNode13PushInventoryERK4CInv
FNDA:482268,_ZN5CNode16GetTotalRecvSizeEv
FNDA:277597,_ZN5CNode17AddInventoryKnownERK4CInv
FNDA:71433,_ZN5CNode11PushMessageI6CBlockEEvPKcRKT_
FNDA:0,_ZN5CNode15AddAddressKnownERK8CAddress
FNDA:2389282,_ZN5CNode11GetRefCountEv
FNDA:0,_ZN5CNode11PushMessageI14CScCertificateEEvPKcRKT_
FNDA:1424531,_ZNK11CombinerAllclIN5boost8signals26detail20slot_call_iterator_tINS3_21variadic_slot_invokerIbJP5CNodebEEESt14_List_iteratorINS1_10shared_ptrINS3_15connection_bodyISt4pairINS3_15slot_meta_groupENS1_8optionalIiEEENS2_4slotIFbS7_bENS1_8functionISI_EEEENS2_5mutexEEEEEESN_EEEEbT_SR_
FNDA:3777,_ZN5CNode11PushMessageImEEvPKcRKT_
FNDA:0,_ZN5CNode11PushMessageI12CMerkleBlockEEvPKcRKT_
FNDA:0,_ZN5CNode11PushMessageISt6vectorI8CAddressSaIS2_EEEEvPKcRKT_
FNDA:0,_ZNK11CombinerAllclIN5boost8signals26detail20slot_call_iterator_tINS3_21variadic_slot_invokerIbJEEESt14_List_iteratorINS1_10shared_ptrINS3_15connection_bodyISt4pairINS3_15slot_meta_groupENS1_8optionalIiEEENS2_4slotIFbvENS1_8functionISG_EEEENS2_5mutexEEEEEESL_EEEEbT_SP_
FNDA:82,_ZN5CNode11PushMessageINSt7__cxx1112basic_stringIcSt11char_traitsIcESaIcEEEhS6_7uint256EEvPKcRKT_RKT0_RKT1_RKT2_
FNDA:1950,_ZN5CNode11PushMessageIiml8CAddressS1_mNSt7__cxx1112basic_stringIcSt11char_traitsIcESaIcEEEibEEvPKcRKT_RKT0_RKT1_RKT2_RKT3_RKT4_RKT5_RKT6_RKT7_
FNDA:23557,_ZN5CNode11PushMessageI11CDataStreamEEvPKcRKT_
FNDA:0,_ZN5CNode11PushMessageI6CAlertEEvPKcRKT_
FNDA:388971,_ZN11CNetMessageC2ERA4_Khii
FNDA:142295,_ZN5CNode11PushMessageISt6vectorI4CInvSaIS2_EEEEvPKcRKT_
FNDA:0,_ZN5CNode11PushMessageINSt7__cxx1112basic_stringIcSt11char_traitsIcESaIcEEEhS6_EEvPKcRKT_RKT0_RKT1_
FNDA:0,_ZN5CNode11PushMessageI12CTransactionEEvPKcRKT_
FNF:27
FNH:17
DA:107,2831828
DA:109,2831828
DA:110,2831827
DA:111,5663655
DA:191,8027
DA:218,777942
DA:231,388971
DA:232,388971
DA:233,388971
DA:234,388971
DA:235,388971
DA:236,388971
DA:237,388971
DA:239,2471519
DA:241,2471519
DA:243,2471519
DA:246,3717
DA:248,3717
DA:249,3717
DA:383,3263103
DA:384,3263103
DA:387,2389282
DA:389,2389282
DA:390,2389282
DA:394,482268
DA:396,482268
DA:397,5251176
DA:398,1589636
DA:399,482268
DA:406,1339
DA:408,1339
DA:409,5056
DA:410,3717
DA:411,1339
DA:413,3816312
DA:415,3816312
DA:416,3816312
DA:419,3815114
DA:421,3813744
DA:422,1370
DA:426,0
DA:428,0
DA:429,0
DA:431,0
DA:436,0
DA:437,0
DA:438,0
DA:440,0
DA:443,0
DA:446,277597
DA:448,277597
DA:449,277597
DA:450,277597
DA:451,277597
DA:452,277597
DA:454,348342
DA:456,348342
DA:457,348342
DA:458,513216
DA:459,183468
DA:460,348342
DA:461,348342
DA:477,2006
DA:479,2006
DA:481,2006
DA:482,2006
DA:484,0
DA:486,0
DA:487,0
DA:488,0
DA:489,2006
DA:492,0
DA:494,0
DA:498,311227
DA:502,311227
DA:503,311227
DA:504,311227
DA:506,0
DA:508,0
DA:509,0
DA:511,311227
DA:514,73776
DA:518,73776
DA:519,73776
DA:520,73776
DA:522,0
DA:524,0
DA:525,0
DA:527,73776
DA:530,0
DA:534,0
DA:535,0
DA:536,0
DA:538,0
DA:540,0
DA:541,0
DA:543,0
DA:546,82
DA:550,82
DA:551,82
DA:552,82
DA:554,0
DA:556,0
DA:557,0
DA:559,82
DA:626,1950
DA:630,1950
DA:631,1950
DA:632,1950
DA:634,0
DA:636,0
DA:637,0
DA:639,1950
DA:695,980
LF:114
LH:79
end_of_record
TN:
SF:/home/apetrini/dev/src/zen/src/netbase.cpp
FN:52,_Z12ParseNetworkNSt7__cxx1112basic_stringIcSt11char_traitsIcESaIcEEE
FN:60,_Z14GetNetworkNameB5cxx117Network
FN:70,_Z13SplitHostPortNSt7__cxx1112basic_stringIcSt11char_traitsIcESaIcEEERiRS4_
FN:89,_ZL12LookupInternPKcRSt6vectorI8CNetAddrSaIS2_EEjb
FN:192,_Z10LookupHostPKcRSt6vectorI8CNetAddrSaIS2_EEjb
FN:205,_Z6LookupPKcRSt6vectorI8CServiceSaIS2_EEibj
FN:223,_Z6LookupPKcR8CServiceib
FN:233,_Z13LookupNumericPKcR8CServicei
FN:238,_Z15MillisToTimevall
FN:257,_ZL17InterruptibleRecvPhmiRj
FN:308,_ZL6Socks5RKNSt7__cxx1112basic_stringIcSt11char_traitsIcESaIcEEEiPK16ProxyCredentialsRj
FN:443,_ZL21ConnectSocketDirectlyRK8CServiceRji
FN:532,_Z8SetProxy7NetworkRK9proxyType
FN:541,_Z8GetProxy7NetworkR9proxyType
FN:550,_Z12SetNameProxyRK9proxyType
FN:558,_Z12GetNameProxyR9proxyType
FN:566,_Z13HaveNameProxyv
FN:571,_Z7IsProxyRK8CNetAddr
FN:580,_ZL19ConnectThroughProxyRK9proxyTypeRKNSt7__cxx1112basic_stringIcSt11char_traitsIcESaIcEEEiRjiPb
FN:605,_Z13ConnectSocketRK8CServiceRjiPb
FN:617,_Z19ConnectSocketByNameR8CServiceRjPKciiPb
FN:643,_ZN8CNetAddr4InitEv
FN:648,_ZN8CNetAddr5SetIPERKS_
FN:653,_ZN8CNetAddr6SetRawE7NetworkPKh
FN:671,_ZN8CNetAddr10SetSpecialERKNSt7__cxx1112basic_stringIcSt11char_traitsIcESaIcEEE
FN:685,_ZN8CNetAddrC2Ev
FN:690,_ZN8CNetAddrC2ERK7in_addr
FN:695,_ZN8CNetAddrC2ERK8in6_addr
FN:700,_ZN8CNetAddrC2EPKcb
FN:708,_ZN8CNetAddrC2ERKNSt7__cxx1112basic_stringIcSt11char_traitsIcESaIcEEEb
FN:716,_ZNK8CNetAddr7GetByteEi
FN:721,_ZNK8CNetAddr6IsIPv4Ev
FN:726,_ZNK8CNetAddr6IsIPv6Ev
FN:731,_ZNK8CNetAddr9IsRFC1918Ev
FN:739,_ZNK8CNetAddr9IsRFC2544Ev
FN:744,_ZNK8CNetAddr9IsRFC3927Ev
FN:749,_ZNK8CNetAddr9IsRFC6598Ev
FN:754,_ZNK8CNetAddr9IsRFC5737Ev
FN:761,_ZNK8CNetAddr9IsRFC3849Ev
FN:766,_ZNK8CNetAddr9IsRFC3964Ev
FN:771,_ZNK8CNetAddr9IsRFC6052Ev
FN:777,_ZNK8CNetAddr9IsRFC4380Ev
FN:782,_ZNK8CNetAddr9IsRFC4862Ev
FN:788,_ZNK8CNetAddr9IsRFC4193Ev
FN:793,_ZNK8CNetAddr9IsRFC6145Ev
FN:799,_ZNK8CNetAddr9IsRFC4843Ev
FN:804,_ZNK8CNetAddr5IsTorEv
FN:809,_ZNK8CNetAddr7IsLocalEv
FN:823,_ZNK8CNetAddr11IsMulticastEv
FN:829,_ZNK8CNetAddr7IsValidEv
FN:865,_ZNK8CNetAddr10IsRoutableEv
FN:870,_ZNK8CNetAddr10GetNetworkEv
FN:884,_ZNK8CNetAddr10ToStringIPB5cxx11Ev
FN:906,_ZNK8CNetAddr8ToStringB5cxx11Ev
FN:911,_ZeqRK8CNetAddrS1_
FN:916,_ZneRK8CNetAddrS1_
FN:921,_ZltRK8CNetAddrS1_
FN:926,_ZNK8CNetAddr9GetInAddrEP7in_addr
FN:934,_ZNK8CNetAddr10GetIn6AddrEP8in6_addr
FN:942,_ZNK8CNetAddr8GetGroupEv
FN:1009,_ZNK8CNetAddr7GetHashEv
FN:1021,_ZL13GetExtNetworkPK8CNetAddr
FN:1031,_ZNK8CNetAddr19GetReachabilityFromEPKS_
FN:1089,_ZN8CService4InitEv
FN:1094,_ZN8CServiceC2Ev
FN:1099,_ZN8CServiceC2ERK8CNetAddrt
FN:1103,_ZN8CServiceC2ERK7in_addrt
FN:1107,_ZN8CServiceC2ERK8in6_addrt
FN:1111,_ZN8CServiceC2ERK11sockaddr_in
FN:1116,_ZN8CServiceC2ERK12sockaddr_in6
FN:1121,_ZN8CService11SetSockAddrEPK8sockaddr
FN:1135,_ZN8CServiceC2EPKcb
FN:1143,_ZN8CServiceC2EPKcib
FN:1151,_ZN8CServiceC2ERKNSt7__cxx1112basic_stringIcSt11char_traitsIcESaIcEEEb
FN:1159,_ZN8CServiceC2ERKNSt7__cxx1112basic_stringIcSt11char_traitsIcESaIcEEEib
FN:1167,_ZNK8CService7GetPortEv
FN:1172,_ZeqRK8CServiceS1_
FN:1177,_ZneRK8CServiceS1_
FN:1182,_ZltRK8CServiceS1_
FN:1187,_ZNK8CService11GetSockAddrEP8sockaddrPj
FN:1216,_ZNK8CService6GetKeyEv
FN:1226,_ZNK8CService12ToStringPortB5cxx11Ev
FN:1231,_ZNK8CService14ToStringIPPortB5cxx11Ev
FN:1240,_ZNK8CService8ToStringB5cxx11Ev
FN:1245,_ZN8CService7SetPortEt
FN:1250,_ZN7CSubNetC2Ev
FN:1256,_ZN7CSubNetC2ERKNSt7__cxx1112basic_stringIcSt11char_traitsIcESaIcEEEb
FN:1315,_ZNK7CSubNet5MatchERK8CNetAddr
FN:1325,_ZNK7CSubNet8ToStringB5cxx11Ev
FN:1339,_ZNK7CSubNet7IsValidEv
FN:1344,_ZeqRK7CSubNetS1_
FN:1349,_ZneRK7CSubNetS1_
FN:1354,_ZltRK7CSubNetS1_
FN:1376,_Z18NetworkErrorStringB5cxx11i
FN:1393,_Z11CloseSocketRj
FN:1406,_Z20SetSocketNonBlockingRjb
FNDA:69847,_ZNK8CNetAddr9IsRFC3927Ev
FNDA:5,_ZN7CSubNetC2Ev
FNDA:0,_ZltRK8CServiceS1_
FNDA:9,_ZltRK7CSubNetS1_
FNDA:0,_ZN8CNetAddr5SetIPERKS_
FNDA:82178,_ZNK8CService8ToStringB5cxx11Ev
FNDA:4,_Z12SetNameProxyRK9proxyType
FNDA:144102,_Z13SplitHostPortNSt7__cxx1112basic_stringIcSt11char_traitsIcESaIcEEERiRS4_
FNDA:69847,_ZNK8CNetAddr9IsRFC4193Ev
FNDA:142777,_ZN8CServiceC2EPKcib
FNDA:142786,_Z6LookupPKcRSt6vectorI8CServiceSaIS2_EEibj
FNDA:0,_Z18NetworkErrorStringB5cxx11i
FNDA:991283,_ZN8CNetAddrC2Ev
FNDA:1519,_ZNK8CNetAddr10GetIn6AddrEP8in6_addr
FNDA:0,_ZNK8CNetAddr9IsRFC6145Ev
FNDA:0,_ZneRK7CSubNetS1_
FNDA:0,_ZneRK8CServiceS1_
FNDA:69847,_ZNK8CNetAddr9IsRFC2544Ev
FNDA:231656,_ZN8CServiceC2ERK8CNetAddrt
FNDA:326828,_ZNK8CNetAddr7IsValidEv
FNDA:83962,_ZNK8CService12ToStringPortB5cxx11Ev
FNDA:22,_ZNK8CService7GetPortEv
FNDA:3533,_Z20SetSocketNonBlockingRjb
FNDA:3533,_Z11CloseSocketRj
FNDA:136453,_ZNK8CNetAddr7IsLocalEv
FNDA:1289,_Z13ConnectSocketRK8CServiceRjiPb
FNDA:69847,_ZNK8CNetAddr9IsRFC1918Ev
FNDA:26,_ZL19ConnectThroughProxyRK9proxyTypeRKNSt7__cxx1112basic_stringIcSt11char_traitsIcESaIcEEEiRjiPb
FNDA:1307,_Z8GetProxy7NetworkR9proxyType
FNDA:997,_ZNK8CNetAddr8ToStringB5cxx11Ev
FNDA:474,_ZN8CServiceC2ERK7in_addrt
FNDA:1787,_Z13HaveNameProxyv
FNDA:1296,_ZN8CNetAddrC2ERKNSt7__cxx1112basic_stringIcSt11char_traitsIcESaIcEEEb
FNDA:2237,_ZNK8CNetAddr10GetNetworkEv
FNDA:994,_ZN8CNetAddrC2ERK8in6_addr
FNDA:73632,_ZNK8CNetAddr10IsRoutableEv
FNDA:87,_ZN8CNetAddrC2EPKcb
FNDA:2467,_ZNK8CNetAddr6IsIPv6Ev
FNDA:5,_ZN8CServiceC2ERKNSt7__cxx1112basic_stringIcSt11char_traitsIcESaIcEEEib
FNDA:83962,_ZNK8CService14ToStringIPPortB5cxx11Ev
FNDA:217516,_ZNK8CNetAddr9IsRFC3849Ev
FNDA:992666,_ZN8CNetAddr4InitEv
FNDA:842772,_ZNK8CNetAddr7GetByteEi
FNDA:1292,_ZN8CServiceC2ERK11sockaddr_in
FNDA:18,_ZNK7CSubNet7IsValidEv
FNDA:2384,_Z10LookupHostPKcRSt6vectorI8CNetAddrSaIS2_EEjb
FNDA:2443532,_ZeqRK8CNetAddrS1_
FNDA:13,_Z8SetProxy7NetworkRK9proxyType
FNDA:147396,_ZN8CNetAddr6SetRawE7NetworkPKh
FNDA:69847,_ZNK8CNetAddr9IsRFC6598Ev
FNDA:87615,_ZNK8CNetAddr10ToStringIPB5cxx11Ev
FNDA:0,_ZneRK8CNetAddrS1_
FNDA:1292,_ZN8CService11SetSockAddrEPK8sockaddr
FNDA:90160,_ZNK8CNetAddr5IsTorEv
FNDA:1293,_Z19ConnectSocketByNameR8CServiceRjPKciiPb
FNDA:600066,_ZN8CServiceC2Ev
FNDA:0,_ZNK8CNetAddr9IsRFC3964Ev
FNDA:0,_ZNK8CService6GetKeyEv
FNDA:474,_ZN8CServiceC2ERK8in6_addrt
FNDA:0,_ZN8CServiceC2ERKNSt7__cxx1112basic_stringIcSt11char_traitsIcESaIcEEEb
FNDA:0,_ZNK8CNetAddr19GetReachabilityFromEPKS_
FNDA:89822,_ZNK8CService11GetSockAddrEP8sockaddrPj
FNDA:26,_ZL6Socks5RKNSt7__cxx1112basic_stringIcSt11char_traitsIcESaIcEEEiPK16ProxyCredentialsRj
FNDA:969272,_ZNK8CNetAddr6IsIPv4Ev
FNDA:0,_ZNK8CNetAddr7GetHashEv
FNDA:145170,_ZL12LookupInternPKcRSt6vectorI8CNetAddrSaIS2_EEjb
FNDA:1769,_ZltRK8CNetAddrS1_
FNDA:0,_ZNK8CNetAddr9IsRFC4380Ev
FNDA:68608,_ZNK7CSubNet5MatchERK8CNetAddr
FNDA:994,_ZNK7CSubNet8ToStringB5cxx11Ev
FNDA:11,_Z7IsProxyRK8CNetAddr
FNDA:69847,_ZNK8CNetAddr9IsRFC4843Ev
FNDA:111,_ZL17InterruptibleRecvPhmiRj
FNDA:0,_ZL13GetExtNetworkPK8CNetAddr
FNDA:88303,_ZNK8CNetAddr9GetInAddrEP7in_addr
FNDA:4,_ZN8CServiceC2EPKcb
FNDA:0,_ZN8CServiceC2ERK12sockaddr_in6
FNDA:142786,_Z6LookupPKcR8CServiceib
FNDA:742852,_ZN8CService4InitEv
FNDA:0,_ZeqRK8CServiceS1_
FNDA:0,_ZeqRK7CSubNetS1_
FNDA:1001,_ZN7CSubNetC2ERKNSt7__cxx1112basic_stringIcSt11char_traitsIcESaIcEEEb
FNDA:0,_ZN8CService7SetPortEt
FNDA:0,_Z12ParseNetworkNSt7__cxx1112basic_stringIcSt11char_traitsIcESaIcEEE
FNDA:1345,_Z15MillisToTimevall
FNDA:0,_ZNK8CNetAddr11IsMulticastEv
FNDA:1293,_Z12GetNameProxyR9proxyType
FNDA:0,_Z13LookupNumericPKcR8CServicei
FNDA:146402,_ZN8CNetAddrC2ERK7in_addr
FNDA:69847,_ZNK8CNetAddr9IsRFC5737Ev
FNDA:0,_ZNK8CNetAddr9IsRFC6052Ev
FNDA:66603,_ZNK8CNetAddr8GetGroupEv
FNDA:1293,_ZL21ConnectSocketDirectlyRK8CServiceRji
FNDA:145170,_ZN8CNetAddr10SetSpecialERKNSt7__cxx1112basic_stringIcSt11char_traitsIcESaIcEEE
FNDA:69847,_ZNK8CNetAddr9IsRFC4862Ev
FNDA:15,_Z14GetNetworkNameB5cxx117Network
FNF:96
FNH:74
DA:52,0
DA:53,0
DA:54,0
DA:55,0
DA:56,0
DA:60,15
DA:61,15
DA:63,5
DA:64,5
DA:65,5
DA:66,0
DA:70,144102
DA:71,144102
DA:73,144102
DA:74,144102
DA:75,144102
DA:76,144102
DA:77,1320
DA:78,2640
DA:79,1316
DA:80,1316
DA:83,144102
DA:84,15
DA:86,144087
DA:87,144102
DA:89,145170
DA:91,145170
DA:93,145170
DA:94,145170
DA:95,145170
DA:96,6
DA:97,6
DA:102,145164
DA:104,145164
DA:105,144636
DA:106,144636
DA:109,528
DA:110,528
DA:111,520
DA:112,520
DA:123,8
DA:124,8
DA:125,8
DA:126,8
DA:127,8
DA:131,8
DA:134,8
DA:136,8
DA:137,8
DA:138,8
DA:139,8
DA:140,8
DA:141,8
DA:143,0
DA:144,0
DA:147,8
DA:152,8
DA:153,8
DA:154,8
DA:156,8
DA:157,8
DA:158,0
DA:159,8
DA:163,8
DA:165,8
DA:166,8
DA:170,0
DA:172,0
DA:174,0
DA:175,0
DA:178,0
DA:180,0
DA:181,0
DA:184,0
DA:187,0
DA:189,0
DA:192,2384
DA:194,2384
DA:195,2384
DA:197,2384
DA:199,1
DA:202,2384
DA:203,2384
DA:205,142786
DA:207,142786
DA:209,142786
DA:210,142786
DA:211,142786
DA:213,142786
DA:214,142786
DA:215,142786
DA:217,142782
DA:218,285564
DA:219,142782
DA:221,285572
DA:223,142786
DA:225,142786
DA:226,142786
DA:227,142786
DA:229,142782
DA:230,142782
DA:231,142786
DA:233,0
DA:235,0
DA:238,1345
DA:240,1345
DA:241,1345
DA:242,1345
DA:243,1345
DA:257,111
DA:259,111
DA:260,111
DA:263,111
DA:264,274
DA:271,163
DA:272,163
DA:273,111
DA:274,111
DA:275,52
DA:278,52
DA:279,52
DA:280,52
DA:281,0
DA:283,52
DA:284,52
DA:285,884
DA:286,52
DA:287,52
DA:288,52
DA:291,52
DA:295,163
DA:296,163
DA:298,111
DA:301,14
DA:308,26
DA:310,26
DA:311,26
DA:312,0
DA:313,0
DA:316,26
DA:317,26
DA:318,26
DA:319,14
DA:320,14
DA:321,14
DA:323,12
DA:324,12
DA:326,52
DA:327,26
DA:328,0
DA:329,0
DA:331,26
DA:332,26
DA:333,0
DA:334,0
DA:336,26
DA:337,0
DA:338,0
DA:340,26
DA:342,7
DA:343,7
DA:344,7
DA:345,0
DA:346,7
DA:347,7
DA:348,7
DA:349,7
DA:350,14
DA:351,7
DA:352,0
DA:353,0
DA:355,7
DA:356,7
DA:357,7
DA:358,0
DA:359,0
DA:361,7
DA:362,0
DA:363,0
DA:365,26
DA:368,0
DA:369,0
DA:371,26
DA:372,26
DA:373,26
DA:374,26
DA:375,26
DA:376,26
DA:377,26
DA:378,26
DA:379,26
DA:380,52
DA:381,26
DA:382,0
DA:383,0
DA:385,26
DA:386,26
DA:387,0
DA:388,0
DA:390,26
DA:391,0
DA:392,0
DA:394,26
DA:395,0
DA:396,0
DA:398,0
DA:399,0
DA:400,0
DA:401,0
DA:402,0
DA:403,0
DA:404,0
DA:405,0
DA:406,0
DA:409,26
DA:410,0
DA:411,0
DA:413,26
DA:414,26
DA:416,26
DA:417,0
DA:418,0
DA:419,0
DA:420,0
DA:421,0
DA:422,0
DA:423,0
DA:425,0
DA:426,0
DA:427,0
DA:429,0
DA:431,26
DA:432,0
DA:433,0
DA:435,26
DA:436,0
DA:437,0
DA:439,26
DA:441,52
DA:443,1293
DA:445,1293
DA:447,1293
DA:448,1293
DA:449,1293
DA:450,0
DA:451,0
DA:454,1293
DA:455,1293
DA:458,1293
DA:468,1293
DA:472,1293
DA:473,0
DA:475,1293
DA:477,1293
DA:479,1293
DA:481,1293
DA:482,1293
DA:483,21981
DA:484,1293
DA:485,1293
DA:486,1293
DA:488,0
DA:489,0
DA:490,0
DA:492,1293
DA:494,0
DA:495,0
DA:496,0
DA:498,1293
DA:502,1293
DA:505,0
DA:506,0
DA:507,0
DA:509,1293
DA:511,0
DA:512,0
DA:513,0
DA:515,1293
DA:522,0
DA:523,0
DA:524,0
DA:528,1293
DA:529,1293
DA:532,13
DA:533,13
DA:534,13
DA:536,13
DA:537,13
DA:538,13
DA:539,13
DA:541,1307
